 BuildingEvalution_v2

 Timestamp is 5e7c2692 (Thu Mar 26 12:50:42 2020)

 Preferred load address is 00400000

 Start         Length     Name                   Class
 0001:00000000 002a88faH .textbss                DATA
 0002:00000000 00545eaeH .text                   CODE
 0002:00545eb0 00037e36H .text$x                 CODE
 0002:0057dcf0 00004282H .text$yc                CODE
 0002:00581f80 000026e7H .text$yd                CODE
 0003:00000000 00000104H .CRT$XCA                DATA
 0003:00000104 0000012dH .CRT$XCC                DATA
 0003:00000234 00000223H .CRT$XCL                DATA
 0003:00000458 000005f8H .CRT$XCU                DATA
 0003:00000a50 00000104H .CRT$XCZ                DATA
 0003:00000b54 00000104H .CRT$XIA                DATA
 0003:00000c58 0000011cH .CRT$XIC                DATA
 0003:00000d74 00000104H .CRT$XID                DATA
 0003:00000e78 00000104H .CRT$XIY                DATA
 0003:00000f7c 00000104H .CRT$XIZ                DATA
 0003:00001080 00000104H .CRT$XPA                DATA
 0003:00001184 00000109H .CRT$XPX                DATA
 0003:00001290 00000104H .CRT$XPXA               DATA
 0003:00001394 00000104H .CRT$XPZ                DATA
 0003:00001498 00000104H .CRT$XTA                DATA
 0003:0000159c 00000104H .CRT$XTZ                DATA
 0003:000016a0 000a5a03H .rdata                  DATA
 0003:000a70a4 00000176H .rdata$debug            DATA
 0003:000a721c 00011f1aH .rdata$r                DATA
 0003:000b9138 00000104H .rtc$IAA                DATA
 0003:000b923c 00000186H .rtc$IMZ                DATA
 0003:000b93c4 00000104H .rtc$IZZ                DATA
 0003:000b94c8 00000104H .rtc$TAA                DATA
 0003:000b95cc 00000186H .rtc$TMZ                DATA
 0003:000b9754 00000104H .rtc$TZZ                DATA
 0003:000b9858 00035666H .xdata$x                DATA
 0003:000eeec0 00000104H ATL$__a                 DATA
 0003:000eefc4 00000104H ATL$__z                 DATA
 0003:000ef0c8 00000000H .edata                  DATA
 0004:00000000 0000acdfH .data                   DATA
 0004:0000ace0 00009da4H .bss                    DATA
 0005:00000000 0000017cH .idata$2                DATA
 0005:0000017c 00000014H .idata$3                DATA
 0005:00000190 00001540H .idata$4                DATA
 0005:000016d0 00001540H .idata$5                DATA
 0005:00002c10 00004636H .idata$6                DATA
 0006:00000000 00001129H .rsrc$01                DATA
 0006:00001130 000175d3H .rsrc$02                DATA

  Address         Publics by Value              Rva+Base       Lib:Object

 0000:00000000       ___safe_se_handler_table   00000000     <absolute>
 0000:00000000       ___safe_se_handler_count   00000000     <absolute>
 0000:00000000       __except_list              00000000     <absolute>
 0000:00000000       ___ImageBase               00400000     <linker-defined>
 0001:00000000       __enc$textbss$begin        00401000     <linker-defined>
 0001:002a88fa       __enc$textbss$end          006a98fa     <linker-defined>
 0002:0002b0b0       ??0CAry@@QAE@XZ            006d50b0 f   Ary.obj
 0002:0002b100       ??1CAry@@UAE@XZ            006d5100 f   Ary.obj
 0002:0002b130       ?GetSize@CAry@@QAEHXZ      006d5130 f   Ary.obj
 0002:0002b150       ?SetSize@CAry@@QAEJH@Z     006d5150 f   Ary.obj
 0002:0002b180       ?RemoveAll@CAry@@QAEJXZ    006d5180 f   Ary.obj
 0002:0002b1e0       ?SetAt@CAry@@QAEJHPAX@Z    006d51e0 f   Ary.obj
 0002:0002b230       ?GetIndex@CAry@@QAEHPAX@Z  006d5230 f   Ary.obj
 0002:0002b2d0       ?GetAt@CAry@@QAEPAXH@Z     006d52d0 f   Ary.obj
 0002:0002b310       ?GetAtValue@CAry@@QAE_JH@Z 006d5310 f   Ary.obj
 0002:0002b360       ?Push@CAry@@QAEJPAX@Z      006d5360 f   Ary.obj
 0002:0002b390       ?Pop@CAry@@QAEPAXXZ        006d5390 f   Ary.obj
 0002:0002b3f0       ?Add@CAry@@QAEJPAX@Z       006d53f0 f   Ary.obj
 0002:0002b470       ?AddValue@CAry@@QAEJ_J@Z   006d5470 f   Ary.obj
 0002:0002b4f0       ?InsertAt@CAry@@QAEJHPAX@Z 006d54f0 f   Ary.obj
 0002:0002b5c0       ?RemoveAt@CAry@@QAEJ_J@Z   006d55c0 f   Ary.obj
 0002:0002b660       ?RemoveAt@CAry@@QAEJH@Z    006d5660 f   Ary.obj
 0002:0002b710       ?ReSize@CAry@@QAEJH@Z      006d5710 f   Ary.obj
 0002:0002b7b0       ?Append@CAry@@QAEJAAV1@@Z  006d57b0 f   Ary.obj
 0002:0002b850       ?Copy@CAry@@QAEJAAV1@@Z    006d5850 f   Ary.obj
 0002:0002b8c0       ?GetCount@CAry@@QAEHXZ     006d58c0 f   Ary.obj
 0002:0002b8e0       ?RemoveTail@CAry@@QAEJXZ   006d58e0 f   Ary.obj
 0002:0002b930       ?IsEmpty@CAry@@QAE_NXZ     006d5930 f   Ary.obj
 0002:0002b960       ?Empty@CAry@@QAEJXZ        006d5960 f   Ary.obj
 0002:0002b9c0       ?ElementAt@CAry@@QAEPAXH@Z 006d59c0 f   Ary.obj
 0002:0002ba00       ?GetTail@CAry@@QAEPAXXZ    006d5a00 f   Ary.obj
 0002:0002ba40       ?GetHead@CAry@@QAEPAXXZ    006d5a40 f   Ary.obj
 0002:0002ba70       ?RemoveHead@CAry@@QAEJXZ   006d5a70 f   Ary.obj
 0002:0002baa0       ?GetArray@CAry@@QAEPA_JXZ  006d5aa0 f   Ary.obj
 0002:0002bac0       ?SetBlockSize@CAry@@QAEXH@Z 006d5ac0 f   Ary.obj
 0002:0002bd70       ??_ECAry@@UAEPAXI@Z        006d5d70 f i Ary.obj
 0002:0002bd70       ??_GCAry@@UAEPAXI@Z        006d5d70 f i Ary.obj
 0002:0002bdc0       ??0CFFT_Common@@QAE@XZ     006d5dc0 f   fft_common.obj
 0002:0002bde0       ??1CFFT_Common@@QAE@XZ     006d5de0 f   fft_common.obj
 0002:0002be00       ?deTrend@CFFT_Common@@SAHPANH@Z 006d5e00 f   fft_common.obj
 0002:0002bf60       ?WriteFile@CFFT_Common@@SAHPADPAHH@Z 006d5f60 f   fft_common.obj
 0002:0002c070       ?cosineTapering@CFFT_Common@@SAHPANH@Z 006d6070 f   fft_common.obj
 0002:0002c1f0       ?DegreesToRadians@CFFT_Common@@SAMM@Z 006d61f0 f   fft_common.obj
 0002:0002c220       ?RadiansToDegrees@CFFT_Common@@SAMM@Z 006d6220 f   fft_common.obj
 0002:0002c250       ?AngleCorrection@CFFT_Common@@SAMMMM@Z 006d6250 f   fft_common.obj
 0002:0002c2c0       ?ToGroundTSPModule@CFFT_Common@@SAXHNPAUSampleStruct_t@@@Z 006d62c0 f   fft_common.obj
 0002:0002d0c0       ?check_value@CFFT_Common@@SAXPADPAN@Z 006d70c0 f   fft_common.obj
 0002:0002d0e0       ?fft_common_testFunc@CFFT_Common@@QAEHXZ 006d70e0 f   fft_common.obj
 0002:0002d580       ?stripCRLF@CFFT_Common@@SAXPAD@Z 006d7580 f   fft_common.obj
 0002:0002d600       ?stamp2stringT2@CFFT_Common@@SAXHPAD@Z 006d7600 f   fft_common.obj
 0002:0002d6d0       ?stamp2HumanStringT@CFFT_Common@@SAXHPAD@Z 006d76d0 f   fft_common.obj
 0002:0002d6e0       ?stamp2HumanStringT2@CFFT_Common@@SAXHPAD@Z 006d76e0 f   fft_common.obj
 0002:0002d6f0       ?GetFullName2FileName@CFFT_Common@@SAHPAD0@Z 006d76f0 f   fft_common.obj
 0002:0002d7b0       ?Rounding@CFFT_Common@@SANNH@Z 006d77b0 f   fft_common.obj
 0002:0002d820       ?CumTrapz@CFFT_Common@@SAPANPAN0H@Z 006d7820 f   fft_common.obj
 0002:0002d8f0       ?FourthRungeKutta@CFFT_Common@@SAXPAN0H@Z 006d78f0 f   fft_common.obj
 0002:0002e250       ?cos@@YAMM@Z               006d8250 f i fft_common.obj
 0002:0002e280       _cosf                      006d8280 f i fft_common.obj
 0002:0002e2c0       ?sin@@YAMM@Z               006d82c0 f i fft_common.obj
 0002:0002e2f0       _sinf                      006d82f0 f i fft_common.obj
 0002:0002e330       ?pow@@YANNH@Z              006d8330 f i fft_common.obj
 0002:0002e360       ?pow@@YAMMH@Z              006d8360 f i fft_common.obj
 0002:0002e390       ??$_Pow_int@N@@YANNH@Z     006d8390 f i fft_common.obj
 0002:0002e430       ??$_Pow_int@M@@YAMMH@Z     006d8430 f i fft_common.obj
 0002:0002e4e0       ??0CIniFunc@@QAE@XZ        006d84e0 f   IniFunc.obj
 0002:0002e880       ??1CIniFunc@@QAE@XZ        006d8880 f   IniFunc.obj
 0002:0002ec00       ?AddRandomExtrecting@CIniFunc@@QAEHV?$CStringT@DV?$StrTraitMFC@DV?$ChTraitsCRT@D@ATL@@@@@ATL@@@Z 006d8c00 f   IniFunc.obj
 0002:0002ecd0       ?DeleteRandomExtrecting@CIniFunc@@QAEHV?$CStringT@DV?$StrTraitMFC@DV?$ChTraitsCRT@D@ATL@@@@@ATL@@@Z 006d8cd0 f   IniFunc.obj
 0002:0002ee30       ?SearchRandomExtrecting@CIniFunc@@QAEHV?$CStringT@DV?$StrTraitMFC@DV?$ChTraitsCRT@D@ATL@@@@@ATL@@@Z 006d8e30 f   IniFunc.obj
 0002:0002efb0       ?ReadConfig@CIniFunc@@QAEHV?$CStringT@DV?$StrTraitMFC@DV?$ChTraitsCRT@D@ATL@@@@@ATL@@0@Z 006d8fb0 f   IniFunc.obj
 0002:00037670       ?SaveALSLevel@CIniFunc@@QAEXXZ 006e1670 f   IniFunc.obj
 0002:000377f0       ?SaveLightInfo@CIniFunc@@QAEXXZ 006e17f0 f   IniFunc.obj
 0002:000379f0       ?SaveSMSInfo@CIniFunc@@QAEXXZ 006e19f0 f   IniFunc.obj
 0002:00037ae0       ?GetCalibValue@CIniFunc@@QAEMPAD00@Z 006e1ae0 f   IniFunc.obj
 0002:00038010       ?CreatePathDirectory@CIniFunc@@QAEHPAD@Z 006e2010 f   IniFunc.obj
 0002:000380f0       ?CreatePathDirectory@CIniFunc@@QAEHV?$CStringT@DV?$StrTraitMFC@DV?$ChTraitsCRT@D@ATL@@@@@ATL@@@Z 006e20f0 f   IniFunc.obj
 0002:000385c0       ?MakeDefDir@CIniFunc@@IAEHXZ 006e25c0 f   IniFunc.obj
 0002:00038760       ?findMyNet@CIniFunc@@QAEHV?$CStringT@DV?$StrTraitMFC@DV?$ChTraitsCRT@D@ATL@@@@@ATL@@@Z 006e2760 f   IniFunc.obj
 0002:00038820       ?findMySta@CIniFunc@@QAEHV?$CStringT@DV?$StrTraitMFC@DV?$ChTraitsCRT@D@ATL@@@@@ATL@@@Z 006e2820 f   IniFunc.obj
 0002:000388e0       ?findIndexMyNetSta@CIniFunc@@QAEHV?$CStringT@DV?$StrTraitMFC@DV?$ChTraitsCRT@D@ATL@@@@@ATL@@0@Z 006e28e0 f   IniFunc.obj
 0002:000389c0       ?setNetSta@CIniFunc@@QAEXV?$CStringT@DV?$StrTraitMFC@DV?$ChTraitsCRT@D@ATL@@@@@ATL@@AAV23@1@Z 006e29c0 f   IniFunc.obj
 0002:00038e00       ?ChangeDateToCString@CIniFunc@@QAE?AV?$CStringT@DV?$StrTraitMFC@DV?$ChTraitsCRT@D@ATL@@@@@ATL@@PAD@Z 006e2e00 f   IniFunc.obj
 0002:00039000       ?ChangeTimeToCString@CIniFunc@@QAE?AV?$CStringT@DV?$StrTraitMFC@DV?$ChTraitsCRT@D@ATL@@@@@ATL@@PAD@Z 006e3000 f   IniFunc.obj
 0002:00039130       ?setDitc@CIniFunc@@QAEXV?$CStringT@DV?$StrTraitMFC@DV?$ChTraitsCRT@D@ATL@@@@@ATL@@0AAV23@@Z 006e3130 f   IniFunc.obj
 0002:0003c110       ??0CAkgcConfig@@QAE@XZ     006e6110 f i IniFunc.obj
 0002:0003c3d0       ??1CAkgcConfig@@QAE@XZ     006e63d0 f i IniFunc.obj
 0002:0003c4b0       ??_EstObsFacilityInfo@@QAEPAXI@Z 006e64b0 f i IniFunc.obj
 0002:0003c550       ??1stObsFacilityInfo@@QAE@XZ 006e6550 f i IniFunc.obj
 0002:0003c5a0       ??0stObsFacilityInfo@@QAE@XZ 006e65a0 f i IniFunc.obj
 0002:0003c680       ??0CTraceFileAndLineInfo@ATL@@QAE@PBDH@Z 006e6680 f i IniFunc.obj
 0002:0003c6c0       ??RCTraceFileAndLineInfo@ATL@@QBAXPBDZZ 006e66c0 f i IniFunc.obj
 0002:0003c730       ?TraceV@CTrace@ATL@@QBAXPBDHKI0PAD@Z 006e6730 f i IniFunc.obj
 0002:0003c770       ??BCTraceCategory@ATL@@QBEKXZ 006e6770 f i IniFunc.obj
 0002:0003c790       ?strstr@@YAPADPADPBD@Z     006e6790 f i IniFunc.obj
 0002:0003c7c0       ?Replace@?$CStringT@DV?$StrTraitMFC@DV?$ChTraitsCRT@D@ATL@@@@@ATL@@QAEHDD@Z 006e67c0 f i IniFunc.obj
 0002:0003c8e0       ?Replace@?$CStringT@DV?$StrTraitMFC@DV?$ChTraitsCRT@D@ATL@@@@@ATL@@QAEHPBD0@Z 006e68e0 f i IniFunc.obj
 0002:0003cb70       ?memcpy_s@Checked@ATL@@YAXPAXIPBXI@Z 006e6b70 f i IniFunc.obj
 0002:0003cbb0       ?AfxCrtErrorCheck@@YAHH@Z  006e6bb0 f i IniFunc.obj
 0002:0003cc90       ?memmove_s@Checked@ATL@@YAXPAXIPBXI@Z 006e6c90 f i IniFunc.obj
 0002:0003ccd0       ?Find@?$CStringT@DV?$StrTraitMFC@DV?$ChTraitsCRT@D@ATL@@@@@ATL@@QBEHDH@Z 006e6cd0 f i IniFunc.obj
 0002:0003cdb0       ?Right@?$CStringT@DV?$StrTraitMFC@DV?$ChTraitsCRT@D@ATL@@@@@ATL@@QBE?AV12@H@Z 006e6db0 f i IniFunc.obj
 0002:0003ce80       ?Left@?$CStringT@DV?$StrTraitMFC@DV?$ChTraitsCRT@D@ATL@@@@@ATL@@QBE?AV12@H@Z 006e6e80 f i IniFunc.obj
 0002:0003cf40       ??9ATL@@YA_NABV?$CStringT@DV?$StrTraitMFC@DV?$ChTraitsCRT@D@ATL@@@@@0@0@Z 006e6f40 f i IniFunc.obj
 0002:0003cf70       ??9ATL@@YA_NABV?$CStringT@DV?$StrTraitMFC@DV?$ChTraitsCRT@D@ATL@@@@@0@PBD@Z 006e6f70 f i IniFunc.obj
 0002:0003cfa0       ??0?$CStringT@DV?$StrTraitMFC@DV?$ChTraitsCRT@D@ATL@@@@@ATL@@QAE@PBDHPAUIAtlStringMgr@1@@Z 006e6fa0 f i IniFunc.obj
 0002:0003cff0       ?CharNextA@?$ChTraitsCRT@D@ATL@@SAPADPBD@Z 006e6ff0 f i IniFunc.obj
 0002:0003d010       ?StringFindString@?$ChTraitsCRT@D@ATL@@SAPBDPBD0@Z 006e7010 f i IniFunc.obj
 0002:0003d040       ?StringFindString@?$ChTraitsCRT@D@ATL@@SAPADPADPBD@Z 006e7040 f i IniFunc.obj
 0002:0003d070       ?StringFindChar@?$ChTraitsCRT@D@ATL@@SAPBDPBDD@Z 006e7070 f i IniFunc.obj
 0002:0003d0a0       ?SafeStringLen@?$ChTraitsCRT@D@ATL@@SAHPBD@Z 006e70a0 f i IniFunc.obj
 0002:0003d0f0       ??0?$CSimpleStringT@D$0A@@ATL@@QAE@PBDHPAUIAtlStringMgr@1@@Z 006e70f0 f i IniFunc.obj
 0002:0003d220       ?AtlThrowImpl@ATL@@YGXJ@Z  006e7220 f i IniFunc.obj
 0002:0003d2b0       ??RCTraceFileAndLineInfo@ATL@@QBAXKIPBDZZ 006e72b0 f i IniFunc.obj
 0002:0003d320       ?Format@?$CStringT@DV?$StrTraitMFC@DV?$ChTraitsCRT@D@ATL@@@@@ATL@@QAAXPBDZZ 006e7320 f i IniFunc.obj
 0002:0003d3b0       ?AtlIsValidString@ATL@@YAHPBDI@Z 006e73b0 f i IniFunc.obj
 0002:0003d3d0       ?FormatV@?$CStringT@DV?$StrTraitMFC@DV?$ChTraitsCRT@D@ATL@@@@@ATL@@QAEXPBDPAD@Z 006e73d0 f i IniFunc.obj
 0002:0003d4d0       ??0?$CStringT@DV?$StrTraitMFC@DV?$ChTraitsCRT@D@ATL@@@@@ATL@@QAE@XZ 006e74d0 f i IniFunc.obj
 0002:0003d510       ??0?$CStringT@DV?$StrTraitMFC@DV?$ChTraitsCRT@D@ATL@@@@@ATL@@QAE@ABV01@@Z 006e7510 f i IniFunc.obj
 0002:0003d550       ??0?$CStringT@DV?$StrTraitMFC@DV?$ChTraitsCRT@D@ATL@@@@@ATL@@QAE@PBD@Z 006e7550 f i IniFunc.obj
 0002:0003d600       ??1?$CStringT@DV?$StrTraitMFC@DV?$ChTraitsCRT@D@ATL@@@@@ATL@@QAE@XZ 006e7600 f i IniFunc.obj
 0002:0003d630       ??4?$CStringT@DV?$StrTraitMFC@DV?$ChTraitsCRT@D@ATL@@@@@ATL@@QAEAAV01@ABV01@@Z 006e7630 f i IniFunc.obj
 0002:0003d670       ??4?$CStringT@DV?$StrTraitMFC@DV?$ChTraitsCRT@D@ATL@@@@@ATL@@QAEAAV01@PBD@Z 006e7670 f i IniFunc.obj
 0002:0003d6b0       ??Y?$CStringT@DV?$StrTraitMFC@DV?$ChTraitsCRT@D@ATL@@@@@ATL@@QAEAAV01@ABV?$CSimpleStringT@D$0A@@1@@Z 006e76b0 f i IniFunc.obj
 0002:0003d6f0       ??Y?$CStringT@DV?$StrTraitMFC@DV?$ChTraitsCRT@D@ATL@@@@@ATL@@QAEAAV01@PBD@Z 006e76f0 f i IniFunc.obj
 0002:0003d730       ??8ATL@@YA_NABV?$CStringT@DV?$StrTraitMFC@DV?$ChTraitsCRT@D@ATL@@@@@0@0@Z 006e7730 f i IniFunc.obj
 0002:0003d760       ??8ATL@@YA_NABV?$CStringT@DV?$StrTraitMFC@DV?$ChTraitsCRT@D@ATL@@@@@0@PBD@Z 006e7760 f i IniFunc.obj
 0002:0003d790       ??Y?$CSimpleStringT@D$0A@@ATL@@QAEAAV01@ABV01@@Z 006e7790 f i IniFunc.obj
 0002:0003d7d0       ??Y?$CSimpleStringT@D$0A@@ATL@@QAEAAV01@PBD@Z 006e77d0 f i IniFunc.obj
 0002:0003d810       ??B?$CSimpleStringT@D$0A@@ATL@@QBEPBDXZ 006e7810 f i IniFunc.obj
 0002:0003d830       ?GetLength@?$CSimpleStringT@D$0A@@ATL@@QBEHXZ 006e7830 f i IniFunc.obj
 0002:0003d860       ?GetString@?$CSimpleStringT@D$0A@@ATL@@QBEPBDXZ 006e7860 f i IniFunc.obj
 0002:0003d880       ?GetManager@?$CStringT@DV?$StrTraitMFC@DV?$ChTraitsCRT@D@ATL@@@@@ATL@@QBEPAUIAtlStringMgr@2@XZ 006e7880 f i IniFunc.obj
 0002:0003d900       ?Compare@?$CStringT@DV?$StrTraitMFC@DV?$ChTraitsCRT@D@ATL@@@@@ATL@@QBEHPBD@Z 006e7900 f i IniFunc.obj
 0002:0003d9c0       ?CheckImplicitLoad@?$CStringT@DV?$StrTraitMFC@DV?$ChTraitsCRT@D@ATL@@@@@ATL@@AAE_NPBX@Z 006e79c0 f i IniFunc.obj
 0002:0003da80       ?LoadStringA@?$CStringT@DV?$StrTraitMFC@DV?$ChTraitsCRT@D@ATL@@@@@ATL@@QAEHI@Z 006e7a80 f i IniFunc.obj
 0002:0003daf0       ?LoadStringA@?$CStringT@DV?$StrTraitMFC@DV?$ChTraitsCRT@D@ATL@@@@@ATL@@QAEHPAUHINSTANCE__@@I@Z 006e7af0 f i IniFunc.obj
 0002:0003dbc0       ?AtlGetStringResourceImage@ATL@@YAPBUATLSTRINGRESOURCEIMAGE@1@PAUHINSTANCE__@@I@Z 006e7bc0 f i IniFunc.obj
 0002:0003dc40       ?_AtlGetStringResourceImage@ATL@@YAPBUATLSTRINGRESOURCEIMAGE@1@PAUHINSTANCE__@@PAUHRSRC__@@I@Z 006e7c40 f i IniFunc.obj
 0002:0003dd60       ??0?$CSimpleStringT@D$0A@@ATL@@QAE@PAUIAtlStringMgr@1@@Z 006e7d60 f i IniFunc.obj
 0002:0003de30       ??0?$CSimpleStringT@D$0A@@ATL@@QAE@ABV01@@Z 006e7e30 f i IniFunc.obj
 0002:0003dea0       ??1?$CSimpleStringT@D$0A@@ATL@@QAE@XZ 006e7ea0 f i IniFunc.obj
 0002:0003def0       ?Release@CStringData@ATL@@QAEXXZ 006e7ef0 f i IniFunc.obj
 0002:0003df90       ??4?$CSimpleStringT@D$0A@@ATL@@QAEAAV01@ABV01@@Z 006e7f90 f i IniFunc.obj
 0002:0003e060       ?IsLocked@CStringData@ATL@@QBE_NXZ 006e8060 f i IniFunc.obj
 0002:0003e090       ??4?$CSimpleStringT@D$0A@@ATL@@QAEAAV01@PBD@Z 006e8090 f i IniFunc.obj
 0002:0003e0d0       ?Append@?$CSimpleStringT@D$0A@@ATL@@QAEXPBD@Z 006e80d0 f i IniFunc.obj
 0002:0003e120       ?Append@?$CSimpleStringT@D$0A@@ATL@@QAEXABV12@@Z 006e8120 f i IniFunc.obj
 0002:0003e170       ?GetBuffer@?$CSimpleStringT@D$0A@@ATL@@QAEPADH@Z 006e8170 f i IniFunc.obj
 0002:0003e1b0       ?ReleaseBufferSetLength@?$CSimpleStringT@D$0A@@ATL@@QAEXH@Z 006e81b0 f i IniFunc.obj
 0002:0003e220       ?StringLength@?$CSimpleStringT@D$0A@@ATL@@SAHPBD@Z 006e8220 f i IniFunc.obj
 0002:0003e250       ?Attach@?$CSimpleStringT@D$0A@@ATL@@AAEXPAUCStringData@2@@Z 006e8250 f i IniFunc.obj
 0002:0003e290       ?data@CStringData@ATL@@QAEPAXXZ 006e8290 f i IniFunc.obj
 0002:0003e2b0       ?GetData@?$CSimpleStringT@D$0A@@ATL@@ABEPAUCStringData@2@XZ 006e82b0 f i IniFunc.obj
 0002:0003e2d0       ?PrepareWrite@?$CSimpleStringT@D$0A@@ATL@@AAEPADH@Z 006e82d0 f i IniFunc.obj
 0002:0003e370       ?SetLength@?$CSimpleStringT@D$0A@@ATL@@AAEXH@Z 006e8370 f i IniFunc.obj
 0002:0003e450       ?FindStringResourceInstance@?$StrTraitMFC@DV?$ChTraitsCRT@D@ATL@@@@SAPAUHINSTANCE__@@I@Z 006e8450 f i IniFunc.obj
 0002:0003e470       ?GetDefaultManager@?$StrTraitMFC@DV?$ChTraitsCRT@D@ATL@@@@SAPAUIAtlStringMgr@ATL@@XZ 006e8470 f i IniFunc.obj
 0002:0003e490       ?ConvertToBaseType@?$ChTraitsCRT@D@ATL@@SAXPADHPB_WH@Z 006e8490 f i IniFunc.obj
 0002:0003e4e0       ?_AtlGetConversionACP@ATL@@YGIXZ 006e84e0 f i IniFunc.obj
 0002:0003e4f0       ?Append@?$CSimpleStringT@D$0A@@ATL@@QAEXPBDH@Z 006e84f0 f i IniFunc.obj
 0002:0003e6b0       ?StringLengthN@?$CSimpleStringT@D$0A@@ATL@@SAHPBDI@Z 006e86b0 f i IniFunc.obj
 0002:0003e6e0       ?GetManager@?$CSimpleStringT@D$0A@@ATL@@QBEPAUIAtlStringMgr@2@XZ 006e86e0 f i IniFunc.obj
 0002:0003e760       ?SetString@?$CSimpleStringT@D$0A@@ATL@@QAEXPBD@Z 006e8760 f i IniFunc.obj
 0002:0003e7b0       ?SetString@?$CSimpleStringT@D$0A@@ATL@@QAEXPBDH@Z 006e87b0 f i IniFunc.obj
 0002:0003e8b0       ?Empty@?$CSimpleStringT@D$0A@@ATL@@QAEXXZ 006e88b0 f i IniFunc.obj
 0002:0003e970       ?CopyChars@?$CSimpleStringT@D$0A@@ATL@@SAXPADIPBDH@Z 006e8970 f i IniFunc.obj
 0002:0003e9a0       ?PrepareWrite2@?$CSimpleStringT@D$0A@@ATL@@AAEXH@Z 006e89a0 f i IniFunc.obj
 0002:0003ea90       ?IsShared@CStringData@ATL@@QBE_NXZ 006e8a90 f i IniFunc.obj
 0002:0003eac0       ?CloneData@?$CSimpleStringT@D$0A@@ATL@@CAPAUCStringData@2@PAU32@@Z 006e8ac0 f i IniFunc.obj
 0002:0003ebe0       ?AddRef@CStringData@ATL@@QAEXXZ 006e8be0 f i IniFunc.obj
 0002:0003ec50       ?StringCompare@?$ChTraitsCRT@D@ATL@@SAHPBD0@Z 006e8c50 f i IniFunc.obj
 0002:0003ec80       ?GetBaseTypeLength@?$ChTraitsCRT@D@ATL@@SAHPB_WH@Z 006e8c80 f i IniFunc.obj
 0002:0003ecd0       ?GetAllocLength@?$CSimpleStringT@D$0A@@ATL@@QBEHXZ 006e8cd0 f i IniFunc.obj
 0002:0003ed00       ?CopyCharsOverlapped@?$CSimpleStringT@D$0A@@ATL@@SAXPADIPBDH@Z 006e8d00 f i IniFunc.obj
 0002:0003ed30       ?ThrowMemoryException@?$CSimpleStringT@D$0A@@ATL@@KAXXZ 006e8d30 f i IniFunc.obj
 0002:0003ed50       ?Fork@?$CSimpleStringT@D$0A@@ATL@@AAEXH@Z 006e8d50 f i IniFunc.obj
 0002:0003ee80       ?Reallocate@?$CSimpleStringT@D$0A@@ATL@@AAEXH@Z 006e8e80 f i IniFunc.obj
 0002:0003ef70       ?GetFormattedLength@?$ChTraitsCRT@D@ATL@@SAHPBDPAD@Z 006e8f70 f i IniFunc.obj
 0002:0003efa0       ?Format@?$ChTraitsCRT@D@ATL@@SAHPADIPBD0@Z 006e8fa0 f i IniFunc.obj
 0002:0003efd0       ??0CLogFunc@@QAE@XZ        006e8fd0 f   LogFunc.obj
 0002:0003f080       ??0CLogFunc@@QAE@V?$CStringT@DV?$StrTraitMFC@DV?$ChTraitsCRT@D@ATL@@@@@ATL@@0@Z 006e9080 f   LogFunc.obj
 0002:0003f150       ??1CLogFunc@@QAE@XZ        006e9150 f   LogFunc.obj
 0002:0003f180       ?WriteLog@CLogFunc@@QAEXPAD0@Z 006e9180 f   LogFunc.obj
 0002:0003f460       ?genLogFileFullName@CLogFunc@@QAEHPAD00@Z 006e9460 f   LogFunc.obj
 0002:0003f590       ?MakeLogDir@CLogFunc@@QAEHPAD000@Z 006e9590 f   LogFunc.obj
 0002:0003f730       ?EmptyDirectory@CLogFunc@@QAE_NPAD@Z 006e9730 f   LogFunc.obj
 0002:0003f870       ?DeleteAllFiles@CLogFunc@@QAEXPADHH@Z 006e9870 f   LogFunc.obj
 0002:00040310       ??0CMySqlClass@@QAE@XZ     006ea310 f   mySqlClasscpp.obj
 0002:00040340       ??0CMySqlClass@@QAE@PAD000H@Z 006ea340 f   mySqlClasscpp.obj
 0002:000403e0       ??1CMySqlClass@@QAE@XZ     006ea3e0 f   mySqlClasscpp.obj
 0002:00040410       ?mySqlInit@CMySqlClass@@AAEXXZ 006ea410 f   mySqlClasscpp.obj
 0002:000404c0       ?mySqlClose@CMySqlClass@@QAEXXZ 006ea4c0 f   mySqlClasscpp.obj
 0002:00040520       ?mysqlRealConnect@CMySqlClass@@QAEPAUst_mysql@@XZ 006ea520 f   mySqlClasscpp.obj
 0002:00040580       ?mysqlRealConnect@CMySqlClass@@QAEPAUst_mysql@@V?$CStringT@DV?$StrTraitMFC@DV?$ChTraitsCRT@D@ATL@@@@@ATL@@000H@Z 006ea580 f   mySqlClasscpp.obj
 0002:000406c0       ?mysqlRealConnect@CMySqlClass@@QAEPAUst_mysql@@PAD000H@Z 006ea6c0 f   mySqlClasscpp.obj
 0002:00040780       ?mysqlQuery@CMySqlClass@@QAEHV?$CStringT@DV?$StrTraitMFC@DV?$ChTraitsCRT@D@ATL@@@@@ATL@@@Z 006ea780 f   mySqlClasscpp.obj
 0002:00040820       ?mysqlQuery@CMySqlClass@@QAEHPAD@Z 006ea820 f   mySqlClasscpp.obj
 0002:00040860       ?mysqlStoreResult@CMySqlClass@@QAEPAUst_mysql_res@@XZ 006ea860 f   mySqlClasscpp.obj
 0002:000408d0       ?mysqlNumFields@CMySqlClass@@QAEHXZ 006ea8d0 f   mySqlClasscpp.obj
 0002:00040910       ?mysqlNumFields@CMySqlClass@@QAEHPAUst_mysql_res@@@Z 006ea910 f   mySqlClasscpp.obj
 0002:00040950       ?mysqlFetchRow@CMySqlClass@@QAEPAPADXZ 006ea950 f   mySqlClasscpp.obj
 0002:00040990       ?mysqlFetchRow@CMySqlClass@@QAEPAPADPAUst_mysql_res@@@Z 006ea990 f   mySqlClasscpp.obj
 0002:000409c0       ?mysqlNumRows@CMySqlClass@@QAEKXZ 006ea9c0 f   mySqlClasscpp.obj
 0002:00040a00       ?mysqlNumRows@CMySqlClass@@QAEKPAUst_mysql_res@@@Z 006eaa00 f   mySqlClasscpp.obj
 0002:00040a40       ?mysqlFreeResult@CMySqlClass@@QAEXXZ 006eaa40 f   mySqlClasscpp.obj
 0002:00040a90       ?GetLastMySqlError@CMySqlClass@@QAEXPAD@Z 006eaa90 f   mySqlClasscpp.obj
 0002:00040ad0       ?GetLastMySqlError@CMySqlClass@@QAEXAAV?$CStringT@DV?$StrTraitMFC@DV?$ChTraitsCRT@D@ATL@@@@@ATL@@@Z 006eaad0 f   mySqlClasscpp.obj
 0002:00040d10       ?ReleaseBuffer@?$CSimpleStringT@D$0A@@ATL@@QAEXH@Z 006ead10 f i mySqlClasscpp.obj
 0002:00040d90       ?GetMessageMap@CBuildingEvalutionApp@@MBEPBUAFX_MSGMAP@@XZ 006ead90 f   BuildingEvalution.obj
 0002:00040dc0       ?GetThisMessageMap@CBuildingEvalutionApp@@KGPBUAFX_MSGMAP@@XZ 006eadc0 f   BuildingEvalution.obj
 0002:00040dd0       ??0CBuildingEvalutionApp@@QAE@XZ 006eadd0 f   BuildingEvalution.obj
 0002:00040e20       ?InitInstance@CBuildingEvalutionApp@@UAEHXZ 006eae20 f   BuildingEvalution.obj
 0002:00041180       ??_GCBuildingEvalutionApp@@UAEPAXI@Z 006eb180 f i BuildingEvalution.obj
 0002:00041180       ??_ECBuildingEvalutionApp@@UAEPAXI@Z 006eb180 f i BuildingEvalution.obj
 0002:000411d0       ??1CBuildingEvalutionApp@@UAE@XZ 006eb1d0 f i BuildingEvalution.obj
 0002:00041200       ?GetNetCodeLength@CBuildingEvalutionDlg@@QAEHXZ 006eb200 f i BuildingEvalution.obj
 0002:00041240       ?GetStaCodeLength@CBuildingEvalutionDlg@@QAEHXZ 006eb240 f i BuildingEvalution.obj
 0002:00041280       ?SupportsRestartManager@CWinApp@@UBEHXZ 006eb280 f i BuildingEvalution.obj
 0002:000412b0       ?SupportsApplicationRecovery@CWinApp@@UBEHXZ 006eb2b0 f i BuildingEvalution.obj
 0002:000412e0       ?SupportsAutosaveAtRestart@CWinApp@@UBEHXZ 006eb2e0 f i BuildingEvalution.obj
 0002:00041310       ?SupportsAutosaveAtInterval@CWinApp@@UBEHXZ 006eb310 f i BuildingEvalution.obj
 0002:00041340       ?ReopenPreviousFilesAtRestart@CWinApp@@UBEHXZ 006eb340 f i BuildingEvalution.obj
 0002:00041370       ?RestoreAutosavedFilesAtRestart@CWinApp@@UBEHXZ 006eb370 f i BuildingEvalution.obj
 0002:000413a0       ?GetApplicationRestartFlags@CWinApp@@UAEKXZ 006eb3a0 f i BuildingEvalution.obj
 0002:000413c0       ?GetApplicationRecoveryParameter@CWinApp@@UAEPAXXZ 006eb3c0 f i BuildingEvalution.obj
 0002:000413e0       ?GetApplicationRecoveryPingInterval@CWinApp@@UAEKXZ 006eb3e0 f i BuildingEvalution.obj
 0002:00041400       ??0CAboutDlg@@QAE@XZ       006eb400 f   BuildingEvalutionDlg.obj
 0002:00041440       ?DoDataExchange@CAboutDlg@@MAEXPAVCDataExchange@@@Z 006eb440 f   BuildingEvalutionDlg.obj
 0002:00041470       ?GetMessageMap@CAboutDlg@@MBEPBUAFX_MSGMAP@@XZ 006eb470 f   BuildingEvalutionDlg.obj
 0002:000414a0       ?GetThisMessageMap@CAboutDlg@@KGPBUAFX_MSGMAP@@XZ 006eb4a0 f   BuildingEvalutionDlg.obj
 0002:000414b0       ?BuildlingEvalutionProc@@YGKPAX@Z 006eb4b0 f   BuildingEvalutionDlg.obj
 0002:000436d0       ??0CBuildingEvalutionDlg@@QAE@PAVCWnd@@@Z 006ed6d0 f   BuildingEvalutionDlg.obj
 0002:00044180       ??1CBuildingEvalutionDlg@@UAE@XZ 006ee180 f   BuildingEvalutionDlg.obj
 0002:000444c0       ?DoDataExchange@CBuildingEvalutionDlg@@MAEXPAVCDataExchange@@@Z 006ee4c0 f   BuildingEvalutionDlg.obj
 0002:00044510       ?GetMessageMap@CBuildingEvalutionDlg@@MBEPBUAFX_MSGMAP@@XZ 006ee510 f   BuildingEvalutionDlg.obj
 0002:00044540       ?GetThisMessageMap@CBuildingEvalutionDlg@@KGPBUAFX_MSGMAP@@XZ 006ee540 f   BuildingEvalutionDlg.obj
 0002:00044550       ?StartBuildingEvalution@CBuildingEvalutionDlg@@QAEXXZ 006ee550 f   BuildingEvalutionDlg.obj
 0002:000445f0       ?OnInitDialog@CBuildingEvalutionDlg@@UAEHXZ 006ee5f0 f   BuildingEvalutionDlg.obj
 0002:00046340       ?GetDBSysTime@CBuildingEvalutionDlg@@QAE?AV?$CStringT@DV?$StrTraitMFC@DV?$ChTraitsCRT@D@ATL@@@@@ATL@@XZ 006f0340 f   BuildingEvalutionDlg.obj
 0002:00046780       ?Wait@CBuildingEvalutionDlg@@QAEXK@Z 006f0780 f   BuildingEvalutionDlg.obj
 0002:00046850       ?OnSysCommand@CBuildingEvalutionDlg@@QAEXIJ@Z 006f0850 f   BuildingEvalutionDlg.obj
 0002:00046930       ?OnPaint@CBuildingEvalutionDlg@@QAEXXZ 006f0930 f   BuildingEvalutionDlg.obj
 0002:00046ac0       ?OnQueryDragIcon@CBuildingEvalutionDlg@@QAEPAUHICON__@@XZ 006f0ac0 f   BuildingEvalutionDlg.obj
 0002:00046ae0       ?OnWindowPosChanging@CBuildingEvalutionDlg@@QAEXPAUtagWINDOWPOS@@@Z 006f0ae0 f   BuildingEvalutionDlg.obj
 0002:00046b30       ?OnBnClickedButton1@CBuildingEvalutionDlg@@QAEXXZ 006f0b30 f   BuildingEvalutionDlg.obj
 0002:00046b50       ?setNetSta@CBuildingEvalutionDlg@@QAEXPAD0@Z 006f0b50 f   BuildingEvalutionDlg.obj
 0002:00046c70       ?setDitc@CBuildingEvalutionDlg@@QAEXV?$CStringT@DV?$StrTraitMFC@DV?$ChTraitsCRT@D@ATL@@@@@ATL@@0AAV23@@Z 006f0c70 f   BuildingEvalutionDlg.obj
 0002:00047110       ?MakeStationInfoTxt@CBuildingEvalutionDlg@@QAEHV?$CStringT@DV?$StrTraitMFC@DV?$ChTraitsCRT@D@ATL@@@@@ATL@@0@Z 006f1110 f   BuildingEvalutionDlg.obj
 0002:00047a10       ?OnBnClickedButton2@CBuildingEvalutionDlg@@QAEXXZ 006f1a10 f   BuildingEvalutionDlg.obj
 0002:00047ac0       ?GetUserDeptInfo@CBuildingEvalutionDlg@@QAEXXZ 006f1ac0 f   BuildingEvalutionDlg.obj
 0002:00048150       ?MakeReportFile05_v2@CBuildingEvalutionDlg@@QAEXXZ 006f2150 f   BuildingEvalutionDlg.obj
 0002:00048f50       ?iniIniFile@CBuildingEvalutionDlg@@QAEXXZ 006f2f50 f   BuildingEvalutionDlg.obj
 0002:0004a020       ?WriteLog@CBuildingEvalutionDlg@@QAEXV?$CStringT@DV?$StrTraitMFC@DV?$ChTraitsCRT@D@ATL@@@@@ATL@@0@Z 006f4020 f   BuildingEvalutionDlg.obj
 0002:0004a3d0       ?genLogFileFullName@CBuildingEvalutionDlg@@QAE?AV?$CStringT@DV?$StrTraitMFC@DV?$ChTraitsCRT@D@ATL@@@@@ATL@@V23@PAD@Z 006f43d0 f   BuildingEvalutionDlg.obj
 0002:0004a610       ?MakeQscdDir@CBuildingEvalutionDlg@@QAEHV?$CStringT@DV?$StrTraitMFC@DV?$ChTraitsCRT@D@ATL@@@@@ATL@@HHH@Z 006f4610 f   BuildingEvalutionDlg.obj
 0002:0004a9c0       ?OnBnClickedCancel@CBuildingEvalutionDlg@@QAEXXZ 006f49c0 f   BuildingEvalutionDlg.obj
 0002:0004a9f0       ?Insert_BuildingEvalutionResult@CBuildingEvalutionDlg@@QAEHHV?$CStringT@DV?$StrTraitMFC@DV?$ChTraitsCRT@D@ATL@@@@@ATL@@0@Z 006f49f0 f   BuildingEvalutionDlg.obj
 0002:0004d4c0       ?Insert_BuildingEvalutionResult_Detail@CBuildingEvalutionDlg@@QAEHHPAD0V?$CStringT@DV?$StrTraitMFC@DV?$ChTraitsCRT@D@ATL@@@@@ATL@@1@Z 006f74c0 f   BuildingEvalutionDlg.obj
 0002:00050340       ?Available_BuildingEvalutionResult_Detail@CBuildingEvalutionDlg@@QAEHV?$CStringT@DV?$StrTraitMFC@DV?$ChTraitsCRT@D@ATL@@@@@ATL@@PAD11@Z 006fa340 f   BuildingEvalutionDlg.obj
 0002:00050840       ?Last_BuildingEvalutionResult_Detail@CBuildingEvalutionDlg@@QAENV?$CStringT@DV?$StrTraitMFC@DV?$ChTraitsCRT@D@ATL@@@@@ATL@@PAD11@Z 006fa840 f   BuildingEvalutionDlg.obj
 0002:00050d70       ?OnDestroy@CBuildingEvalutionDlg@@QAEXXZ 006fad70 f   BuildingEvalutionDlg.obj
 0002:00050da0       ?OnCancel@CBuildingEvalutionDlg@@UAEXXZ 006fada0 f   BuildingEvalutionDlg.obj
 0002:00050de0       ?OnTimer@CBuildingEvalutionDlg@@QAEXI@Z 006fade0 f   BuildingEvalutionDlg.obj
 0002:00050e50       ?DeleteDir@CBuildingEvalutionDlg@@QAEHV?$CStringT@DV?$StrTraitMFC@DV?$ChTraitsCRT@D@ATL@@@@@ATL@@@Z 006fae50 f   BuildingEvalutionDlg.obj
 0002:00051170       ?GetPhysicalFactor@CBuildingEvalutionDlg@@QAE?AV?$CStringT@DV?$StrTraitMFC@DV?$ChTraitsCRT@D@ATL@@@@@ATL@@V23@0@Z 006fb170 f   BuildingEvalutionDlg.obj
 0002:00051300       ?WriteReportLog@CBuildingEvalutionDlg@@QAEXV?$CStringT@DV?$StrTraitMFC@DV?$ChTraitsCRT@D@ATL@@@@@ATL@@@Z 006fb300 f   BuildingEvalutionDlg.obj
 0002:00051490       ?WideCharToMultiByte_Len@CBuildingEvalutionDlg@@QAEHV?$CStringT@DV?$StrTraitMFC@DV?$ChTraitsCRT@D@ATL@@@@@ATL@@@Z 006fb490 f   BuildingEvalutionDlg.obj
 0002:00051590       ?WideCharToMultiByte_Str@CBuildingEvalutionDlg@@QAEXV?$CStringT@DV?$StrTraitMFC@DV?$ChTraitsCRT@D@ATL@@@@@ATL@@PADH@Z 006fb590 f   BuildingEvalutionDlg.obj
 0002:00051680       ?ShowTransLog@CBuildingEvalutionDlg@@QAEXV?$CStringT@DV?$StrTraitMFC@DV?$ChTraitsCRT@D@ATL@@@@@ATL@@H@Z 006fb680 f   BuildingEvalutionDlg.obj
 0002:00051950       ?OnUmShowtranslog@CBuildingEvalutionDlg@@IAEJIJ@Z 006fb950 f   BuildingEvalutionDlg.obj
 0002:00055b30       ??_GCAboutDlg@@UAEPAXI@Z   006ffb30 f i BuildingEvalutionDlg.obj
 0002:00055b30       ??_ECAboutDlg@@UAEPAXI@Z   006ffb30 f i BuildingEvalutionDlg.obj
 0002:00055b80       ??1CAboutDlg@@UAE@XZ       006ffb80 f i BuildingEvalutionDlg.obj
 0002:00055bb0       ??1CDialogEx@@UAE@XZ       006ffbb0 f i BuildingEvalutionDlg.obj
 0002:00055c50       ??_ECBuildingEvalutionDlg@@UAEPAXI@Z 006ffc50 f i BuildingEvalutionDlg.obj
 0002:00055c50       ??_GCBuildingEvalutionDlg@@UAEPAXI@Z 006ffc50 f i BuildingEvalutionDlg.obj
 0002:00055ca0       ??_GCIniFunc@@QAEPAXI@Z    006ffca0 f i BuildingEvalutionDlg.obj
 0002:00055cf0       ??_GCLogFunc@@QAEPAXI@Z    006ffcf0 f i BuildingEvalutionDlg.obj
 0002:00055d40       ?ReverseFind@?$CStringT@DV?$StrTraitMFC@DV?$ChTraitsCRT@D@ATL@@@@@ATL@@QBEHD@Z 006ffd40 f i BuildingEvalutionDlg.obj
 0002:00055dd0       ?Trim@?$CStringT@DV?$StrTraitMFC@DV?$ChTraitsCRT@D@ATL@@@@@ATL@@QAEAAV12@XZ 006ffdd0 f i BuildingEvalutionDlg.obj
 0002:00055e10       ?Mid@?$CStringT@DV?$StrTraitMFC@DV?$ChTraitsCRT@D@ATL@@@@@ATL@@QBE?AV12@H@Z 006ffe10 f i BuildingEvalutionDlg.obj
 0002:00055e80       ?Mid@?$CStringT@DV?$StrTraitMFC@DV?$ChTraitsCRT@D@ATL@@@@@ATL@@QBE?AV12@HH@Z 006ffe80 f i BuildingEvalutionDlg.obj
 0002:00055ff0       ??HATL@@YA?AV?$CStringT@DV?$StrTraitMFC@DV?$ChTraitsCRT@D@ATL@@@@@0@ABV10@0@Z 006ffff0 f i BuildingEvalutionDlg.obj
 0002:00056130       ?GetAt@?$CSimpleStringT@D$0A@@ATL@@QBEDH@Z 00700130 f i BuildingEvalutionDlg.obj
 0002:000561d0       ??0?$CA2AEX@$0IA@@ATL@@QAE@PBD@Z 007001d0 f i BuildingEvalutionDlg.obj
 0002:00056220       ??1?$CA2AEX@$0IA@@ATL@@QAE@XZ 00700220 f i BuildingEvalutionDlg.obj
 0002:00056270       ??B?$CA2AEX@$0IA@@ATL@@QBEPADXZ 00700270 f i BuildingEvalutionDlg.obj
 0002:00056290       ?TrimRight@?$CStringT@DV?$StrTraitMFC@DV?$ChTraitsCRT@D@ATL@@@@@ATL@@QAEAAV12@XZ 00700290 f i BuildingEvalutionDlg.obj
 0002:00056360       ?TrimLeft@?$CStringT@DV?$StrTraitMFC@DV?$ChTraitsCRT@D@ATL@@@@@ATL@@QAEAAV12@XZ 00700360 f i BuildingEvalutionDlg.obj
 0002:00056470       ?StringFindCharRev@?$ChTraitsCRT@D@ATL@@SAPBDPBDD@Z 00700470 f i BuildingEvalutionDlg.obj
 0002:000564a0       ?Init@?$CA2AEX@$0IA@@ATL@@AAEXPBD@Z 007004a0 f i BuildingEvalutionDlg.obj
 0002:00056550       ?Truncate@?$CSimpleStringT@D$0A@@ATL@@QAEXH@Z 00700550 f i BuildingEvalutionDlg.obj
 0002:000565d0       ?IsSpace@?$ChTraitsCRT@D@ATL@@SAHD@Z 007005d0 f i BuildingEvalutionDlg.obj
 0002:000565f0       ??HATL@@YA?AV?$CStringT@DV?$StrTraitMFC@DV?$ChTraitsCRT@D@ATL@@@@@0@ABV10@PBD@Z 007005f0 f i BuildingEvalutionDlg.obj
 0002:00056730       ??HATL@@YA?AV?$CStringT@DV?$StrTraitMFC@DV?$ChTraitsCRT@D@ATL@@@@@0@PBDABV10@@Z 00700730 f i BuildingEvalutionDlg.obj
 0002:00056870       ?IsEmpty@?$CSimpleStringT@D$0A@@ATL@@QBE_NXZ 00700870 f i BuildingEvalutionDlg.obj
 0002:000568b0       ??0?$CA2WEX@$0IA@@ATL@@QAE@PBD@Z 007008b0 f i BuildingEvalutionDlg.obj
 0002:00056900       ??1?$CA2WEX@$0IA@@ATL@@QAE@XZ 00700900 f i BuildingEvalutionDlg.obj
 0002:00056950       ??B?$CA2WEX@$0IA@@ATL@@QBEPA_WXZ 00700950 f i BuildingEvalutionDlg.obj
 0002:00056970       ??0?$CStringT@DV?$StrTraitMFC@DV?$ChTraitsCRT@D@ATL@@@@@ATL@@QAE@PAUIAtlStringMgr@1@@Z 00700970 f i BuildingEvalutionDlg.obj
 0002:000569b0       ?Concatenate@?$CSimpleStringT@D$0A@@ATL@@KAXAAV12@PBDH1H@Z 007009b0 f i BuildingEvalutionDlg.obj
 0002:00056a50       ?Init@?$CA2WEX@$0IA@@ATL@@AAEXPBDI@Z 00700a50 f i BuildingEvalutionDlg.obj
 0002:00056bf0       ?AtlThrowLastWin32@ATL@@YGXXZ 00700bf0 f i BuildingEvalutionDlg.obj
 0002:00056c40       _HRESULT_FROM_WIN32        00700c40 f i BuildingEvalutionDlg.obj
 0002:00056c90       ?AppendFormat@?$CStringT@DV?$StrTraitMFC@DV?$ChTraitsCRT@D@ATL@@@@@ATL@@QAAXPBDZZ 00700c90 f i BuildingEvalutionDlg.obj
 0002:00056d20       ??$AtlConvFreeMemory@D@ATL@@YAXPAD0H@Z 00700d20 f i BuildingEvalutionDlg.obj
 0002:00056d70       ??$AtlConvFreeMemory@_W@ATL@@YAXPA_W0H@Z 00700d70 f i BuildingEvalutionDlg.obj
 0002:00056dc0       ??$AtlConvAllocMemory@D@ATL@@YAXPAPADHPADH@Z 00700dc0 f i BuildingEvalutionDlg.obj
 0002:00056fd0       ??$AtlConvAllocMemory@_W@ATL@@YAXPAPA_WHPA_WH@Z 00700fd0 f i BuildingEvalutionDlg.obj
 0002:000571e0       ??$AtlAddThrow@H@ATL@@YAHHH@Z 007011e0 f i BuildingEvalutionDlg.obj
 0002:00057280       ?AppendFormatV@?$CStringT@DV?$StrTraitMFC@DV?$ChTraitsCRT@D@ATL@@@@@ATL@@QAEXPBDPAD@Z 00701280 f i BuildingEvalutionDlg.obj
 0002:00057390       ??$AtlAdd@H@ATL@@YAJPAHHH@Z 00701390 f i BuildingEvalutionDlg.obj
 0002:000573e0       ??0GroundAccType@@QAE@XZ   007013e0 f   GroundAccType.obj
 0002:00057430       ??1GroundAccType@@UAE@XZ   00701430 f   GroundAccType.obj
 0002:000574b0       ?GetCurrentAcc@GroundAccType@@QAENV1@N@Z 007014b0 f   GroundAccType.obj
 0002:00057670       ??_EGroundAccType@@UAEPAXI@Z 00701670 f i GroundAccType.obj
 0002:00057670       ??_GGroundAccType@@UAEPAXI@Z 00701670 f i GroundAccType.obj
 0002:000576c0       ??0CMakeEvalutionBaseData@@QAE@XZ 007016c0 f   MakeEvalutionBaseData.obj
 0002:000578e0       ??1CMakeEvalutionBaseData@@UAE@XZ 007018e0 f   MakeEvalutionBaseData.obj
 0002:00057ba0       ?MakeBaseDataProc@CMakeEvalutionBaseData@@QAEHPAD0000@Z 00701ba0 f   MakeEvalutionBaseData.obj
 0002:0005bd90       ?testBandPassFilter@CMakeEvalutionBaseData@@QAEXNHNNH@Z 00705d90 f   MakeEvalutionBaseData.obj
 0002:0005c380       ?BandPassFilter@CMakeEvalutionBaseData@@QAEXPANNHNNHPAD@Z 00706380 f   MakeEvalutionBaseData.obj
 0002:0005c840       ?ReadStationInfo2Array@CMakeEvalutionBaseData@@QAEHV?$CStringT@DV?$StrTraitMFC@DV?$ChTraitsCRT@D@ATL@@@@@ATL@@@Z 00706840 f   MakeEvalutionBaseData.obj
 0002:0005d550       ?ReadThresholdsInfo2Array@CMakeEvalutionBaseData@@QAEHV?$CStringT@DV?$StrTraitMFC@DV?$ChTraitsCRT@D@ATL@@@@@ATL@@0@Z 00707550 f   MakeEvalutionBaseData.obj
 0002:0005e860       ?ReadEtcConfig@CMakeEvalutionBaseData@@QAEHV?$CStringT@DV?$StrTraitMFC@DV?$ChTraitsCRT@D@ATL@@@@@ATL@@@Z 00708860 f   MakeEvalutionBaseData.obj
 0002:0005ef50       ?AddStation@CMakeEvalutionBaseData@@QAEPAUSta_t@@PAU2@@Z 00708f50 f   MakeEvalutionBaseData.obj
 0002:0005f070       ?DelStation@CMakeEvalutionBaseData@@QAEHPAUSta_t@@@Z 00709070 f   MakeEvalutionBaseData.obj
 0002:0005f110       ?GetStation@CMakeEvalutionBaseData@@QAEPAUSta_t@@H@Z 00709110 f   MakeEvalutionBaseData.obj
 0002:0005f160       ?GetStation@CMakeEvalutionBaseData@@QAEPAUSta_t@@PAD@Z 00709160 f   MakeEvalutionBaseData.obj
 0002:0005f210       ?GetStationCount@CMakeEvalutionBaseData@@QAEHXZ 00709210 f   MakeEvalutionBaseData.obj
 0002:0005f240       ?AddStationDetail@CMakeEvalutionBaseData@@QAEPAUSta_Detail_t@@PAUSta_t@@PAU2@@Z 00709240 f   MakeEvalutionBaseData.obj
 0002:0005f320       ?DelAllStationDetail@CMakeEvalutionBaseData@@QAEHPAUSta_t@@@Z 00709320 f   MakeEvalutionBaseData.obj
 0002:0005f3d0       ?AddThStation@CMakeEvalutionBaseData@@QAEPAUThSta_t@@PAU2@@Z 007093d0 f   MakeEvalutionBaseData.obj
 0002:0005f4f0       ?DelThStation@CMakeEvalutionBaseData@@QAEHPAUThSta_t@@@Z 007094f0 f   MakeEvalutionBaseData.obj
 0002:0005f590       ?GetThStation@CMakeEvalutionBaseData@@QAEPAUThSta_t@@H@Z 00709590 f   MakeEvalutionBaseData.obj
 0002:0005f5e0       ?GetThStation@CMakeEvalutionBaseData@@QAEPAUThSta_t@@PAD@Z 007095e0 f   MakeEvalutionBaseData.obj
 0002:0005f690       ?GetThStation@CMakeEvalutionBaseData@@QAEPAUThSta_t@@PAD0@Z 00709690 f   MakeEvalutionBaseData.obj
 0002:0005f760       ?GetThStationCount@CMakeEvalutionBaseData@@QAEHXZ 00709760 f   MakeEvalutionBaseData.obj
 0002:0005f790       ?GetAryThStation@CMakeEvalutionBaseData@@QAEPAVCAry@@XZ 00709790 f   MakeEvalutionBaseData.obj
 0002:0005f7b0       ?AddThStationDetail@CMakeEvalutionBaseData@@QAEPAUThSta_Detail_t@@PAUThSta_t@@PAU2@@Z 007097b0 f   MakeEvalutionBaseData.obj
 0002:0005f890       ?DelAllThStationDetail@CMakeEvalutionBaseData@@QAEHPAUThSta_t@@@Z 00709890 f   MakeEvalutionBaseData.obj
 0002:0005f940       ?MakeMseed2Txt@CMakeEvalutionBaseData@@QAEXPAD00@Z 00709940 f   MakeEvalutionBaseData.obj
 0002:00060440       ?CheckMseedFile_Samprate@CMakeEvalutionBaseData@@QAEHPAD00@Z 0070a440 f   MakeEvalutionBaseData.obj
 0002:00060fa0       ?WriteReportLog@CMakeEvalutionBaseData@@QAEXV?$CStringT@DV?$StrTraitMFC@DV?$ChTraitsCRT@D@ATL@@@@@ATL@@@Z 0070afa0 f   MakeEvalutionBaseData.obj
 0002:00061180       ?mseed2txt@CMakeEvalutionBaseData@@QAEHPADN@Z 0070b180 f   MakeEvalutionBaseData.obj
 0002:000616e0       ?mseed2txt@CMakeEvalutionBaseData@@QAEHPAD0@Z 0070b6e0 f   MakeEvalutionBaseData.obj
 0002:00061c30       ?CreatePathDirectory@CMakeEvalutionBaseData@@QAEHPAD@Z 0070bc30 f   MakeEvalutionBaseData.obj
 0002:00061d30       ?CreatePathDirectory@CMakeEvalutionBaseData@@QAEHV?$CStringT@DV?$StrTraitMFC@DV?$ChTraitsCRT@D@ATL@@@@@ATL@@@Z 0070bd30 f   MakeEvalutionBaseData.obj
 0002:000622d0       ?DeleteAllFile@CMakeEvalutionBaseData@@QAEXPAD00@Z 0070c2d0 f   MakeEvalutionBaseData.obj
 0002:00062440       ?DeleteCalcData@CMakeEvalutionBaseData@@QAEXPAD00@Z 0070c440 f   MakeEvalutionBaseData.obj
 0002:00062720       ?H_StrDate@CMakeEvalutionBaseData@@QAEPAD_JPADH@Z 0070c720 f   MakeEvalutionBaseData.obj
 0002:00062860       ?ReadChanData@CMakeEvalutionBaseData@@QAEHPADD@Z 0070c860 f   MakeEvalutionBaseData.obj
 0002:00062b00       ?ParsingToken@CMakeEvalutionBaseData@@QAEHPAD@Z 0070cb00 f   MakeEvalutionBaseData.obj
 0002:00062c80       ?ComputeDenCoeffs@CMakeEvalutionBaseData@@QAE?AV?$vector@NV?$allocator@N@std@@@std@@HNN@Z 0070cc80 f   MakeEvalutionBaseData.obj
 0002:000630f0       ?TrinomialMultiply@CMakeEvalutionBaseData@@QAE?AV?$vector@NV?$allocator@N@std@@@std@@HV23@0@Z 0070d0f0 f   MakeEvalutionBaseData.obj
 0002:00063670       ?ComputeNumCoeffs@CMakeEvalutionBaseData@@QAE?AV?$vector@NV?$allocator@N@std@@@std@@HNNV23@@Z 0070d670 f   MakeEvalutionBaseData.obj
 0002:00063c70       ?ComputeLP@CMakeEvalutionBaseData@@QAE?AV?$vector@NV?$allocator@N@std@@@std@@H@Z 0070dc70 f   MakeEvalutionBaseData.obj
 0002:00063e10       ?ComputeHP@CMakeEvalutionBaseData@@QAE?AV?$vector@NV?$allocator@N@std@@@std@@H@Z 0070de10 f   MakeEvalutionBaseData.obj
 0002:00063f60       ?filter@CMakeEvalutionBaseData@@QAEXPAN0HV?$vector@NV?$allocator@N@std@@@std@@1@Z 0070df60 f   MakeEvalutionBaseData.obj
 0002:00064240       ?CheckMseedFile_Exists@CMakeEvalutionBaseData@@QAEHPAD000@Z 0070e240 f   MakeEvalutionBaseData.obj
 0002:000643e0       ?IsExistMseedFile@CMakeEvalutionBaseData@@QAEHPAD0000@Z 0070e3e0 f   MakeEvalutionBaseData.obj
 0002:000647a0       ?Integral_Acc@CMakeEvalutionBaseData@@QAENPAUSampleStruct_t@@H@Z 0070e7a0 f   MakeEvalutionBaseData.obj
 0002:00064960       ?WriteCalcResult@CMakeEvalutionBaseData@@QAEHPAD0000AAN1111H@Z 0070e960 f   MakeEvalutionBaseData.obj
 0002:00065160       ?WriteResult@CMakeEvalutionBaseData@@QAEHPAD0000@Z 0070f160 f   MakeEvalutionBaseData.obj
 0002:000675d0       ?SetDefault_Thresholds@CMakeEvalutionBaseData@@QAEXPAD@Z 007115d0 f   MakeEvalutionBaseData.obj
 0002:00067ad0       ?SpectrumCompute@CMakeEvalutionBaseData@@QAEXPAVGroundAccType@@NPAVSpectrumType@@@Z 00711ad0 f   MakeEvalutionBaseData.obj
 0002:00068540       ?DesignSpectrum@CMakeEvalutionBaseData@@QAEXNNPAVSpectrumType@@@Z 00712540 f   MakeEvalutionBaseData.obj
 0002:00068700       ?CompareSpectrum@CMakeEvalutionBaseData@@QAE_NPAVSpectrumType@@@Z 00712700 f   MakeEvalutionBaseData.obj
 0002:00068780       ?SendTransLog@CMakeEvalutionBaseData@@QAEXPAD@Z 00712780 f   MakeEvalutionBaseData.obj
 0002:0006cd40       ??_GCMakeEvalutionBaseData@@UAEPAXI@Z 00716d40 f i MakeEvalutionBaseData.obj
 0002:0006cd40       ??_ECMakeEvalutionBaseData@@UAEPAXI@Z 00716d40 f i MakeEvalutionBaseData.obj
 0002:0006cd90       ?fabs@@YAMM@Z              00716d90 f i MakeEvalutionBaseData.obj
 0002:0006cdc0       _fabsf                     00716dc0 f i MakeEvalutionBaseData.obj
 0002:0006ce00       ?endl@std@@YAAAV?$basic_ostream@DU?$char_traits@D@std@@@1@AAV21@@Z 00716e00 f i MakeEvalutionBaseData.obj
 0002:0006ce30       ??_D?$basic_ofstream@DU?$char_traits@D@std@@@std@@QAEXXZ 00716e30 f i MakeEvalutionBaseData.obj
 0002:0006ce70       ??0?$complex@N@std@@QAE@ABN0@Z 00716e70 f i MakeEvalutionBaseData.obj
 0002:0006ceb0       ??6?$basic_ostream@DU?$char_traits@D@std@@@std@@QAEAAV01@P6AAAV01@AAV01@@Z@Z 00716eb0 f i MakeEvalutionBaseData.obj
 0002:0006cf10       ??6?$basic_ostream@DU?$char_traits@D@std@@@std@@QAEAAV01@N@Z 00716f10 f i MakeEvalutionBaseData.obj
 0002:0006d170       ??1locale@std@@QAE@XZ      00717170 f i MakeEvalutionBaseData.obj
 0002:0006d1c0       ?_Decref@facet@locale@std@@QAEPAV123@XZ 007171c0 f i MakeEvalutionBaseData.obj
 0002:0006d290       ?getloc@ios_base@std@@QBE?AVlocale@2@XZ 00717290 f i MakeEvalutionBaseData.obj
 0002:0006d2f0       ??0locale@std@@QAE@ABV01@@Z 007172f0 f i MakeEvalutionBaseData.obj
 0002:0006d340       ?_Incref@facet@locale@std@@QAEXXZ 00717340 f i MakeEvalutionBaseData.obj
 0002:0006d3e0       ?put@?$basic_ostream@DU?$char_traits@D@std@@@std@@QAEAAV12@D@Z 007173e0 f i MakeEvalutionBaseData.obj
 0002:0006d5c0       ?eq_int_type@?$char_traits@D@std@@SA_NABH0@Z 007175c0 f i MakeEvalutionBaseData.obj
 0002:0006d5e0       ?eof@?$char_traits@D@std@@SAHXZ 007175e0 f i MakeEvalutionBaseData.obj
 0002:0006d5f0       ?flush@?$basic_ostream@DU?$char_traits@D@std@@@std@@QAEAAV12@XZ 007175f0 f i MakeEvalutionBaseData.obj
 0002:0006d6a0       ?fail@ios_base@std@@QBE_NXZ 007176a0 f i MakeEvalutionBaseData.obj
 0002:0006d6e0       ?rdstate@ios_base@std@@QBEHXZ 007176e0 f i MakeEvalutionBaseData.obj
 0002:0006d700       ??1?$basic_ios@DU?$char_traits@D@std@@@std@@UAE@XZ 00717700 f i MakeEvalutionBaseData.obj
 0002:0006d740       ??1ios_base@std@@UAE@XZ    00717740 f i MakeEvalutionBaseData.obj
 0002:0006d780       ??_Eios_base@std@@UAEPAXI@Z 00717780 f i MakeEvalutionBaseData.obj
 0002:0006d780       ??_Gios_base@std@@UAEPAXI@Z 00717780 f i MakeEvalutionBaseData.obj
 0002:0006d7d0       ?setstate@?$basic_ios@DU?$char_traits@D@std@@@std@@QAEXH_N@Z 007177d0 f i MakeEvalutionBaseData.obj
 0002:0006d820       ?rdbuf@?$basic_ios@DU?$char_traits@D@std@@@std@@QBEPAV?$basic_streambuf@DU?$char_traits@D@std@@@2@XZ 00717820 f i MakeEvalutionBaseData.obj
 0002:0006d840       ??0?$_Complex_base@NU_C_double_complex@@@std@@QAE@ABN0@Z 00717840 f i MakeEvalutionBaseData.obj
 0002:0006d880       ??0?$vector@NV?$allocator@N@std@@@std@@QAE@XZ 00717880 f i MakeEvalutionBaseData.obj
 0002:0006d8d0       ??0?$vector@NV?$allocator@N@std@@@std@@QAE@I@Z 007178d0 f i MakeEvalutionBaseData.obj
 0002:0006d980       ??0?$vector@NV?$allocator@N@std@@@std@@QAE@ABV01@@Z 00717980 f i MakeEvalutionBaseData.obj
 0002:0006db00       ??0?$vector@NV?$allocator@N@std@@@std@@QAE@$$QAV01@@Z 00717b00 f i MakeEvalutionBaseData.obj
 0002:0006dbc0       ??4?$vector@NV?$allocator@N@std@@@std@@QAEAAV01@$$QAV01@@Z 00717bc0 f i MakeEvalutionBaseData.obj
 0002:0006dc10       ??1?$vector@NV?$allocator@N@std@@@std@@QAE@XZ 00717c10 f i MakeEvalutionBaseData.obj
 0002:0006dc90       ?size@?$vector@NV?$allocator@N@std@@@std@@QBEIXZ 00717c90 f i MakeEvalutionBaseData.obj
 0002:0006dcc0       ??A?$vector@NV?$allocator@N@std@@@std@@QAEAANI@Z 00717cc0 f i MakeEvalutionBaseData.obj
 0002:0006dd80       ?push_back@?$vector@NV?$allocator@N@std@@@std@@QAEXABN@Z 00717d80 f i MakeEvalutionBaseData.obj
 0002:0006dee0       ?pop_back@?$vector@NV?$allocator@N@std@@@std@@QAEXXZ 00717ee0 f i MakeEvalutionBaseData.obj
 0002:0006df90       ??0?$basic_ofstream@DU?$char_traits@D@std@@@std@@QAE@XZ 00717f90 f i MakeEvalutionBaseData.obj
 0002:0006e090       ??1?$basic_ostream@DU?$char_traits@D@std@@@std@@UAE@XZ 00718090 f i MakeEvalutionBaseData.obj
 0002:0006e0c0       ??1?$basic_ofstream@DU?$char_traits@D@std@@@std@@UAE@XZ 007180c0 f i MakeEvalutionBaseData.obj
 0002:0006e160       ?open@?$basic_ofstream@DU?$char_traits@D@std@@@std@@QAEXPBDHH@Z 00718160 f i MakeEvalutionBaseData.obj
 0002:0006e1f0       ?close@?$basic_ofstream@DU?$char_traits@D@std@@@std@@QAEXXZ 007181f0 f i MakeEvalutionBaseData.obj
 0002:0006e250       ??1?$basic_filebuf@DU?$char_traits@D@std@@@std@@UAE@XZ 00718250 f i MakeEvalutionBaseData.obj
 0002:0006e300       ??1?$basic_streambuf@DU?$char_traits@D@std@@@std@@UAE@XZ 00718300 f i MakeEvalutionBaseData.obj
 0002:0006e3a0       ?_Lock@?$basic_streambuf@DU?$char_traits@D@std@@@std@@UAEXXZ 007183a0 f i MakeEvalutionBaseData.obj
 0002:0006e3d0       ?_Unlock@?$basic_streambuf@DU?$char_traits@D@std@@@std@@UAEXXZ 007183d0 f i MakeEvalutionBaseData.obj
 0002:0006e400       ?overflow@?$basic_streambuf@DU?$char_traits@D@std@@@std@@MAEHH@Z 00718400 f i MakeEvalutionBaseData.obj
 0002:0006e430       ?pbackfail@?$basic_streambuf@DU?$char_traits@D@std@@@std@@MAEHH@Z 00718430 f i MakeEvalutionBaseData.obj
 0002:0006e460       ?showmanyc@?$basic_streambuf@DU?$char_traits@D@std@@@std@@MAE_JXZ 00718460 f i MakeEvalutionBaseData.obj
 0002:0006e480       ?underflow@?$basic_streambuf@DU?$char_traits@D@std@@@std@@MAEHXZ 00718480 f i MakeEvalutionBaseData.obj
 0002:0006e4b0       ?uflow@?$basic_streambuf@DU?$char_traits@D@std@@@std@@MAEHXZ 007184b0 f i MakeEvalutionBaseData.obj
 0002:0006e560       ?to_int_type@?$char_traits@D@std@@SAHABD@Z 00718560 f i MakeEvalutionBaseData.obj
 0002:0006e570       ?xsgetn@?$basic_streambuf@DU?$char_traits@D@std@@@std@@MAE_JPAD_J@Z 00718570 f i MakeEvalutionBaseData.obj
 0002:0006e780       ?copy@?$char_traits@D@std@@SAPADPADPBDI@Z 00718780 f i MakeEvalutionBaseData.obj
 0002:0006e7b0       ?to_char_type@?$char_traits@D@std@@SADABH@Z 007187b0 f i MakeEvalutionBaseData.obj
 0002:0006e7c0       ?xsputn@?$basic_streambuf@DU?$char_traits@D@std@@@std@@MAE_JPBD_J@Z 007187c0 f i MakeEvalutionBaseData.obj
 0002:0006e990       ?seekoff@?$basic_streambuf@DU?$char_traits@D@std@@@std@@MAE?AV?$fpos@H@2@_JHH@Z 00718990 f i MakeEvalutionBaseData.obj
 0002:0006e9e0       ?seekpos@?$basic_streambuf@DU?$char_traits@D@std@@@std@@MAE?AV?$fpos@H@2@V32@H@Z 007189e0 f i MakeEvalutionBaseData.obj
 0002:0006ea30       ?setbuf@?$basic_streambuf@DU?$char_traits@D@std@@@std@@MAEPAV12@PAD_J@Z 00718a30 f i MakeEvalutionBaseData.obj
 0002:0006ea50       ?sync@?$basic_streambuf@DU?$char_traits@D@std@@@std@@MAEHXZ 00718a50 f i MakeEvalutionBaseData.obj
 0002:0006ea70       ?imbue@?$basic_streambuf@DU?$char_traits@D@std@@@std@@MAEXABVlocale@2@@Z 00718a70 f i MakeEvalutionBaseData.obj
 0002:0006ea90       ?_Lock@?$basic_filebuf@DU?$char_traits@D@std@@@std@@UAEXXZ 00718a90 f i MakeEvalutionBaseData.obj
 0002:0006eae0       ?_Unlock@?$basic_filebuf@DU?$char_traits@D@std@@@std@@UAEXXZ 00718ae0 f i MakeEvalutionBaseData.obj
 0002:0006eb30       ?overflow@?$basic_filebuf@DU?$char_traits@D@std@@@std@@MAEHH@Z 00718b30 f i MakeEvalutionBaseData.obj
 0002:0006f160       ?not_eof@?$char_traits@D@std@@SAHABH@Z 00719160 f i MakeEvalutionBaseData.obj
 0002:0006f1c0       ??$_Fputc@D@std@@YA_NDPAU_iobuf@@@Z 007191c0 f i MakeEvalutionBaseData.obj
 0002:0006f1f0       ??1?$basic_string@DU?$char_traits@D@std@@V?$allocator@D@2@@std@@QAE@XZ 007191f0 f i MakeEvalutionBaseData.obj
 0002:0006f280       ?size@?$basic_string@DU?$char_traits@D@std@@V?$allocator@D@2@@std@@QBEIXZ 00719280 f i MakeEvalutionBaseData.obj
 0002:0006f2a0       ?pbackfail@?$basic_filebuf@DU?$char_traits@D@std@@@std@@MAEHH@Z 007192a0 f i MakeEvalutionBaseData.obj
 0002:0006f460       ??$_Ungetc@D@std@@YA_NABDPAU_iobuf@@@Z 00719460 f i MakeEvalutionBaseData.obj
 0002:0006f4a0       ?underflow@?$basic_filebuf@DU?$char_traits@D@std@@@std@@MAEHXZ 007194a0 f i MakeEvalutionBaseData.obj
 0002:0006f5d0       ?uflow@?$basic_filebuf@DU?$char_traits@D@std@@@std@@MAEHXZ 007195d0 f i MakeEvalutionBaseData.obj
 0002:0006fb80       ??$_Fgetc@D@std@@YA_NAADPAU_iobuf@@@Z 00719b80 f i MakeEvalutionBaseData.obj
 0002:0006fbd0       ??0?$basic_string@DU?$char_traits@D@std@@V?$allocator@D@2@@std@@QAE@XZ 00719bd0 f i MakeEvalutionBaseData.obj
 0002:0006fc70       ?seekoff@?$basic_filebuf@DU?$char_traits@D@std@@@std@@MAE?AV?$fpos@H@2@_JHH@Z 00719c70 f i MakeEvalutionBaseData.obj
 0002:0006fdf0       ?seekpos@?$basic_filebuf@DU?$char_traits@D@std@@@std@@MAE?AV?$fpos@H@2@V32@H@Z 00719df0 f i MakeEvalutionBaseData.obj
 0002:0006ff90       ?setbuf@?$basic_filebuf@DU?$char_traits@D@std@@@std@@MAEPAV?$basic_streambuf@DU?$char_traits@D@std@@@2@PAD_J@Z 00719f90 f i MakeEvalutionBaseData.obj
 0002:00070040       ?sync@?$basic_filebuf@DU?$char_traits@D@std@@@std@@MAEHXZ 0071a040 f i MakeEvalutionBaseData.obj
 0002:00070100       ?imbue@?$basic_filebuf@DU?$char_traits@D@std@@@std@@MAEXABVlocale@2@@Z 0071a100 f i MakeEvalutionBaseData.obj
 0002:00070140       ??0?$vector@V?$complex@N@std@@V?$allocator@V?$complex@N@std@@@2@@std@@QAE@I@Z 0071a140 f i MakeEvalutionBaseData.obj
 0002:000701f0       ??1?$vector@V?$complex@N@std@@V?$allocator@V?$complex@N@std@@@2@@std@@QAE@XZ 0071a1f0 f i MakeEvalutionBaseData.obj
 0002:00070270       ??A?$vector@V?$complex@N@std@@V?$allocator@V?$complex@N@std@@@2@@std@@QAEAAV?$complex@N@1@I@Z 0071a270 f i MakeEvalutionBaseData.obj
 0002:00070330       ??1?$_String_iterator@DU?$char_traits@D@std@@V?$allocator@D@2@@std@@QAE@XZ 0071a330 f i MakeEvalutionBaseData.obj
 0002:00070360       ??1?$_String_const_iterator@DU?$char_traits@D@std@@V?$allocator@D@2@@std@@QAE@XZ 0071a360 f i MakeEvalutionBaseData.obj
 0002:00070390       ??_E?$basic_ostream@DU?$char_traits@D@std@@@std@@UAEPAXI@Z 0071a390 f i MakeEvalutionBaseData.obj
 0002:00070390       ??_G?$basic_ostream@DU?$char_traits@D@std@@@std@@UAEPAXI@Z 0071a390 f i MakeEvalutionBaseData.obj
 0002:000703f0       ??_G?$basic_ios@DU?$char_traits@D@std@@@std@@UAEPAXI@Z 0071a3f0 f i MakeEvalutionBaseData.obj
 0002:000703f0       ??_E?$basic_ios@DU?$char_traits@D@std@@@std@@UAEPAXI@Z 0071a3f0 f i MakeEvalutionBaseData.obj
 0002:00070440       ??_E?$basic_streambuf@DU?$char_traits@D@std@@@std@@UAEPAXI@Z 0071a440 f i MakeEvalutionBaseData.obj
 0002:00070440       ??_G?$basic_streambuf@DU?$char_traits@D@std@@@std@@UAEPAXI@Z 0071a440 f i MakeEvalutionBaseData.obj
 0002:00070490       ??1?$_Vector_const_iterator@V?$_Vector_val@NV?$allocator@N@std@@@std@@@std@@QAE@XZ 0071a490 f i MakeEvalutionBaseData.obj
 0002:000704c0       ??_G?$basic_ofstream@DU?$char_traits@D@std@@@std@@UAEPAXI@Z 0071a4c0 f i MakeEvalutionBaseData.obj
 0002:000704c0       ??_E?$basic_ofstream@DU?$char_traits@D@std@@@std@@UAEPAXI@Z 0071a4c0 f i MakeEvalutionBaseData.obj
 0002:00070520       ??_G?$basic_filebuf@DU?$char_traits@D@std@@@std@@UAEPAXI@Z 0071a520 f i MakeEvalutionBaseData.obj
 0002:00070520       ??_E?$basic_filebuf@DU?$char_traits@D@std@@@std@@UAEPAXI@Z 0071a520 f i MakeEvalutionBaseData.obj
 0002:00070570       ??1?$_Iterator012@Urandom_access_iterator_tag@std@@DHPBDABDU_Iterator_base12@2@@std@@QAE@XZ 0071a570 f i MakeEvalutionBaseData.obj
 0002:000705a0       ??1_Iterator_base12@std@@QAE@XZ 0071a5a0 f i MakeEvalutionBaseData.obj
 0002:00070670       ?_Orphan_me@_Iterator_base12@std@@QAEXXZ 0071a670 f i MakeEvalutionBaseData.obj
 0002:00070720       ??_D?$basic_ostream@DU?$char_traits@D@std@@@std@@QAEXXZ 0071a720 f i MakeEvalutionBaseData.obj
 0002:00070760       ??1?$_Iterator012@Urandom_access_iterator_tag@std@@NHPBNABNU_Iterator_base12@2@@std@@QAE@XZ 0071a760 f i MakeEvalutionBaseData.obj
 0002:00070790       ??0?$basic_string@DU?$char_traits@D@std@@V?$allocator@D@2@@std@@QAE@ID@Z 0071a790 f i MakeEvalutionBaseData.obj
 0002:00070850       ?append@?$basic_string@DU?$char_traits@D@std@@V?$allocator@D@2@@std@@QAEAAV12@ID@Z 0071a850 f i MakeEvalutionBaseData.obj
 0002:00070910       ?erase@?$basic_string@DU?$char_traits@D@std@@V?$allocator@D@2@@std@@QAEAAV12@II@Z 0071a910 f i MakeEvalutionBaseData.obj
 0002:000709e0       ?move@?$char_traits@D@std@@SAPADPADPBDI@Z 0071a9e0 f i MakeEvalutionBaseData.obj
 0002:00070a10       ?begin@?$basic_string@DU?$char_traits@D@std@@V?$allocator@D@2@@std@@QAE?AV?$_String_iterator@DU?$char_traits@D@std@@V?$allocator@D@2@@2@XZ 0071aa10 f i MakeEvalutionBaseData.obj
 0002:00070a80       ?_Tidy@?$basic_string@DU?$char_traits@D@std@@V?$allocator@D@2@@std@@QAEX_NI@Z 0071aa80 f i MakeEvalutionBaseData.obj
 0002:00070b40       ??0?$_String_val@DV?$allocator@D@std@@@std@@QAE@V?$allocator@D@1@@Z 0071ab40 f i MakeEvalutionBaseData.obj
 0002:00070c80       ??0_Container_proxy@std@@QAE@XZ 0071ac80 f i MakeEvalutionBaseData.obj
 0002:00070cc0       ??0_Container_base12@std@@QAE@XZ 0071acc0 f i MakeEvalutionBaseData.obj
 0002:00070cf0       ??1_Container_base12@std@@QAE@XZ 0071acf0 f i MakeEvalutionBaseData.obj
 0002:00070d20       ?_Orphan_all@_Container_base12@std@@QAEXXZ 0071ad20 f i MakeEvalutionBaseData.obj
 0002:00070e00       ??1?$_String_val@DV?$allocator@D@std@@@std@@QAE@XZ 0071ae00 f i MakeEvalutionBaseData.obj
 0002:00070f10       ??0?$allocator@D@std@@QAE@XZ 0071af10 f i MakeEvalutionBaseData.obj
 0002:00070f30       ??0?$allocator@D@std@@QAE@ABV01@@Z 0071af30 f i MakeEvalutionBaseData.obj
 0002:00070f50       ??0?$basic_ostream@DU?$char_traits@D@std@@@std@@QAE@PAV?$basic_streambuf@DU?$char_traits@D@std@@@1@_N@Z 0071af50 f i MakeEvalutionBaseData.obj
 0002:00071040       ?clear@?$basic_ios@DU?$char_traits@D@std@@@std@@QAEXH_N@Z 0071b040 f i MakeEvalutionBaseData.obj
 0002:000710b0       ?clear@ios_base@std@@QAEXH_N@Z 0071b0b0 f i MakeEvalutionBaseData.obj
 0002:00071200       ??0runtime_error@std@@QAE@ABV01@@Z 0071b200 f i MakeEvalutionBaseData.obj
 0002:00071250       ??_Eruntime_error@std@@UAEPAXI@Z 0071b250 f i MakeEvalutionBaseData.obj
 0002:00071250       ??_Gruntime_error@std@@UAEPAXI@Z 0071b250 f i MakeEvalutionBaseData.obj
 0002:000712a0       ??1runtime_error@std@@UAE@XZ 0071b2a0 f i MakeEvalutionBaseData.obj
 0002:000712d0       ?make_error_code@std@@YA?AVerror_code@1@W4io_errc@31@@Z 0071b2d0 f i MakeEvalutionBaseData.obj
 0002:00071300       ??0error_code@std@@QAE@HABVerror_category@1@@Z 0071b300 f i MakeEvalutionBaseData.obj
 0002:00071340       ??0failure@ios_base@std@@QAE@PBDABVerror_code@2@@Z 0071b340 f i MakeEvalutionBaseData.obj
 0002:00071390       ??0system_error@std@@QAE@Verror_code@1@PBD@Z 0071b390 f i MakeEvalutionBaseData.obj
 0002:00071440       ??0runtime_error@std@@QAE@PBD@Z 0071b440 f i MakeEvalutionBaseData.obj
 0002:00071490       ?_Makestr@system_error@std@@AAEXXZ 0071b490 f i MakeEvalutionBaseData.obj
 0002:000714b0       ??_Gsystem_error@std@@UAEPAXI@Z 0071b4b0 f i MakeEvalutionBaseData.obj
 0002:000714b0       ??_Esystem_error@std@@UAEPAXI@Z 0071b4b0 f i MakeEvalutionBaseData.obj
 0002:00071500       ??1system_error@std@@UAE@XZ 0071b500 f i MakeEvalutionBaseData.obj
 0002:00071530       ??_Efailure@ios_base@std@@UAEPAXI@Z 0071b530 f i MakeEvalutionBaseData.obj
 0002:00071530       ??_Gfailure@ios_base@std@@UAEPAXI@Z 0071b530 f i MakeEvalutionBaseData.obj
 0002:00071580       ??1failure@ios_base@std@@UAE@XZ 0071b580 f i MakeEvalutionBaseData.obj
 0002:000715b0       ??0failure@ios_base@std@@QAE@ABV012@@Z 0071b5b0 f i MakeEvalutionBaseData.obj
 0002:00071600       ??0system_error@std@@QAE@ABV01@@Z 0071b600 f i MakeEvalutionBaseData.obj
 0002:00071660       ?fill@?$basic_ios@DU?$char_traits@D@std@@@std@@QBEDXZ 0071b660 f i MakeEvalutionBaseData.obj
 0002:00071680       ??0?$basic_ios@DU?$char_traits@D@std@@@std@@IAE@XZ 0071b680 f i MakeEvalutionBaseData.obj
 0002:000716c0       ??0ios_base@std@@IAE@XZ    0071b6c0 f i MakeEvalutionBaseData.obj
 0002:000716f0       ?pubsync@?$basic_streambuf@DU?$char_traits@D@std@@@std@@QAEHXZ 0071b6f0 f i MakeEvalutionBaseData.obj
 0002:00071740       ?sputc@?$basic_streambuf@DU?$char_traits@D@std@@@std@@QAEHD@Z 0071b740 f i MakeEvalutionBaseData.obj
 0002:00071800       ?eback@?$basic_streambuf@DU?$char_traits@D@std@@@std@@IBEPADXZ 0071b800 f i MakeEvalutionBaseData.obj
 0002:00071820       ?gptr@?$basic_streambuf@DU?$char_traits@D@std@@@std@@IBEPADXZ 0071b820 f i MakeEvalutionBaseData.obj
 0002:00071840       ?pptr@?$basic_streambuf@DU?$char_traits@D@std@@@std@@IBEPADXZ 0071b840 f i MakeEvalutionBaseData.obj
 0002:00071860       ?egptr@?$basic_streambuf@DU?$char_traits@D@std@@@std@@IBEPADXZ 0071b860 f i MakeEvalutionBaseData.obj
 0002:00071890       ?gbump@?$basic_streambuf@DU?$char_traits@D@std@@@std@@IAEXH@Z 0071b890 f i MakeEvalutionBaseData.obj
 0002:000718e0       ?epptr@?$basic_streambuf@DU?$char_traits@D@std@@@std@@IBEPADXZ 0071b8e0 f i MakeEvalutionBaseData.obj
 0002:00071910       ?_Gndec@?$basic_streambuf@DU?$char_traits@D@std@@@std@@IAEPADXZ 0071b910 f i MakeEvalutionBaseData.obj
 0002:00071970       ?_Gninc@?$basic_streambuf@DU?$char_traits@D@std@@@std@@IAEPADXZ 0071b970 f i MakeEvalutionBaseData.obj
 0002:000719e0       ?_Gnavail@?$basic_streambuf@DU?$char_traits@D@std@@@std@@IBE_JXZ 0071b9e0 f i MakeEvalutionBaseData.obj
 0002:00071a30       ?pbump@?$basic_streambuf@DU?$char_traits@D@std@@@std@@IAEXH@Z 0071ba30 f i MakeEvalutionBaseData.obj
 0002:00071a80       ?_Pninc@?$basic_streambuf@DU?$char_traits@D@std@@@std@@IAEPADXZ 0071ba80 f i MakeEvalutionBaseData.obj
 0002:00071af0       ?_Pnavail@?$basic_streambuf@DU?$char_traits@D@std@@@std@@IBE_JXZ 0071baf0 f i MakeEvalutionBaseData.obj
 0002:00071b40       ?_Assign_rv@?$vector@NV?$allocator@N@std@@@std@@QAEX$$QAV12@@Z 0071bb40 f i MakeEvalutionBaseData.obj
 0002:00071d50       ?_Swap_all@_Container_base12@std@@QAEXAAU12@@Z 0071bd50 f i MakeEvalutionBaseData.obj
 0002:00071e30       ?begin@?$vector@NV?$allocator@N@std@@@std@@QBE?AV?$_Vector_const_iterator@V?$_Vector_val@NV?$allocator@N@std@@@std@@@2@XZ 0071be30 f i MakeEvalutionBaseData.obj
 0002:00071e90       ?end@?$vector@NV?$allocator@N@std@@@std@@QBE?AV?$_Vector_const_iterator@V?$_Vector_val@NV?$allocator@N@std@@@std@@@2@XZ 0071be90 f i MakeEvalutionBaseData.obj
 0002:00071ef0       ?resize@?$vector@NV?$allocator@N@std@@@std@@QAEXI@Z 0071bef0 f i MakeEvalutionBaseData.obj
 0002:000720f0       ?empty@?$vector@NV?$allocator@N@std@@@std@@QBE_NXZ 0071c0f0 f i MakeEvalutionBaseData.obj
 0002:00072120       ?_Buy@?$vector@NV?$allocator@N@std@@@std@@IAE_NI@Z 0071c120 f i MakeEvalutionBaseData.obj
 0002:000721e0       ?_Inside@?$vector@NV?$allocator@N@std@@@std@@IBE_NPBN@Z 0071c1e0 f i MakeEvalutionBaseData.obj
 0002:00072240       ?_Reserve@?$vector@NV?$allocator@N@std@@@std@@IAEXI@Z 0071c240 f i MakeEvalutionBaseData.obj
 0002:000722e0       ?_Tidy@?$vector@NV?$allocator@N@std@@@std@@IAEXXZ 0071c2e0 f i MakeEvalutionBaseData.obj
 0002:00072390       ?_Orphan_range@?$vector@NV?$allocator@N@std@@@std@@IBEXPAN0@Z 0071c390 f i MakeEvalutionBaseData.obj
 0002:000724e0       ?_Getpfirst@_Container_base12@std@@QBEPAPAU_Iterator_base12@2@XZ 0071c4e0 f i MakeEvalutionBaseData.obj
 0002:00072530       ?_Clrcont@_Iterator_base12@std@@QAEXXZ 0071c530 f i MakeEvalutionBaseData.obj
 0002:00072560       ?_Getpnext@_Iterator_base12@std@@QAEPAPAU12@XZ 0071c560 f i MakeEvalutionBaseData.obj
 0002:00072580       ??0?$_Vector_val@NV?$allocator@N@std@@@std@@QAE@V?$allocator@N@1@@Z 0071c580 f i MakeEvalutionBaseData.obj
 0002:000726e0       ??1?$_Vector_val@NV?$allocator@N@std@@@std@@QAE@XZ 0071c6e0 f i MakeEvalutionBaseData.obj
 0002:000727f0       ??0?$allocator@N@std@@QAE@XZ 0071c7f0 f i MakeEvalutionBaseData.obj
 0002:00072810       ??0?$allocator@N@std@@QAE@ABV01@@Z 0071c810 f i MakeEvalutionBaseData.obj
 0002:00072830       ??0?$basic_filebuf@DU?$char_traits@D@std@@@std@@QAE@PAU_iobuf@@@Z 0071c830 f i MakeEvalutionBaseData.obj
 0002:000728d0       ?open@?$basic_filebuf@DU?$char_traits@D@std@@@std@@QAEPAV12@PBDHH@Z 0071c8d0 f i MakeEvalutionBaseData.obj
 0002:000729e0       ?close@?$basic_filebuf@DU?$char_traits@D@std@@@std@@QAEPAV12@XZ 0071c9e0 f i MakeEvalutionBaseData.obj
 0002:00072a80       ?_Init@?$basic_filebuf@DU?$char_traits@D@std@@@std@@IAEXPAU_iobuf@@W4_Initfl@12@@Z 0071ca80 f i MakeEvalutionBaseData.obj
 0002:00072b70       ?_Endwrite@?$basic_filebuf@DU?$char_traits@D@std@@@std@@IAE_NXZ 0071cb70 f i MakeEvalutionBaseData.obj
 0002:00073000       ?_Initcvt@?$basic_filebuf@DU?$char_traits@D@std@@@std@@IAEXPBV?$codecvt@DDH@2@@Z 0071d000 f i MakeEvalutionBaseData.obj
 0002:00073060       ?always_noconv@codecvt_base@std@@QBE_NXZ 0071d060 f i MakeEvalutionBaseData.obj
 0002:000730b0       ?_Reset_back@?$basic_filebuf@DU?$char_traits@D@std@@@std@@AAEXXZ 0071d0b0 f i MakeEvalutionBaseData.obj
 0002:00073110       ?_Set_back@?$basic_filebuf@DU?$char_traits@D@std@@@std@@AAEXXZ 0071d110 f i MakeEvalutionBaseData.obj
 0002:00073190       ?resize@?$vector@V?$complex@N@std@@V?$allocator@V?$complex@N@std@@@2@@std@@QAEXI@Z 0071d190 f i MakeEvalutionBaseData.obj
 0002:00073390       ?size@?$vector@V?$complex@N@std@@V?$allocator@V?$complex@N@std@@@2@@std@@QBEIXZ 0071d390 f i MakeEvalutionBaseData.obj
 0002:000733c0       ?_Tidy@?$vector@V?$complex@N@std@@V?$allocator@V?$complex@N@std@@@2@@std@@IAEXXZ 0071d3c0 f i MakeEvalutionBaseData.obj
 0002:00073470       ??0?$_Vector_val@V?$complex@N@std@@V?$allocator@V?$complex@N@std@@@2@@std@@QAE@V?$allocator@V?$complex@N@std@@@1@@Z 0071d470 f i MakeEvalutionBaseData.obj
 0002:000735d0       ??1?$_Vector_val@V?$complex@N@std@@V?$allocator@V?$complex@N@std@@@2@@std@@QAE@XZ 0071d5d0 f i MakeEvalutionBaseData.obj
 0002:000736e0       ??0?$allocator@V?$complex@N@std@@@std@@QAE@XZ 0071d6e0 f i MakeEvalutionBaseData.obj
 0002:00073700       ??D?$_String_iterator@DU?$char_traits@D@std@@V?$allocator@D@2@@std@@QBEAADXZ 0071d700 f i MakeEvalutionBaseData.obj
 0002:00073730       ??0sentry@?$basic_ostream@DU?$char_traits@D@std@@@std@@QAE@AAV12@@Z 0071d730 f i MakeEvalutionBaseData.obj
 0002:00073830       ?good@ios_base@std@@QBE_NXZ 0071d830 f i MakeEvalutionBaseData.obj
 0002:00073870       ??1sentry@?$basic_ostream@DU?$char_traits@D@std@@@std@@QAE@XZ 0071d870 f i MakeEvalutionBaseData.obj
 0002:00073900       ??Bsentry@?$basic_ostream@DU?$char_traits@D@std@@@std@@QBEPQ_Bool_struct@2@HXZ 0071d900 f i MakeEvalutionBaseData.obj
 0002:00073930       ?put@?$num_put@DV?$ostreambuf_iterator@DU?$char_traits@D@std@@@std@@@std@@QBE?AV?$ostreambuf_iterator@DU?$char_traits@D@std@@@2@V32@AAVios_base@2@DN@Z 0071d930 f i MakeEvalutionBaseData.obj
 0002:000739a0       ??0?$ostreambuf_iterator@DU?$char_traits@D@std@@@std@@QAE@PAV?$basic_streambuf@DU?$char_traits@D@std@@@1@@Z 0071d9a0 f i MakeEvalutionBaseData.obj
 0002:000739d0       ?failed@?$ostreambuf_iterator@DU?$char_traits@D@std@@@std@@QBE_NXZ 0071d9d0 f i MakeEvalutionBaseData.obj
 0002:000739f0       ??0?$fpos@H@std@@QAE@_J@Z  0071d9f0 f i MakeEvalutionBaseData.obj
 0002:00073a50       ??0?$fpos@H@std@@QAE@H_J@Z 0071da50 f i MakeEvalutionBaseData.obj
 0002:00073aa0       ?state@?$fpos@H@std@@QBEHXZ 0071daa0 f i MakeEvalutionBaseData.obj
 0002:00073ac0       ?seekpos@?$fpos@H@std@@QBE_JXZ 0071dac0 f i MakeEvalutionBaseData.obj
 0002:00073af0       ??B?$fpos@H@std@@QBE_JXZ   0071daf0 f i MakeEvalutionBaseData.obj
 0002:00073b20       ?in@?$codecvt@DDH@std@@QBEHAAHPBD1AAPBDPAD3AAPAD@Z 0071db20 f i MakeEvalutionBaseData.obj
 0002:00073b90       ?out@?$codecvt@DDH@std@@QBEHAAHPBD1AAPBDPAD3AAPAD@Z 0071db90 f i MakeEvalutionBaseData.obj
 0002:00073c00       ??1?$_Vector_iterator@V?$_Vector_val@NV?$allocator@N@std@@@std@@@std@@QAE@XZ 0071dc00 f i MakeEvalutionBaseData.obj
 0002:00073c30       ??0?$_Vector_const_iterator@V?$_Vector_val@NV?$allocator@N@std@@@std@@@std@@QAE@ABV01@@Z 0071dc30 f i MakeEvalutionBaseData.obj
 0002:00073c80       ??1?$_Vector_iterator@V?$_Vector_val@V?$complex@N@std@@V?$allocator@V?$complex@N@std@@@2@@std@@@std@@QAE@XZ 0071dc80 f i MakeEvalutionBaseData.obj
 0002:00073cb0       ??0?$_Vector_const_iterator@V?$_Vector_val@V?$complex@N@std@@V?$allocator@V?$complex@N@std@@@2@@std@@@std@@QAE@ABV01@@Z 0071dcb0 f i MakeEvalutionBaseData.obj
 0002:00073d00       ??1?$_Vector_const_iterator@V?$_Vector_val@V?$complex@N@std@@V?$allocator@V?$complex@N@std@@@2@@std@@@std@@QAE@XZ 0071dd00 f i MakeEvalutionBaseData.obj
 0002:00073d30       ??0?$_Iterator012@Urandom_access_iterator_tag@std@@NHPBNABNU_Iterator_base12@2@@std@@QAE@ABU01@@Z 0071dd30 f i MakeEvalutionBaseData.obj
 0002:00073d70       ??0_Iterator_base12@std@@QAE@ABU01@@Z 0071dd70 f i MakeEvalutionBaseData.obj
 0002:00073dc0       ??4_Iterator_base12@std@@QAEAAU01@ABU01@@Z 0071ddc0 f i MakeEvalutionBaseData.obj
 0002:00073e10       ?_Adopt@_Iterator_base12@std@@QAEXPBU_Container_base12@2@@Z 0071de10 f i MakeEvalutionBaseData.obj
 0002:00073f30       ??0?$_Iterator012@Urandom_access_iterator_tag@std@@V?$complex@N@2@HPBV32@ABV32@U_Iterator_base12@2@@std@@QAE@ABU01@@Z 0071df30 f i MakeEvalutionBaseData.obj
 0002:00073f70       ??1?$_Iterator012@Urandom_access_iterator_tag@std@@V?$complex@N@2@HPBV32@ABV32@U_Iterator_base12@2@@std@@QAE@XZ 0071df70 f i MakeEvalutionBaseData.obj
 0002:00073fa0       ?assign@?$basic_string@DU?$char_traits@D@std@@V?$allocator@D@2@@std@@QAEAAV12@ID@Z 0071dfa0 f i MakeEvalutionBaseData.obj
 0002:00074030       ?_Chassign@?$basic_string@DU?$char_traits@D@std@@V?$allocator@D@2@@std@@QAEXIID@Z 0071e030 f i MakeEvalutionBaseData.obj
 0002:000740b0       ?assign@?$char_traits@D@std@@SAPADPADID@Z 0071e0b0 f i MakeEvalutionBaseData.obj
 0002:000740e0       ?assign@?$char_traits@D@std@@SAXAADABD@Z 0071e0e0 f i MakeEvalutionBaseData.obj
 0002:00074100       ?_Eos@?$basic_string@DU?$char_traits@D@std@@V?$allocator@D@2@@std@@QAEXI@Z 0071e100 f i MakeEvalutionBaseData.obj
 0002:00074160       ?_Grow@?$basic_string@DU?$char_traits@D@std@@V?$allocator@D@2@@std@@QAE_NI_N@Z 0071e160 f i MakeEvalutionBaseData.obj
 0002:00074240       ?_Myptr@?$basic_string@DU?$char_traits@D@std@@V?$allocator@D@2@@std@@QAEPADXZ 0071e240 f i MakeEvalutionBaseData.obj
 0002:00074290       ?_Xlen@?$basic_string@DU?$char_traits@D@std@@V?$allocator@D@2@@std@@QBEXXZ 0071e290 f i MakeEvalutionBaseData.obj
 0002:000742c0       ?_Xran@?$basic_string@DU?$char_traits@D@std@@V?$allocator@D@2@@std@@QBEXXZ 0071e2c0 f i MakeEvalutionBaseData.obj
 0002:000742f0       ?deallocate@?$allocator@D@std@@QAEXPADI@Z 0071e2f0 f i MakeEvalutionBaseData.obj
 0002:00074330       ?_Osfx@?$basic_ostream@DU?$char_traits@D@std@@@std@@QAEXXZ 0071e330 f i MakeEvalutionBaseData.obj
 0002:00074400       ?flags@ios_base@std@@QBEHXZ 0071e400 f i MakeEvalutionBaseData.obj
 0002:00074420       ?tie@?$basic_ios@DU?$char_traits@D@std@@@std@@QBEPAV?$basic_ostream@DU?$char_traits@D@std@@@2@XZ 0071e420 f i MakeEvalutionBaseData.obj
 0002:00074440       ?init@?$basic_ios@DU?$char_traits@D@std@@@std@@IAEXPAV?$basic_streambuf@DU?$char_traits@D@std@@@2@_N@Z 0071e440 f i MakeEvalutionBaseData.obj
 0002:000744d0       ?_Init@ios_base@std@@IAEXXZ 0071e4d0 f i MakeEvalutionBaseData.obj
 0002:000745e0       ??0locale@std@@QAE@XZ      0071e5e0 f i MakeEvalutionBaseData.obj
 0002:00074630       ?clear@ios_base@std@@QAEXH@Z 0071e630 f i MakeEvalutionBaseData.obj
 0002:00074670       ??0?$basic_streambuf@DU?$char_traits@D@std@@@std@@IAE@XZ 0071e670 f i MakeEvalutionBaseData.obj
 0002:00074760       ?getloc@?$basic_streambuf@DU?$char_traits@D@std@@@std@@QBE?AVlocale@2@XZ 0071e760 f i MakeEvalutionBaseData.obj
 0002:000747c0       ?setg@?$basic_streambuf@DU?$char_traits@D@std@@@std@@IAEXPAD00@Z 0071e7c0 f i MakeEvalutionBaseData.obj
 0002:00074810       ?_Init@?$basic_streambuf@DU?$char_traits@D@std@@@std@@IAEXXZ 0071e810 f i MakeEvalutionBaseData.obj
 0002:000748b0       ?_Init@?$basic_streambuf@DU?$char_traits@D@std@@@std@@IAEXPAPAD0PAH001@Z 0071e8b0 f i MakeEvalutionBaseData.obj
 0002:00074910       ?push_back@?$vector@NV?$allocator@N@std@@@std@@QAEX$$QAN@Z 0071e910 f i MakeEvalutionBaseData.obj
 0002:00074a90       ?reserve@?$vector@NV?$allocator@N@std@@@std@@QAEXI@Z 0071ea90 f i MakeEvalutionBaseData.obj
 0002:00074c60       ?capacity@?$vector@NV?$allocator@N@std@@@std@@QBEIXZ 0071ec60 f i MakeEvalutionBaseData.obj
 0002:00074c90       ?begin@?$vector@NV?$allocator@N@std@@@std@@QAE?AV?$_Vector_iterator@V?$_Vector_val@NV?$allocator@N@std@@@std@@@2@XZ 0071ec90 f i MakeEvalutionBaseData.obj
 0002:00074cf0       ?end@?$vector@NV?$allocator@N@std@@@std@@QAE?AV?$_Vector_iterator@V?$_Vector_val@NV?$allocator@N@std@@@std@@@2@XZ 0071ecf0 f i MakeEvalutionBaseData.obj
 0002:00074d50       ?max_size@?$vector@NV?$allocator@N@std@@@std@@QBEIXZ 0071ed50 f i MakeEvalutionBaseData.obj
 0002:00074d80       ?get_allocator@?$vector@NV?$allocator@N@std@@@std@@QBE?AV?$allocator@N@2@XZ 0071ed80 f i MakeEvalutionBaseData.obj
 0002:00074dc0       ?erase@?$vector@NV?$allocator@N@std@@@std@@QAE?AV?$_Vector_iterator@V?$_Vector_val@NV?$allocator@N@std@@@std@@@2@V?$_Vector_const_iterator@V?$_Vector_val@NV?$allocator@N@std@@@std@@@2@0@Z 0071edc0 f i MakeEvalutionBaseData.obj
 0002:00075040       ?_Getcont@_Iterator_base12@std@@QBEPBU_Container_base12@2@XZ 0071f040 f i MakeEvalutionBaseData.obj
 0002:00075090       ?clear@?$vector@NV?$allocator@N@std@@@std@@QAEXXZ 0071f090 f i MakeEvalutionBaseData.obj
 0002:000751c0       ?_Destroy@?$vector@NV?$allocator@N@std@@@std@@IAEXPAN0@Z 0071f1c0 f i MakeEvalutionBaseData.obj
 0002:00075210       ?_Grow_to@?$vector@NV?$allocator@N@std@@@std@@IBEII@Z 0071f210 f i MakeEvalutionBaseData.obj
 0002:000752b0       ?_Xlen@?$vector@NV?$allocator@N@std@@@std@@IBEXXZ 0071f2b0 f i MakeEvalutionBaseData.obj
 0002:000752e0       ?deallocate@?$allocator@N@std@@QAEXPANI@Z 0071f2e0 f i MakeEvalutionBaseData.obj
 0002:00075320       ?allocate@?$allocator@N@std@@QAEPANI@Z 0071f320 f i MakeEvalutionBaseData.obj
 0002:00075360       ?begin@?$vector@V?$complex@N@std@@V?$allocator@V?$complex@N@std@@@2@@std@@QAE?AV?$_Vector_iterator@V?$_Vector_val@V?$complex@N@std@@V?$allocator@V?$complex@N@std@@@2@@std@@@2@XZ 0071f360 f i MakeEvalutionBaseData.obj
 0002:000753c0       ?end@?$vector@V?$complex@N@std@@V?$allocator@V?$complex@N@std@@@2@@std@@QAE?AV?$_Vector_iterator@V?$_Vector_val@V?$complex@N@std@@V?$allocator@V?$complex@N@std@@@2@@std@@@2@XZ 0071f3c0 f i MakeEvalutionBaseData.obj
 0002:00075420       ?erase@?$vector@V?$complex@N@std@@V?$allocator@V?$complex@N@std@@@2@@std@@QAE?AV?$_Vector_iterator@V?$_Vector_val@V?$complex@N@std@@V?$allocator@V?$complex@N@std@@@2@@std@@@2@V?$_Vector_const_iterator@V?$_Vector_val@V?$complex@N@std@@V?$allocator@V?$complex@N@std@@@2@@std@@@2@0@Z 0071f420 f i MakeEvalutionBaseData.obj
 0002:000756a0       ?_Destroy@?$vector@V?$complex@N@std@@V?$allocator@V?$complex@N@std@@@2@@std@@IAEXPAV?$complex@N@2@0@Z 0071f6a0 f i MakeEvalutionBaseData.obj
 0002:000756f0       ?_Reserve@?$vector@V?$complex@N@std@@V?$allocator@V?$complex@N@std@@@2@@std@@IAEXI@Z 0071f6f0 f i MakeEvalutionBaseData.obj
 0002:00075790       ??0?$allocator@V?$complex@N@std@@@std@@QAE@ABV01@@Z 0071f790 f i MakeEvalutionBaseData.obj
 0002:000757b0       ?deallocate@?$allocator@V?$complex@N@std@@@std@@QAEXPAV?$complex@N@2@I@Z 0071f7b0 f i MakeEvalutionBaseData.obj
 0002:000757f0       ??0?$_String_iterator@DU?$char_traits@D@std@@V?$allocator@D@2@@std@@QAE@PADPBU_Container_base12@1@@Z 0071f7f0 f i MakeEvalutionBaseData.obj
 0002:00075830       ??D?$_String_const_iterator@DU?$char_traits@D@std@@V?$allocator@D@2@@std@@QBEABDXZ 0071f830 f i MakeEvalutionBaseData.obj
 0002:00075940       ??0_Sentry_base@?$basic_ostream@DU?$char_traits@D@std@@@std@@QAE@AAV12@@Z 0071f940 f i MakeEvalutionBaseData.obj
 0002:000759e0       ??1_Sentry_base@?$basic_ostream@DU?$char_traits@D@std@@@std@@QAE@XZ 0071f9e0 f i MakeEvalutionBaseData.obj
 0002:00075a70       ??0?$_Vector_const_iterator@V?$_Vector_val@NV?$allocator@N@std@@@std@@@std@@QAE@PANPBU_Container_base12@1@@Z 0071fa70 f i MakeEvalutionBaseData.obj
 0002:00075b10       ??9?$_Vector_const_iterator@V?$_Vector_val@NV?$allocator@N@std@@@std@@@std@@QBE_NABV01@@Z 0071fb10 f i MakeEvalutionBaseData.obj
 0002:00075b60       ?unshift@?$codecvt@DDH@std@@QBEHAAHPAD1AAPAD@Z 0071fb60 f i MakeEvalutionBaseData.obj
 0002:00075bc0       ?deallocate@?$allocator@U_Container_proxy@std@@@std@@QAEXPAU_Container_proxy@2@I@Z 0071fbc0 f i MakeEvalutionBaseData.obj
 0002:00075c00       ?allocate@?$allocator@U_Container_proxy@std@@@std@@QAEPAU_Container_proxy@2@I@Z 0071fc00 f i MakeEvalutionBaseData.obj
 0002:00075c40       ??D?$_Vector_iterator@V?$_Vector_val@NV?$allocator@N@std@@@std@@@std@@QBEAANXZ 0071fc40 f i MakeEvalutionBaseData.obj
 0002:00075c70       ??E?$_Vector_iterator@V?$_Vector_val@NV?$allocator@N@std@@@std@@@std@@QAEAAV01@XZ 0071fc70 f i MakeEvalutionBaseData.obj
 0002:00075ca0       ??H?$_Vector_iterator@V?$_Vector_val@NV?$allocator@N@std@@@std@@@std@@QBE?AV01@H@Z 0071fca0 f i MakeEvalutionBaseData.obj
 0002:00075db0       ??H?$_Vector_iterator@V?$_Vector_val@V?$complex@N@std@@V?$allocator@V?$complex@N@std@@@2@@std@@@std@@QBE?AV01@H@Z 0071fdb0 f i MakeEvalutionBaseData.obj
 0002:00075ec0       ??0?$_Iterator012@Urandom_access_iterator_tag@std@@NHPBNABNU_Iterator_base12@2@@std@@QAE@XZ 0071fec0 f i MakeEvalutionBaseData.obj
 0002:00075ef0       ??0_Iterator_base12@std@@QAE@XZ 0071fef0 f i MakeEvalutionBaseData.obj
 0002:00075f30       ??0?$_Vector_iterator@V?$_Vector_val@NV?$allocator@N@std@@@std@@@std@@QAE@ABV01@@Z 0071ff30 f i MakeEvalutionBaseData.obj
 0002:00075f70       ??0?$_Vector_iterator@V?$_Vector_val@V?$complex@N@std@@V?$allocator@V?$complex@N@std@@@2@@std@@@std@@QAE@ABV01@@Z 0071ff70 f i MakeEvalutionBaseData.obj
 0002:00075fb0       ?max_size@?$basic_string@DU?$char_traits@D@std@@V?$allocator@D@2@@std@@QBEIXZ 0071ffb0 f i MakeEvalutionBaseData.obj
 0002:00076020       ?_Copy@?$basic_string@DU?$char_traits@D@std@@V?$allocator@D@2@@std@@QAEXII@Z 00720020 f i MakeEvalutionBaseData.obj
 0002:00076230       ?widen@?$basic_ios@DU?$char_traits@D@std@@@std@@QBEDD@Z 00720230 f i MakeEvalutionBaseData.obj
 0002:00076300       ?widen@?$ctype@D@std@@QBEDD@Z 00720300 f i MakeEvalutionBaseData.obj
 0002:00076350       ?setp@?$basic_streambuf@DU?$char_traits@D@std@@@std@@IAEXPAD0@Z 00720350 f i MakeEvalutionBaseData.obj
 0002:000763a0       ?_Make_iter@?$vector@NV?$allocator@N@std@@@std@@QBE?AV?$_Vector_iterator@V?$_Vector_val@NV?$allocator@N@std@@@std@@@2@V?$_Vector_const_iterator@V?$_Vector_val@NV?$allocator@N@std@@@std@@@2@@Z 007203a0 f i MakeEvalutionBaseData.obj
 0002:00076450       ?max_size@?$allocator@N@std@@QBEIXZ 00720450 f i MakeEvalutionBaseData.obj
 0002:000764b0       ?reserve@?$vector@V?$complex@N@std@@V?$allocator@V?$complex@N@std@@@2@@std@@QAEXI@Z 007204b0 f i MakeEvalutionBaseData.obj
 0002:00076680       ?capacity@?$vector@V?$complex@N@std@@V?$allocator@V?$complex@N@std@@@2@@std@@QBEIXZ 00720680 f i MakeEvalutionBaseData.obj
 0002:000766b0       ?_Make_iter@?$vector@V?$complex@N@std@@V?$allocator@V?$complex@N@std@@@2@@std@@QBE?AV?$_Vector_iterator@V?$_Vector_val@V?$complex@N@std@@V?$allocator@V?$complex@N@std@@@2@@std@@@2@V?$_Vector_const_iterator@V?$_Vector_val@V?$complex@N@std@@V?$allocator@V?$complex@N@std@@@2@@std@@@2@@Z 007206b0 f i MakeEvalutionBaseData.obj
 0002:00076760       ?max_size@?$vector@V?$complex@N@std@@V?$allocator@V?$complex@N@std@@@2@@std@@QBEIXZ 00720760 f i MakeEvalutionBaseData.obj
 0002:00076790       ?_Grow_to@?$vector@V?$complex@N@std@@V?$allocator@V?$complex@N@std@@@2@@std@@IBEII@Z 00720790 f i MakeEvalutionBaseData.obj
 0002:00076830       ?_Xlen@?$vector@V?$complex@N@std@@V?$allocator@V?$complex@N@std@@@2@@std@@IBEXXZ 00720830 f i MakeEvalutionBaseData.obj
 0002:00076860       ?_Orphan_range@?$vector@V?$complex@N@std@@V?$allocator@V?$complex@N@std@@@2@@std@@IBEXPAV?$complex@N@2@0@Z 00720860 f i MakeEvalutionBaseData.obj
 0002:000769b0       ??0?$_String_const_iterator@DU?$char_traits@D@std@@V?$allocator@D@2@@std@@QAE@PBDPBU_Container_base12@1@@Z 007209b0 f i MakeEvalutionBaseData.obj
 0002:00076a50       ??D?$_Vector_const_iterator@V?$_Vector_val@NV?$allocator@N@std@@@std@@@std@@QBEABNXZ 00720a50 f i MakeEvalutionBaseData.obj
 0002:00076b40       ??E?$_Vector_const_iterator@V?$_Vector_val@NV?$allocator@N@std@@@std@@@std@@QAEAAV01@XZ 00720b40 f i MakeEvalutionBaseData.obj
 0002:00076c20       ??8?$_Vector_const_iterator@V?$_Vector_val@NV?$allocator@N@std@@@std@@@std@@QBE_NABV01@@Z 00720c20 f i MakeEvalutionBaseData.obj
 0002:00076c70       ??M?$_Vector_const_iterator@V?$_Vector_val@NV?$allocator@N@std@@@std@@@std@@QBE_NABV01@@Z 00720c70 f i MakeEvalutionBaseData.obj
 0002:00076cc0       ??0?$_Vector_iterator@V?$_Vector_val@NV?$allocator@N@std@@@std@@@std@@QAE@PANPBU_Container_base12@1@@Z 00720cc0 f i MakeEvalutionBaseData.obj
 0002:00076d00       ??Y?$_Vector_iterator@V?$_Vector_val@NV?$allocator@N@std@@@std@@@std@@QAEAAV01@H@Z 00720d00 f i MakeEvalutionBaseData.obj
 0002:00076d40       ??0?$_Vector_iterator@V?$_Vector_val@V?$complex@N@std@@V?$allocator@V?$complex@N@std@@@2@@std@@@std@@QAE@PAV?$complex@N@1@PBU_Container_base12@1@@Z 00720d40 f i MakeEvalutionBaseData.obj
 0002:00076d80       ??Y?$_Vector_iterator@V?$_Vector_val@V?$complex@N@std@@V?$allocator@V?$complex@N@std@@@2@@std@@@std@@QAEAAV01@H@Z 00720d80 f i MakeEvalutionBaseData.obj
 0002:00076dc0       ??9?$_Vector_const_iterator@V?$_Vector_val@V?$complex@N@std@@V?$allocator@V?$complex@N@std@@@2@@std@@@std@@QBE_NABV01@@Z 00720dc0 f i MakeEvalutionBaseData.obj
 0002:00076e10       ??M?$_Vector_const_iterator@V?$_Vector_val@V?$complex@N@std@@V?$allocator@V?$complex@N@std@@@2@@std@@@std@@QBE_NABV01@@Z 00720e10 f i MakeEvalutionBaseData.obj
 0002:00076e60       ??0?$_Iterator012@Urandom_access_iterator_tag@std@@DHPBDABDU_Iterator_base12@2@@std@@QAE@XZ 00720e60 f i MakeEvalutionBaseData.obj
 0002:00076e90       ?allocate@?$allocator@D@std@@QAEPADI@Z 00720e90 f i MakeEvalutionBaseData.obj
 0002:00076ed0       ?max_size@?$allocator@D@std@@QBEIXZ 00720ed0 f i MakeEvalutionBaseData.obj
 0002:00076f30       ?allocate@?$allocator@V?$complex@N@std@@@std@@QAEPAV?$complex@N@2@I@Z 00720f30 f i MakeEvalutionBaseData.obj
 0002:00076f70       ?max_size@?$allocator@V?$complex@N@std@@@std@@QBEIXZ 00720f70 f i MakeEvalutionBaseData.obj
 0002:00076fd0       ??Y?$_Vector_const_iterator@V?$_Vector_val@NV?$allocator@N@std@@@std@@@std@@QAEAAV01@H@Z 00720fd0 f i MakeEvalutionBaseData.obj
 0002:000770e0       ?_Compat@?$_Vector_const_iterator@V?$_Vector_val@NV?$allocator@N@std@@@std@@@std@@QBEXABV12@@Z 007210e0 f i MakeEvalutionBaseData.obj
 0002:000771b0       ??0?$_Vector_const_iterator@V?$_Vector_val@V?$complex@N@std@@V?$allocator@V?$complex@N@std@@@2@@std@@@std@@QAE@PAV?$complex@N@1@PBU_Container_base12@1@@Z 007211b0 f i MakeEvalutionBaseData.obj
 0002:00077250       ??Y?$_Vector_const_iterator@V?$_Vector_val@V?$complex@N@std@@V?$allocator@V?$complex@N@std@@@2@@std@@@std@@QAEAAV01@H@Z 00721250 f i MakeEvalutionBaseData.obj
 0002:00077360       ??8?$_Vector_const_iterator@V?$_Vector_val@V?$complex@N@std@@V?$allocator@V?$complex@N@std@@@2@@std@@@std@@QBE_NABV01@@Z 00721360 f i MakeEvalutionBaseData.obj
 0002:000773b0       ?_Compat@?$_Vector_const_iterator@V?$_Vector_val@V?$complex@N@std@@V?$allocator@V?$complex@N@std@@@2@@std@@@std@@QBEXABV12@@Z 007213b0 f i MakeEvalutionBaseData.obj
 0002:00077480       ??0?$_Iterator012@Urandom_access_iterator_tag@std@@V?$complex@N@2@HPBV32@ABV32@U_Iterator_base12@2@@std@@QAE@XZ 00721480 f i MakeEvalutionBaseData.obj
 0002:000774b0       ??$_DebugHeapDelete@Vfacet@locale@std@@@std@@YAXPAVfacet@locale@0@@Z 007214b0 f i MakeEvalutionBaseData.obj
 0002:00077500       ??$use_facet@V?$ctype@D@std@@@std@@YAABV?$ctype@D@0@ABVlocale@0@@Z 00721500 f i MakeEvalutionBaseData.obj
 0002:000776a0       ??Bid@locale@std@@QAEIXZ   007216a0 f i MakeEvalutionBaseData.obj
 0002:00077760       ?_Register@facet@locale@std@@QAEXXZ 00721760 f i MakeEvalutionBaseData.obj
 0002:000777a0       ?_Getfacet@locale@std@@QBEPBVfacet@12@I@Z 007217a0 f i MakeEvalutionBaseData.obj
 0002:00077870       ?_Getcat@?$ctype@D@std@@SAIPAPBVfacet@locale@2@PBV42@@Z 00721870 f i MakeEvalutionBaseData.obj
 0002:000779d0       ??0_Locinfo@std@@QAE@PBD@Z 007219d0 f i MakeEvalutionBaseData.obj
 0002:00077af0       ??1_Locinfo@std@@QAE@XZ    00721af0 f i MakeEvalutionBaseData.obj
 0002:00077bc0       ??2facet@locale@std@@SAPAXIABU_DebugHeapTag_t@2@PADH@Z 00721bc0 f i MakeEvalutionBaseData.obj
 0002:00077bf0       ??3facet@locale@std@@SAXPAXABU_DebugHeapTag_t@2@PADH@Z 00721bf0 f i MakeEvalutionBaseData.obj
 0002:00077c10       ??3facet@locale@std@@SAXPAX@Z 00721c10 f i MakeEvalutionBaseData.obj
 0002:00077c30       ?c_str@locale@std@@QBEPBDXZ 00721c30 f i MakeEvalutionBaseData.obj
 0002:00077c70       ??0?$ctype@D@std@@QAE@ABV_Locinfo@1@I@Z 00721c70 f i MakeEvalutionBaseData.obj
 0002:00077d10       ??0ctype_base@std@@QAE@I@Z 00721d10 f i MakeEvalutionBaseData.obj
 0002:00077d60       ??0facet@locale@std@@IAE@I@Z 00721d60 f i MakeEvalutionBaseData.obj
 0002:00077da0       ??_Gfacet@locale@std@@UAEPAXI@Z 00721da0 f i MakeEvalutionBaseData.obj
 0002:00077da0       ??_Efacet@locale@std@@UAEPAXI@Z 00721da0 f i MakeEvalutionBaseData.obj
 0002:00077df0       ??1facet@locale@std@@UAE@XZ 00721df0 f i MakeEvalutionBaseData.obj
 0002:00077e20       ??1ctype_base@std@@UAE@XZ  00721e20 f i MakeEvalutionBaseData.obj
 0002:00077e60       ??_Gctype_base@std@@UAEPAXI@Z 00721e60 f i MakeEvalutionBaseData.obj
 0002:00077e60       ??_Ectype_base@std@@UAEPAXI@Z 00721e60 f i MakeEvalutionBaseData.obj
 0002:00077eb0       ?_Init@?$ctype@D@std@@IAEXABV_Locinfo@2@@Z 00721eb0 f i MakeEvalutionBaseData.obj
 0002:00077f20       ?_Getctype@_Locinfo@std@@QBE?AU_Ctypevec@@XZ 00721f20 f i MakeEvalutionBaseData.obj
 0002:00077fc0       ?do_tolower@?$ctype@D@std@@MBEDD@Z 00721fc0 f i MakeEvalutionBaseData.obj
 0002:00078000       ?do_tolower@?$ctype@D@std@@MBEPBDPADPBD@Z 00722000 f i MakeEvalutionBaseData.obj
 0002:00078090       ?do_toupper@?$ctype@D@std@@MBEDD@Z 00722090 f i MakeEvalutionBaseData.obj
 0002:000780d0       ?do_toupper@?$ctype@D@std@@MBEPBDPADPBD@Z 007220d0 f i MakeEvalutionBaseData.obj
 0002:00078160       ?do_widen@?$ctype@D@std@@MBEDD@Z 00722160 f i MakeEvalutionBaseData.obj
 0002:00078180       ?do_widen@?$ctype@D@std@@MBEPBDPBD0PAD@Z 00722180 f i MakeEvalutionBaseData.obj
 0002:00078210       ?do_narrow@?$ctype@D@std@@MBEDDD@Z 00722210 f i MakeEvalutionBaseData.obj
 0002:00078230       ?do_narrow@?$ctype@D@std@@MBEPBDPBD0DPAD@Z 00722230 f i MakeEvalutionBaseData.obj
 0002:000782c0       ??_G?$ctype@D@std@@MAEPAXI@Z 007222c0 f i MakeEvalutionBaseData.obj
 0002:000782c0       ??_E?$ctype@D@std@@MAEPAXI@Z 007222c0 f i MakeEvalutionBaseData.obj
 0002:00078310       ??1?$ctype@D@std@@MAE@XZ   00722310 f i MakeEvalutionBaseData.obj
 0002:000783a0       ?_Tidy@?$ctype@D@std@@IAEXXZ 007223a0 f i MakeEvalutionBaseData.obj
 0002:00078420       ??0?$_Yarn@D@std@@QAE@XZ   00722420 f i MakeEvalutionBaseData.obj
 0002:00078450       ??1?$_Yarn@D@std@@QAE@XZ   00722450 f i MakeEvalutionBaseData.obj
 0002:00078480       ?c_str@?$_Yarn@D@std@@QBEPBDXZ 00722480 f i MakeEvalutionBaseData.obj
 0002:000784d0       ?_Tidy@?$_Yarn@D@std@@AAEXXZ 007224d0 f i MakeEvalutionBaseData.obj
 0002:00078520       ??$_Debug_range@PBD@std@@YAXPBD0PB_WI@Z 00722520 f i MakeEvalutionBaseData.obj
 0002:00078580       ??$_Debug_pointer@D@std@@YAXPADPB_WI@Z 00722580 f i MakeEvalutionBaseData.obj
 0002:000785b0       ??$sqrt@N@std@@YA?AV?$complex@N@0@ABV10@@Z 007225b0 f i MakeEvalutionBaseData.obj
 0002:00078820       ?ldexp@?$_Ctraits@N@std@@SANNH@Z 00722820 f i MakeEvalutionBaseData.obj
 0002:00078850       ?sqrt@?$_Ctraits@N@std@@SANN@Z 00722850 f i MakeEvalutionBaseData.obj
 0002:00078880       ??$?GN@std@@YA?AV?$complex@N@0@ABV10@@Z 00722880 f i MakeEvalutionBaseData.obj
 0002:000788f0       ?real@?$_Complex_base@NU_C_double_complex@@@std@@QBENXZ 007228f0 f i MakeEvalutionBaseData.obj
 0002:00078910       ?imag@?$_Complex_base@NU_C_double_complex@@@std@@QBENXZ 00722910 f i MakeEvalutionBaseData.obj
 0002:00078930       ??$?DN@std@@YA?AV?$complex@N@0@ABV10@ABN@Z 00722930 f i MakeEvalutionBaseData.obj
 0002:00078a40       ??$exp@N@std@@YA?AV?$complex@N@0@ABV10@@Z 00722a40 f i MakeEvalutionBaseData.obj
 0002:00078b70       ?_Exp@?$_Ctraits@N@std@@SAFPANNF@Z 00722b70 f i MakeEvalutionBaseData.obj
 0002:00078ba0       ?cos@?$_Ctraits@N@std@@SANN@Z 00722ba0 f i MakeEvalutionBaseData.obj
 0002:00078bd0       ?sin@?$_Ctraits@N@std@@SANN@Z 00722bd0 f i MakeEvalutionBaseData.obj
 0002:00078c00       ??$real@N@std@@YANABV?$complex@N@0@@Z 00722c00 f i MakeEvalutionBaseData.obj
 0002:00078c20       ??$_Debug_pointer@$$A6AAAV?$basic_ostream@DU?$char_traits@D@std@@@std@@AAV12@@Z@std@@YAXP6AAAV?$basic_ostream@DU?$char_traits@D@std@@@0@AAV10@@ZPB_WI@Z 00722c20 f i MakeEvalutionBaseData.obj
 0002:00078c50       ??$use_facet@V?$num_put@DV?$ostreambuf_iterator@DU?$char_traits@D@std@@@std@@@std@@@std@@YAABV?$num_put@DV?$ostreambuf_iterator@DU?$char_traits@D@std@@@std@@@0@ABVlocale@0@@Z 00722c50 f i MakeEvalutionBaseData.obj
 0002:00078df0       ??$_DebugHeapDelete@Vlocale@std@@@std@@YAXPAVlocale@0@@Z 00722df0 f i MakeEvalutionBaseData.obj
 0002:00078e30       ??$_Ucopy@V?$_Vector_const_iterator@V?$_Vector_val@NV?$allocator@N@std@@@std@@@std@@@?$vector@NV?$allocator@N@std@@@std@@IAEPANV?$_Vector_const_iterator@V?$_Vector_val@NV?$allocator@N@std@@@std@@@1@0PAN@Z 00722e30 f i MakeEvalutionBaseData.obj
 0002:00078f40       ??$forward@V?$vector@NV?$allocator@N@std@@@std@@@std@@YA$$QAV?$vector@NV?$allocator@N@std@@@0@AAV10@@Z 00722f40 f i MakeEvalutionBaseData.obj
 0002:00078f50       ??$addressof@$$CBN@std@@YAPBNABN@Z 00722f50 f i MakeEvalutionBaseData.obj
 0002:00078f60       ??$_Cons_val@V?$allocator@N@std@@NAAN@std@@YAXAAV?$allocator@N@0@PANAAN@Z 00722f60 f i MakeEvalutionBaseData.obj
 0002:00078f90       ??$_Cons_val@V?$allocator@N@std@@NABN@std@@YAXAAV?$allocator@N@0@PANABN@Z 00722f90 f i MakeEvalutionBaseData.obj
 0002:00078fc0       ??$_Dest_val@V?$allocator@N@std@@N@std@@YAXAAV?$allocator@N@0@PAN@Z 00722fc0 f i MakeEvalutionBaseData.obj
 0002:00078fe0       ??$use_facet@V?$codecvt@DDH@std@@@std@@YAABV?$codecvt@DDH@0@ABVlocale@0@@Z 00722fe0 f i MakeEvalutionBaseData.obj
 0002:00079180       ??$?0D@?$allocator@U_Container_proxy@std@@@std@@QAE@ABV?$allocator@D@1@@Z 00723180 f i MakeEvalutionBaseData.obj
 0002:000791a0       ??$_Cons_val@V?$allocator@U_Container_proxy@std@@@std@@U_Container_proxy@2@U32@@std@@YAXAAV?$allocator@U_Container_proxy@std@@@0@PAU_Container_proxy@0@$$QAU20@@Z 007231a0 f i MakeEvalutionBaseData.obj
 0002:000791d0       ??$_Dest_val@V?$allocator@U_Container_proxy@std@@@std@@U_Container_proxy@2@@std@@YAXAAV?$allocator@U_Container_proxy@std@@@0@PAU_Container_proxy@0@@Z 007231d0 f i MakeEvalutionBaseData.obj
 0002:000791f0       ??$?9NN@std@@YA_NABV?$allocator@N@0@0@Z 007231f0 f i MakeEvalutionBaseData.obj
 0002:00079220       ??$forward@N@std@@YA$$QANAAN@Z 00723220 f i MakeEvalutionBaseData.obj
 0002:00079230       ??$_Uninitialized_default_fill_n@PANINV?$allocator@N@std@@@std@@YAXPANIPBNAAV?$allocator@N@0@@Z 00723230 f i MakeEvalutionBaseData.obj
 0002:000792a0       ??$?0N@?$allocator@U_Container_proxy@std@@@std@@QAE@ABV?$allocator@N@1@@Z 007232a0 f i MakeEvalutionBaseData.obj
 0002:000792c0       ??$_Uninitialized_default_fill_n@PAV?$complex@N@std@@IV12@V?$allocator@V?$complex@N@std@@@2@@std@@YAXPAV?$complex@N@0@IPBV10@AAV?$allocator@V?$complex@N@std@@@0@@Z 007232c0 f i MakeEvalutionBaseData.obj
 0002:00079330       ??$?0V?$complex@N@std@@@?$allocator@U_Container_proxy@std@@@std@@QAE@ABV?$allocator@V?$complex@N@std@@@1@@Z 00723330 f i MakeEvalutionBaseData.obj
 0002:00079350       ??$addressof@N@std@@YAPANAAN@Z 00723350 f i MakeEvalutionBaseData.obj
 0002:00079360       ??$_Cons_val@V?$allocator@N@std@@NN@std@@YAXAAV?$allocator@N@0@PAN$$QAN@Z 00723360 f i MakeEvalutionBaseData.obj
 0002:00079390       ??$_Umove@PAN@?$vector@NV?$allocator@N@std@@@std@@IAEPANPAN00@Z 00723390 f i MakeEvalutionBaseData.obj
 0002:000793e0       ??$_Move@PANPAN@std@@YAPANPAN00@Z 007233e0 f i MakeEvalutionBaseData.obj
 0002:00079440       ??$_Destroy_range@V?$allocator@N@std@@@std@@YAXPAN0AAV?$allocator@N@0@@Z 00723440 f i MakeEvalutionBaseData.obj
 0002:000794a0       ??$_Allocate@N@std@@YAPANIPAN@Z 007234a0 f i MakeEvalutionBaseData.obj
 0002:00079540       ??0bad_alloc@std@@QAE@PBD@Z 00723540 f i MakeEvalutionBaseData.obj
 0002:00079590       ??1bad_alloc@std@@UAE@XZ   00723590 f i MakeEvalutionBaseData.obj
 0002:000795d0       ??_Ebad_alloc@std@@UAEPAXI@Z 007235d0 f i MakeEvalutionBaseData.obj
 0002:000795d0       ??_Gbad_alloc@std@@UAEPAXI@Z 007235d0 f i MakeEvalutionBaseData.obj
 0002:00079620       ??$_Move@PAV?$complex@N@std@@PAV12@@std@@YAPAV?$complex@N@0@PAV10@00@Z 00723620 f i MakeEvalutionBaseData.obj
 0002:00079680       ??$_Destroy_range@V?$allocator@V?$complex@N@std@@@std@@@std@@YAXPAV?$complex@N@0@0AAV?$allocator@V?$complex@N@std@@@0@@Z 00723680 f i MakeEvalutionBaseData.obj
 0002:000796e0       ??$_Allocate@U_Container_proxy@std@@@std@@YAPAU_Container_proxy@0@IPAU10@@Z 007236e0 f i MakeEvalutionBaseData.obj
 0002:00079780       ??$_Umove@PAV?$complex@N@std@@@?$vector@V?$complex@N@std@@V?$allocator@V?$complex@N@std@@@2@@std@@IAEPAV?$complex@N@1@PAV21@00@Z 00723780 f i MakeEvalutionBaseData.obj
 0002:000797d0       ??$_Allocate@D@std@@YAPADIPAD@Z 007237d0 f i MakeEvalutionBaseData.obj
 0002:00079860       ??$_Allocate@V?$complex@N@std@@@std@@YAPAV?$complex@N@0@IPAV10@@Z 00723860 f i MakeEvalutionBaseData.obj
 0002:00079900       ??_Glocale@std@@QAEPAXI@Z  00723900 f i MakeEvalutionBaseData.obj
 0002:00079950       ??0bad_alloc@std@@QAE@ABV01@@Z 00723950 f i MakeEvalutionBaseData.obj
 0002:000799a0       ?real@?$_Complex_base@NU_C_double_complex@@@std@@QAENABN@Z 007239a0 f i MakeEvalutionBaseData.obj
 0002:000799d0       ?imag@?$_Complex_base@NU_C_double_complex@@@std@@QAENABN@Z 007239d0 f i MakeEvalutionBaseData.obj
 0002:00079a00       ?construct@?$allocator@N@std@@QAEXPANABN@Z 00723a00 f i MakeEvalutionBaseData.obj
 0002:00079a40       ?construct@?$allocator@N@std@@QAEXPAN$$QAN@Z 00723a40 f i MakeEvalutionBaseData.obj
 0002:00079b10       ??2@YAPAXIPAX@Z            00723b10 f i MakeEvalutionBaseData.obj
 0002:00079b20       ??3@YAXPAX0@Z              00723b20 f i MakeEvalutionBaseData.obj
 0002:00079b30       ?destroy@?$allocator@N@std@@QAEXPAN@Z 00723b30 f i MakeEvalutionBaseData.obj
 0002:00079b70       ?_Getcat@?$num_put@DV?$ostreambuf_iterator@DU?$char_traits@D@std@@@std@@@std@@SAIPAPBVfacet@locale@2@PBV42@@Z 00723b70 f i MakeEvalutionBaseData.obj
 0002:00079cd0       ?_Getcat@?$codecvt@DDH@std@@SAIPAPBVfacet@locale@2@PBV42@@Z 00723cd0 f i MakeEvalutionBaseData.obj
 0002:00079e30       ?construct@?$allocator@U_Container_proxy@std@@@std@@QAEXPAU_Container_proxy@2@$$QAU32@@Z 00723e30 f i MakeEvalutionBaseData.obj
 0002:00079f00       ?destroy@?$allocator@U_Container_proxy@std@@@std@@QAEXPAU_Container_proxy@2@@Z 00723f00 f i MakeEvalutionBaseData.obj
 0002:00079f40       ??0?$num_put@DV?$ostreambuf_iterator@DU?$char_traits@D@std@@@std@@@std@@QAE@ABV_Locinfo@1@I@Z 00723f40 f i MakeEvalutionBaseData.obj
 0002:00079fe0       ?do_put@?$num_put@DV?$ostreambuf_iterator@DU?$char_traits@D@std@@@std@@@std@@MBE?AV?$ostreambuf_iterator@DU?$char_traits@D@std@@@2@V32@AAVios_base@2@D_N@Z 00723fe0 f i MakeEvalutionBaseData.obj
 0002:0007a3c0       ?width@ios_base@std@@QBE_JXZ 007243c0 f i MakeEvalutionBaseData.obj
 0002:0007a3f0       ?width@ios_base@std@@QAE_J_J@Z 007243f0 f i MakeEvalutionBaseData.obj
 0002:0007a450       ?c_str@?$basic_string@DU?$char_traits@D@std@@V?$allocator@D@2@@std@@QBEPBDXZ 00724450 f i MakeEvalutionBaseData.obj
 0002:0007a480       ?assign@?$basic_string@DU?$char_traits@D@std@@V?$allocator@D@2@@std@@QAEAAV12@$$QAV12@@Z 00724480 f i MakeEvalutionBaseData.obj
 0002:0007a5b0       ?_Myptr@?$basic_string@DU?$char_traits@D@std@@V?$allocator@D@2@@std@@QBEPBDXZ 007245b0 f i MakeEvalutionBaseData.obj
 0002:0007a600       ?do_put@?$num_put@DV?$ostreambuf_iterator@DU?$char_traits@D@std@@@std@@@std@@MBE?AV?$ostreambuf_iterator@DU?$char_traits@D@std@@@2@V32@AAVios_base@2@DJ@Z 00724600 f i MakeEvalutionBaseData.obj
 0002:0007a710       ?do_put@?$num_put@DV?$ostreambuf_iterator@DU?$char_traits@D@std@@@std@@@std@@MBE?AV?$ostreambuf_iterator@DU?$char_traits@D@std@@@2@V32@AAVios_base@2@DK@Z 00724710 f i MakeEvalutionBaseData.obj
 0002:0007a820       ?do_put@?$num_put@DV?$ostreambuf_iterator@DU?$char_traits@D@std@@@std@@@std@@MBE?AV?$ostreambuf_iterator@DU?$char_traits@D@std@@@2@V32@AAVios_base@2@D_J@Z 00724820 f i MakeEvalutionBaseData.obj
 0002:0007a930       ?do_put@?$num_put@DV?$ostreambuf_iterator@DU?$char_traits@D@std@@@std@@@std@@MBE?AV?$ostreambuf_iterator@DU?$char_traits@D@std@@@2@V32@AAVios_base@2@D_K@Z 00724930 f i MakeEvalutionBaseData.obj
 0002:0007aa40       ?do_put@?$num_put@DV?$ostreambuf_iterator@DU?$char_traits@D@std@@@std@@@std@@MBE?AV?$ostreambuf_iterator@DU?$char_traits@D@std@@@2@V32@AAVios_base@2@DN@Z 00724a40 f i MakeEvalutionBaseData.obj
 0002:0007ae30       ?precision@ios_base@std@@QBE_JXZ 00724e30 f i MakeEvalutionBaseData.obj
 0002:0007ae60       ?do_put@?$num_put@DV?$ostreambuf_iterator@DU?$char_traits@D@std@@@std@@@std@@MBE?AV?$ostreambuf_iterator@DU?$char_traits@D@std@@@2@V32@AAVios_base@2@DO@Z 00724e60 f i MakeEvalutionBaseData.obj
 0002:0007b240       ?do_put@?$num_put@DV?$ostreambuf_iterator@DU?$char_traits@D@std@@@std@@@std@@MBE?AV?$ostreambuf_iterator@DU?$char_traits@D@std@@@2@V32@AAVios_base@2@DPBX@Z 00725240 f i MakeEvalutionBaseData.obj
 0002:0007b320       ??_E?$num_put@DV?$ostreambuf_iterator@DU?$char_traits@D@std@@@std@@@std@@MAEPAXI@Z 00725320 f i MakeEvalutionBaseData.obj
 0002:0007b320       ??_G?$num_put@DV?$ostreambuf_iterator@DU?$char_traits@D@std@@@std@@@std@@MAEPAXI@Z 00725320 f i MakeEvalutionBaseData.obj
 0002:0007b370       ??1?$num_put@DV?$ostreambuf_iterator@DU?$char_traits@D@std@@@std@@@std@@MAE@XZ 00725370 f i MakeEvalutionBaseData.obj
 0002:0007b3b0       ??4?$basic_string@DU?$char_traits@D@std@@V?$allocator@D@2@@std@@QAEAAV01@ABV01@@Z 007253b0 f i MakeEvalutionBaseData.obj
 0002:0007b3f0       ?get_allocator@?$basic_string@DU?$char_traits@D@std@@V?$allocator@D@2@@std@@QBE?AV?$allocator@D@2@XZ 007253f0 f i MakeEvalutionBaseData.obj
 0002:0007b430       ?_Ffmt@?$num_put@DV?$ostreambuf_iterator@DU?$char_traits@D@std@@@std@@@std@@ABAPADPADDH@Z 00725430 f i MakeEvalutionBaseData.obj
 0002:0007b570       ?_Fput@?$num_put@DV?$ostreambuf_iterator@DU?$char_traits@D@std@@@std@@@std@@ABA?AV?$ostreambuf_iterator@DU?$char_traits@D@std@@@2@V32@AAVios_base@2@DPBDIIII@Z 00725570 f i MakeEvalutionBaseData.obj
 0002:0007bf40       ?insert@?$basic_string@DU?$char_traits@D@std@@V?$allocator@D@2@@std@@QAEAAV12@IID@Z 00725f40 f i MakeEvalutionBaseData.obj
 0002:0007c040       ?_Ifmt@?$num_put@DV?$ostreambuf_iterator@DU?$char_traits@D@std@@@std@@@std@@ABAPADPADPBDH@Z 00726040 f i MakeEvalutionBaseData.obj
 0002:0007c1a0       ?_Iput@?$num_put@DV?$ostreambuf_iterator@DU?$char_traits@D@std@@@std@@@std@@ABA?AV?$ostreambuf_iterator@DU?$char_traits@D@std@@@2@V32@AAVios_base@2@DPADI@Z 007261a0 f i MakeEvalutionBaseData.obj
 0002:0007c660       ?_Put@?$num_put@DV?$ostreambuf_iterator@DU?$char_traits@D@std@@@std@@@std@@ABA?AV?$ostreambuf_iterator@DU?$char_traits@D@std@@@2@V32@PBDI@Z 00726660 f i MakeEvalutionBaseData.obj
 0002:0007c6d0       ?_Rep@?$num_put@DV?$ostreambuf_iterator@DU?$char_traits@D@std@@@std@@@std@@ABA?AV?$ostreambuf_iterator@DU?$char_traits@D@std@@@2@V32@DI@Z 007266d0 f i MakeEvalutionBaseData.obj
 0002:0007c730       ?falsename@?$numpunct@D@std@@QBE?AV?$basic_string@DU?$char_traits@D@std@@V?$allocator@D@2@@2@XZ 00726730 f i MakeEvalutionBaseData.obj
 0002:0007c7a0       ?truename@?$numpunct@D@std@@QBE?AV?$basic_string@DU?$char_traits@D@std@@V?$allocator@D@2@@2@XZ 007267a0 f i MakeEvalutionBaseData.obj
 0002:0007c810       ?append@?$basic_string@DU?$char_traits@D@std@@V?$allocator@D@2@@std@@QAEAAV12@PBDI@Z 00726810 f i MakeEvalutionBaseData.obj
 0002:0007c930       ?assign@?$basic_string@DU?$char_traits@D@std@@V?$allocator@D@2@@std@@QAEAAV12@ABV12@@Z 00726930 f i MakeEvalutionBaseData.obj
 0002:0007c970       ?assign@?$basic_string@DU?$char_traits@D@std@@V?$allocator@D@2@@std@@QAEAAV12@ABV12@II@Z 00726970 f i MakeEvalutionBaseData.obj
 0002:0007ca70       ??A?$basic_string@DU?$char_traits@D@std@@V?$allocator@D@2@@std@@QAEAADI@Z 00726a70 f i MakeEvalutionBaseData.obj
 0002:0007cad0       ?_Inside@?$basic_string@DU?$char_traits@D@std@@V?$allocator@D@2@@std@@QAE_NPBD@Z 00726ad0 f i MakeEvalutionBaseData.obj
 0002:0007cb30       ?_Putc@?$num_put@DV?$ostreambuf_iterator@DU?$char_traits@D@std@@@std@@@std@@ABA?AV?$ostreambuf_iterator@DU?$char_traits@D@std@@@2@V32@PBDI@Z 00726b30 f i MakeEvalutionBaseData.obj
 0002:0007cbc0       ?_Putgrouped@?$num_put@DV?$ostreambuf_iterator@DU?$char_traits@D@std@@@std@@@std@@ABA?AV?$ostreambuf_iterator@DU?$char_traits@D@std@@@2@V32@PBDID@Z 00726bc0 f i MakeEvalutionBaseData.obj
 0002:0007cd00       ??4?$ostreambuf_iterator@DU?$char_traits@D@std@@@std@@QAEAAV01@D@Z 00726d00 f i MakeEvalutionBaseData.obj
 0002:0007cd90       ??D?$ostreambuf_iterator@DU?$char_traits@D@std@@@std@@QAEAAV01@XZ 00726d90 f i MakeEvalutionBaseData.obj
 0002:0007cdb0       ??E?$ostreambuf_iterator@DU?$char_traits@D@std@@@std@@QAEAAV01@XZ 00726db0 f i MakeEvalutionBaseData.obj
 0002:0007cdd0       ?decimal_point@?$numpunct@D@std@@QBEDXZ 00726dd0 f i MakeEvalutionBaseData.obj
 0002:0007ce20       ?thousands_sep@?$numpunct@D@std@@QBEDXZ 00726e20 f i MakeEvalutionBaseData.obj
 0002:0007ce70       ?grouping@?$numpunct@D@std@@QBE?AV?$basic_string@DU?$char_traits@D@std@@V?$allocator@D@2@@2@XZ 00726e70 f i MakeEvalutionBaseData.obj
 0002:0007cee0       ?append@?$basic_string@DU?$char_traits@D@std@@V?$allocator@D@2@@std@@QAEAAV12@ABV12@II@Z 00726ee0 f i MakeEvalutionBaseData.obj
 0002:0007cfe0       ??$_Debug_pointer@D@std@@YAXPBDPB_WI@Z 00726fe0 f i MakeEvalutionBaseData.obj
 0002:0007d010       ??$?9DD@std@@YA_NABV?$allocator@D@0@0@Z 00727010 f i MakeEvalutionBaseData.obj
 0002:0007d040       ??$_Debug_pointer@V?$ostreambuf_iterator@DU?$char_traits@D@std@@@std@@@std@@YAXAAV?$ostreambuf_iterator@DU?$char_traits@D@std@@@0@PB_WI@Z 00727040 f i MakeEvalutionBaseData.obj
 0002:0007d050       ??$use_facet@V?$numpunct@D@std@@@std@@YAABV?$numpunct@D@0@ABVlocale@0@@Z 00727050 f i MakeEvalutionBaseData.obj
 0002:0007d1f0       ??$_Maklocchr@D@std@@YADDPADABU_Cvtvec@@@Z 007271f0 f i MakeEvalutionBaseData.obj
 0002:0007d200       ?_Getcat@?$numpunct@D@std@@SAIPAPBVfacet@locale@2@PBV42@@Z 00727200 f i MakeEvalutionBaseData.obj
 0002:0007d360       ??0?$codecvt@DDH@std@@QAE@ABV_Locinfo@1@I@Z 00727360 f i MakeEvalutionBaseData.obj
 0002:0007d400       ??0codecvt_base@std@@QAE@I@Z 00727400 f i MakeEvalutionBaseData.obj
 0002:0007d450       ??1codecvt_base@std@@UAE@XZ 00727450 f i MakeEvalutionBaseData.obj
 0002:0007d490       ?do_always_noconv@codecvt_base@std@@MBE_NXZ 00727490 f i MakeEvalutionBaseData.obj
 0002:0007d4b0       ?do_max_length@codecvt_base@std@@MBEHXZ 007274b0 f i MakeEvalutionBaseData.obj
 0002:0007d4d0       ?do_encoding@codecvt_base@std@@MBEHXZ 007274d0 f i MakeEvalutionBaseData.obj
 0002:0007d4f0       ??_Ecodecvt_base@std@@UAEPAXI@Z 007274f0 f i MakeEvalutionBaseData.obj
 0002:0007d4f0       ??_Gcodecvt_base@std@@UAEPAXI@Z 007274f0 f i MakeEvalutionBaseData.obj
 0002:0007d540       ?do_in@?$codecvt@DDH@std@@MBEHAAHPBD1AAPBDPAD3AAPAD@Z 00727540 f i MakeEvalutionBaseData.obj
 0002:0007d580       ?do_out@?$codecvt@DDH@std@@MBEHAAHPBD1AAPBDPAD3AAPAD@Z 00727580 f i MakeEvalutionBaseData.obj
 0002:0007d5c0       ?do_unshift@?$codecvt@DDH@std@@MBEHAAHPAD1AAPAD@Z 007275c0 f i MakeEvalutionBaseData.obj
 0002:0007d5f0       ?do_length@?$codecvt@DDH@std@@MBEHABHPBD1I@Z 007275f0 f i MakeEvalutionBaseData.obj
 0002:0007d640       ??_E?$codecvt@DDH@std@@MAEPAXI@Z 00727640 f i MakeEvalutionBaseData.obj
 0002:0007d640       ??_G?$codecvt@DDH@std@@MAEPAXI@Z 00727640 f i MakeEvalutionBaseData.obj
 0002:0007d690       ??1?$codecvt@DDH@std@@MAE@XZ 00727690 f i MakeEvalutionBaseData.obj
 0002:0007d6d0       ??0?$numpunct@D@std@@QAE@ABV_Locinfo@1@I_N@Z 007276d0 f i MakeEvalutionBaseData.obj
 0002:0007d770       ?do_decimal_point@?$numpunct@D@std@@MBEDXZ 00727770 f i MakeEvalutionBaseData.obj
 0002:0007d790       ?do_thousands_sep@?$numpunct@D@std@@MBEDXZ 00727790 f i MakeEvalutionBaseData.obj
 0002:0007d7b0       ?do_grouping@?$numpunct@D@std@@MBE?AV?$basic_string@DU?$char_traits@D@std@@V?$allocator@D@2@@2@XZ 007277b0 f i MakeEvalutionBaseData.obj
 0002:0007d810       ??0?$basic_string@DU?$char_traits@D@std@@V?$allocator@D@2@@std@@QAE@PBD@Z 00727810 f i MakeEvalutionBaseData.obj
 0002:0007d8c0       ?assign@?$basic_string@DU?$char_traits@D@std@@V?$allocator@D@2@@std@@QAEAAV12@PBD@Z 007278c0 f i MakeEvalutionBaseData.obj
 0002:0007d920       ?length@?$char_traits@D@std@@SAIPBD@Z 00727920 f i MakeEvalutionBaseData.obj
 0002:0007d940       ?assign@?$basic_string@DU?$char_traits@D@std@@V?$allocator@D@2@@std@@QAEAAV12@PBDI@Z 00727940 f i MakeEvalutionBaseData.obj
 0002:0007da20       ?do_falsename@?$numpunct@D@std@@MBE?AV?$basic_string@DU?$char_traits@D@std@@V?$allocator@D@2@@2@XZ 00727a20 f i MakeEvalutionBaseData.obj
 0002:0007da80       ?do_truename@?$numpunct@D@std@@MBE?AV?$basic_string@DU?$char_traits@D@std@@V?$allocator@D@2@@2@XZ 00727a80 f i MakeEvalutionBaseData.obj
 0002:0007dae0       ??_E?$numpunct@D@std@@MAEPAXI@Z 00727ae0 f i MakeEvalutionBaseData.obj
 0002:0007dae0       ??_G?$numpunct@D@std@@MAEPAXI@Z 00727ae0 f i MakeEvalutionBaseData.obj
 0002:0007db30       ??1?$numpunct@D@std@@MAE@XZ 00727b30 f i MakeEvalutionBaseData.obj
 0002:0007dbc0       ?_Tidy@?$numpunct@D@std@@AAEXXZ 00727bc0 f i MakeEvalutionBaseData.obj
 0002:0007dc20       ??$_DebugHeapDelete@X@std@@YAXPAX@Z 00727c20 f i MakeEvalutionBaseData.obj
 0002:0007dc50       ?_Init@?$num_put@DV?$ostreambuf_iterator@DU?$char_traits@D@std@@@std@@@std@@IAEXABV_Locinfo@2@@Z 00727c50 f i MakeEvalutionBaseData.obj
 0002:0007dcb0       ?_Getcvt@_Locinfo@std@@QBE?AU_Cvtvec@@XZ 00727cb0 f i MakeEvalutionBaseData.obj
 0002:0007dd10       ?_Init@?$codecvt@DDH@std@@IAEXABV_Locinfo@2@@Z 00727d10 f i MakeEvalutionBaseData.obj
 0002:0007dd30       ?_Init@?$numpunct@D@std@@IAEXABV_Locinfo@2@_N@Z 00727d30 f i MakeEvalutionBaseData.obj
 0002:0007dfb0       ?_Getlconv@_Locinfo@std@@QBEPBUlconv@@XZ 00727fb0 f i MakeEvalutionBaseData.obj
 0002:0007dfe0       ?_Getfalse@_Locinfo@std@@QBEPBDXZ 00727fe0 f i MakeEvalutionBaseData.obj
 0002:0007e000       ?_Gettrue@_Locinfo@std@@QBEPBDXZ 00728000 f i MakeEvalutionBaseData.obj
 0002:0007e020       ??$_Iter_cat@PBD@std@@YA?AUrandom_access_iterator_tag@0@ABQBD@Z 00728020 f i MakeEvalutionBaseData.obj
 0002:0007e090       ??$_Debug_range2@PBD@std@@YAXPBD0PB_WIUrandom_access_iterator_tag@0@@Z 00728090 f i MakeEvalutionBaseData.obj
 0002:0007e100       ??$_Fabs@N@std@@YANABV?$complex@N@0@PAH@Z 00728100 f i MakeEvalutionBaseData.obj
 0002:0007e3e0       ?_Infv@?$_Ctraits@N@std@@SANN@Z 007283e0 f i MakeEvalutionBaseData.obj
 0002:0007e3f0       ?_Isinf@?$_Ctraits@N@std@@SA_NN@Z 007283f0 f i MakeEvalutionBaseData.obj
 0002:0007e420       ?_Isnan@?$_Ctraits@N@std@@SA_NN@Z 00728420 f i MakeEvalutionBaseData.obj
 0002:0007e450       ??$imag@N@std@@YANABV?$complex@N@0@@Z 00728450 f i MakeEvalutionBaseData.obj
 0002:0007e470       ??$_Uninitialized_copy@V?$_Vector_const_iterator@V?$_Vector_val@NV?$allocator@N@std@@@std@@@std@@PANV?$allocator@N@2@@std@@YAPANV?$_Vector_const_iterator@V?$_Vector_val@NV?$allocator@N@std@@@std@@@0@0PANAAV?$allocator@N@0@@Z 00728470 f i MakeEvalutionBaseData.obj
 0002:0007e590       ??$forward@AAN@std@@YAAANAAN@Z 00728590 f i MakeEvalutionBaseData.obj
 0002:0007e5a0       ??$construct@AAN@?$allocator@N@std@@QAEXPANAAN@Z 007285a0 f i MakeEvalutionBaseData.obj
 0002:0007e670       ??$forward@ABN@std@@YAABNABN@Z 00728670 f i MakeEvalutionBaseData.obj
 0002:0007e680       ??$?8DD@std@@YA_NABV?$allocator@D@0@0@Z 00728680 f i MakeEvalutionBaseData.obj
 0002:0007e690       ??$forward@U_Container_proxy@std@@@std@@YA$$QAU_Container_proxy@0@AAU10@@Z 00728690 f i MakeEvalutionBaseData.obj
 0002:0007e6a0       ??$?8NN@std@@YA_NABV?$allocator@N@0@0@Z 007286a0 f i MakeEvalutionBaseData.obj
 0002:0007e6b0       ??$_Val_type@PAN@std@@YAPANPAN@Z 007286b0 f i MakeEvalutionBaseData.obj
 0002:0007e6c0       ??$_Ptr_cat@NN@std@@YA?AU_Scalar_ptr_iterator_tag@0@PAN0@Z 007286c0 f i MakeEvalutionBaseData.obj
 0002:0007e720       ??$_Uninit_def_fill_n@NINN@std@@YAXPANIPBNAAV?$allocator@N@0@0U_Scalar_ptr_iterator_tag@0@@Z 00728720 f i MakeEvalutionBaseData.obj
 0002:0007e770       ??$_Val_type@PAV?$complex@N@std@@@std@@YAPAV?$complex@N@0@PAV10@@Z 00728770 f i MakeEvalutionBaseData.obj
 0002:0007e780       ??$_Ptr_cat@V?$complex@N@std@@V12@@std@@YA?AU_Nonscalar_ptr_iterator_tag@0@PAV?$complex@N@0@0@Z 00728780 f i MakeEvalutionBaseData.obj
 0002:0007e7e0       ??$_Uninit_def_fill_n@PAV?$complex@N@std@@IV12@V?$allocator@V?$complex@N@std@@@2@V12@@std@@YAXPAV?$complex@N@0@IPBV10@AAV?$allocator@V?$complex@N@std@@@0@0U_Nonscalar_ptr_iterator_tag@0@@Z 007287e0 f i MakeEvalutionBaseData.obj
 0002:0007e930       ??$_Uninitialized_move@PANPANV?$allocator@N@std@@@std@@YAPANPAN00AAV?$allocator@N@0@@Z 00728930 f i MakeEvalutionBaseData.obj
 0002:0007e9a0       ??$_Move@PANPAN@std@@YAPANPAN00U_Scalar_ptr_iterator_tag@0@@Z 007289a0 f i MakeEvalutionBaseData.obj
 0002:0007ea00       ??$_Destroy_range@V?$allocator@N@std@@@std@@YAXPAN0AAV?$allocator@N@0@U_Scalar_ptr_iterator_tag@0@@Z 00728a00 f i MakeEvalutionBaseData.obj
 0002:0007ea10       ??$_Move@PAV?$complex@N@std@@PAV12@@std@@YAPAV?$complex@N@0@PAV10@00U_Nonscalar_ptr_iterator_tag@0@@Z 00728a10 f i MakeEvalutionBaseData.obj
 0002:0007ea80       ??$_Destroy_range@V?$allocator@V?$complex@N@std@@@std@@@std@@YAXPAV?$complex@N@0@0AAV?$allocator@V?$complex@N@std@@@0@U_Nonscalar_ptr_iterator_tag@0@@Z 00728a80 f i MakeEvalutionBaseData.obj
 0002:0007eac0       ??$_Uninitialized_move@PAV?$complex@N@std@@PAV12@V?$allocator@V?$complex@N@std@@@2@@std@@YAPAV?$complex@N@0@PAV10@00AAV?$allocator@V?$complex@N@std@@@0@@Z 00728ac0 f i MakeEvalutionBaseData.obj
 0002:0007eb30       ??$_Construct@NABN@std@@YAXPANABN@Z 00728b30 f i MakeEvalutionBaseData.obj
 0002:0007ec00       ??$_Destroy@N@std@@YAXPAN@Z 00728c00 f i MakeEvalutionBaseData.obj
 0002:0007ec10       ??$_Destroy@U_Container_proxy@std@@@std@@YAXPAU_Container_proxy@0@@Z 00728c10 f i MakeEvalutionBaseData.obj
 0002:0007ec20       ??$_Maklocstr@D@std@@YAPADPBDPADABU_Cvtvec@@@Z 00728c20 f i MakeEvalutionBaseData.obj
 0002:0007ece0       ??$_Ptr_cat@V?$_Vector_const_iterator@V?$_Vector_val@NV?$allocator@N@std@@@std@@@std@@PAN@std@@YA?AU_Nonscalar_ptr_iterator_tag@0@AAV?$_Vector_const_iterator@V?$_Vector_val@NV?$allocator@N@std@@@std@@@0@AAPAN@Z 00728ce0 f i MakeEvalutionBaseData.obj
 0002:0007ed40       ??$_Uninit_copy@V?$_Vector_const_iterator@V?$_Vector_val@NV?$allocator@N@std@@@std@@@std@@PANV?$allocator@N@2@@std@@YAPANV?$_Vector_const_iterator@V?$_Vector_val@NV?$allocator@N@std@@@std@@@0@0PANAAV?$allocator@N@0@U_Nonscalar_ptr_iterator_tag@0@@Z 00728d40 f i MakeEvalutionBaseData.obj
 0002:0007ef30       ??$_Fill_n@PANIN@std@@YAXPANIABN@Z 00728f30 f i MakeEvalutionBaseData.obj
 0002:0007ef70       ??$_Cons_val@V?$allocator@V?$complex@N@std@@@std@@V?$complex@N@2@V32@@std@@YAXAAV?$allocator@V?$complex@N@std@@@0@PAV?$complex@N@0@$$QAV20@@Z 00728f70 f i MakeEvalutionBaseData.obj
 0002:0007efa0       ??$_Dest_val@V?$allocator@V?$complex@N@std@@@std@@V?$complex@N@2@@std@@YAXAAV?$allocator@V?$complex@N@std@@@0@PAV?$complex@N@0@@Z 00728fa0 f i MakeEvalutionBaseData.obj
 0002:0007efc0       ??$_Uninit_move@NNN@std@@YAPANPAN00AAV?$allocator@N@0@0U_Scalar_ptr_iterator_tag@0@@Z 00728fc0 f i MakeEvalutionBaseData.obj
 0002:0007f050       ??$move@AAV?$complex@N@std@@@std@@YA$$QAV?$complex@N@0@AAV10@@Z 00729050 f i MakeEvalutionBaseData.obj
 0002:0007f060       ??$_Uninit_move@PAV?$complex@N@std@@PAV12@V?$allocator@V?$complex@N@std@@@2@V12@@std@@YAPAV?$complex@N@0@PAV10@00AAV?$allocator@V?$complex@N@std@@@0@0U_Nonscalar_ptr_iterator_tag@0@@Z 00729060 f i MakeEvalutionBaseData.obj
 0002:0007f1b0       ?construct@?$allocator@V?$complex@N@std@@@std@@QAEXPAV?$complex@N@2@$$QAV32@@Z 007291b0 f i MakeEvalutionBaseData.obj
 0002:0007f290       ?destroy@?$allocator@V?$complex@N@std@@@std@@QAEXPAV?$complex@N@2@@Z 00729290 f i MakeEvalutionBaseData.obj
 0002:0007f2d0       ??$_Debug_range@V?$_Vector_const_iterator@V?$_Vector_val@NV?$allocator@N@std@@@std@@@std@@@std@@YAXV?$_Vector_const_iterator@V?$_Vector_val@NV?$allocator@N@std@@@std@@@0@0PB_WI@Z 007292d0 f i MakeEvalutionBaseData.obj
 0002:0007f3e0       ??$_Debug_pointer@N@std@@YAXPANPB_WI@Z 007293e0 f i MakeEvalutionBaseData.obj
 0002:0007f410       ??$forward@V?$complex@N@std@@@std@@YA$$QAV?$complex@N@0@AAV10@@Z 00729410 f i MakeEvalutionBaseData.obj
 0002:0007f420       ??$_Debug_range@PAN@std@@YAXPAN0PB_WI@Z 00729420 f i MakeEvalutionBaseData.obj
 0002:0007f480       ??$_Debug_range@PAV?$complex@N@std@@@std@@YAXPAV?$complex@N@0@0PB_WI@Z 00729480 f i MakeEvalutionBaseData.obj
 0002:0007f4e0       ??$_Debug_pointer@V?$complex@N@std@@@std@@YAXPAV?$complex@N@0@PB_WI@Z 007294e0 f i MakeEvalutionBaseData.obj
 0002:0007f510       ??$_Destroy@V?$complex@N@std@@@std@@YAXPAV?$complex@N@0@@Z 00729510 f i MakeEvalutionBaseData.obj
 0002:0007f520       ??$_Iter_cat@V?$_Vector_const_iterator@V?$_Vector_val@NV?$allocator@N@std@@@std@@@std@@@std@@YA?AUrandom_access_iterator_tag@0@ABV?$_Vector_const_iterator@V?$_Vector_val@NV?$allocator@N@std@@@std@@@0@@Z 00729520 f i MakeEvalutionBaseData.obj
 0002:0007f590       ??$_Debug_range2@V?$_Vector_const_iterator@V?$_Vector_val@NV?$allocator@N@std@@@std@@@std@@@std@@YAXV?$_Vector_const_iterator@V?$_Vector_val@NV?$allocator@N@std@@@std@@@0@0PB_WIUrandom_access_iterator_tag@0@@Z 00729590 f i MakeEvalutionBaseData.obj
 0002:0007f680       ??$_Iter_cat@PAN@std@@YA?AUrandom_access_iterator_tag@0@ABQAN@Z 00729680 f i MakeEvalutionBaseData.obj
 0002:0007f6f0       ??$_Debug_range2@PAN@std@@YAXPAN0PB_WIUrandom_access_iterator_tag@0@@Z 007296f0 f i MakeEvalutionBaseData.obj
 0002:0007f760       ??$_Iter_cat@PAV?$complex@N@std@@@std@@YA?AUrandom_access_iterator_tag@0@ABQAV?$complex@N@0@@Z 00729760 f i MakeEvalutionBaseData.obj
 0002:0007f7d0       ??$_Debug_range2@PAV?$complex@N@std@@@std@@YAXPAV?$complex@N@0@0PB_WIUrandom_access_iterator_tag@0@@Z 007297d0 f i MakeEvalutionBaseData.obj
 0002:0007f840       ??$_Debug_pointer@V?$_Vector_const_iterator@V?$_Vector_val@NV?$allocator@N@std@@@std@@@std@@@std@@YAXAAV?$_Vector_const_iterator@V?$_Vector_val@NV?$allocator@N@std@@@std@@@0@PB_WI@Z 00729840 f i MakeEvalutionBaseData.obj
 0002:0007f850       ??0id@locale@std@@QAE@I@Z  00729850 f i MakeEvalutionBaseData.obj
 0002:0007f880       ??0CMseed2Gascii@@QAE@XZ   00729880 f   mseed2Gascii.obj
 0002:0007f950       ??1CMseed2Gascii@@QAE@XZ   00729950 f   mseed2Gascii.obj
 0002:0007f970       ?MakeMseed2Gascii@CMseed2Gascii@@QAEHPAD0N@Z 00729970 f   mseed2Gascii.obj
 0002:0007fdd0       ?writeascii@CMseed2Gascii@@QAE_JPAUMSTrace_s@@@Z 00729dd0 f   mseed2Gascii.obj
 0002:00081000       ?parameter_proc@CMseed2Gascii@@QAEHPAD@Z 0072b000 f   mseed2Gascii.obj
 0002:000811e0       ?getoptval@CMseed2Gascii@@QAEPADHPAPADHH@Z 0072b1e0 f   mseed2Gascii.obj
 0002:000812a0       ?readlistfile@CMseed2Gascii@@QAEHPAD@Z 0072b2a0 f   mseed2Gascii.obj
 0002:000815f0       ?addnode@CMseed2Gascii@@QAEPAUlistnode@@PAPAU2@PAXH1H@Z 0072b5f0 f   mseed2Gascii.obj
 0002:00081740       ?usage@CMseed2Gascii@@QAEXXZ 0072b740 f   mseed2Gascii.obj
 0002:00081fa0       ??0SpectrumType@@QAE@XZ    0072bfa0 f   SpectrumType.obj
 0002:00081fc0       ??1SpectrumType@@UAE@XZ    0072bfc0 f   SpectrumType.obj
 0002:00082090       ?WriteSpectrum@SpectrumType@@QAEXPADPAV1@H@Z 0072c090 f   SpectrumType.obj
 0002:000823b0       ??_GSpectrumType@@UAEPAXI@Z 0072c3b0 f i SpectrumType.obj
 0002:000823b0       ??_ESpectrumType@@UAEPAXI@Z 0072c3b0 f i SpectrumType.obj
 0002:00082400       ?_AfxInitManaged@@YAHXZ    0072c400 f i stdafx.obj
 0002:00082410       ??_H@YGXPAXIHP6EPAX0@Z@Z   0072c410 f i stdafx.obj
 0002:00082460       ??0Thank_you@Define_the_symbol__ATL_MIXED@@QAE@XZ 0072c460 f i stdafx.obj
 0002:00082490       ?one@Thank_you@Define_the_symbol__ATL_MIXED@@UAEXXZ 0072c490 f i stdafx.obj
 0002:000824b0       ?Init_WaveDataPool@@YAXXZ  0072c4b0 f   wavedataManager.obj
 0002:00082550       ?AddUpdateChanData@@YAPAUAllCompData@@PAU1@PAUChanData_t@@@Z 0072c550 f   wavedataManager.obj
 0002:00082ab0       ?FindPosWaveData@@YAPAUAllCompData@@PAU1@J@Z 0072cab0 f   wavedataManager.obj
 0002:00082b20       ?FindWaveData@@YAPAUAllCompData@@J@Z 0072cb20 f   wavedataManager.obj
 0002:00082b80       ?FindNextWaveData@@YAPAUAllCompData@@PAU1@J@Z 0072cb80 f   wavedataManager.obj
 0002:00082bd0       ?GetWaveDataListCount@@YAHXZ 0072cbd0 f   wavedataManager.obj
 0002:00082c20       ?GetRealDataCount@@YAHD@Z  0072cc20 f   wavedataManager.obj
 0002:00082d40       ?GetRealData@@YAHDPANH@Z   0072cd40 f   wavedataManager.obj
 0002:00082e90       ?GetCountData@@YAHDPAHH@Z  0072ce90 f   wavedataManager.obj
 0002:00082fe0       ?GetRKtimeData@@YAHDPANH@Z 0072cfe0 f   wavedataManager.obj
 0002:00083140       ?UpdateRealData@@YAHDDPANHAAN11@Z 0072d140 f   wavedataManager.obj
 0002:00083b90       ?GetFirstWaveData@@YAPAUAllCompData@@XZ 0072db90 f   wavedataManager.obj
 0002:00083ba0       ?GetNextWaveData@@YAPAUAllCompData@@PAU1@@Z 0072dba0 f   wavedataManager.obj
 0002:00083bb0       ?Distory_WaveDataPool@@YAXXZ 0072dbb0 f   wavedataManager.obj
 0002:00083c30       ?AngleCorrcetion@@YAXM@Z   0072dc30 f   wavedataManager.obj
 0002:00083d50       ?VectorSynthesis@@YAXXZ    0072dd50 f   wavedataManager.obj
 0002:00084040       ?AddWaveData@@YAPAUAllCompData@@JPADDHN@Z 0072e040 f   wavedataManager.obj
 0002:000842d0       ?AppendWaveData@@YAPAUAllCompData@@JPADHNHNHND@Z 0072e2d0 f   wavedataManager.obj
 0002:000843a0       ?CheckChannelID@@YADD@Z    0072e3a0 f   wavedataManager.obj
 0002:000843f0       ?OutTogroundData@@YAHPADDH@Z 0072e3f0 f   wavedataManager.obj
 0002:00084ac0       ?OutTogroundData_AccOnly@@YAHPADDH@Z 0072eac0 f   wavedataManager.obj
 0002:000850e0       ?OutTogroundData_VelOnly@@YAHPADDH@Z 0072f0e0 f   wavedataManager.obj
 0002:00085700       ?OutTogroundData_DispOnly@@YAHPADDH@Z 0072f700 f   wavedataManager.obj
 0002:00085d20       ?dtrend4MMA@@YAHD@Z        0072fd20 f   wavedataManager.obj
 0002:000860c0       ?OutTogroundData4NEMA@@YAHPADDH@Z 007300c0 f   wavedataManager.obj
 0002:00087af0       _ms_samplesize             00731af0 f   wLibMseed_D:lookup.obj
 0002:00087ba0       _ms_encodingstr            00731ba0 f   wLibMseed_D:lookup.obj
 0002:00087d60       _ms_blktdesc               00731d60 f   wLibMseed_D:lookup.obj
 0002:00088020       _ms_blktlen                00732020 f   wLibMseed_D:lookup.obj
 0002:000883d0       _ms_errorstr               007323d0 f   wLibMseed_D:lookup.obj
 0002:000884b0       _ms_loginit                007324b0 f   wLibMseed_D:logging.obj
 0002:00088520       _ms_loginit_l              00732520 f   wLibMseed_D:logging.obj
 0002:00088600       _ms_loginit_main           00732600 f   wLibMseed_D:logging.obj
 0002:00088700       _ms_log                    00732700 f   wLibMseed_D:logging.obj
 0002:000887b0       _ms_log_l                  007327b0 f   wLibMseed_D:logging.obj
 0002:00088880       _ms_log_main               00732880 f   wLibMseed_D:logging.obj
 0002:00088bd0       _ms_recsrcname             00732bd0 f   wLibMseed_D:genutils.obj
 0002:00088da0       _ms_splitsrcname           00732da0 f   wLibMseed_D:genutils.obj
 0002:00089050       _ms_strncpclean            00733050 f   wLibMseed_D:genutils.obj
 0002:00089120       _ms_strncpcleantail        00733120 f   wLibMseed_D:genutils.obj
 0002:000891f0       _ms_strncpopen             007331f0 f   wLibMseed_D:genutils.obj
 0002:00089300       _ms_doy2md                 00733300 f   wLibMseed_D:genutils.obj
 0002:00089540       _ms_md2doy                 00733540 f   wLibMseed_D:genutils.obj
 0002:000897f0       _ms_btime2hptime           007337f0 f   wLibMseed_D:genutils.obj
 0002:000899a0       _ms_btime2isotimestr       007339a0 f   wLibMseed_D:genutils.obj
 0002:00089b10       _ms_btime2mdtimestr        00733b10 f   wLibMseed_D:genutils.obj
 0002:00089c80       _ms_btime2seedtimestr      00733c80 f   wLibMseed_D:genutils.obj
 0002:00089d40       _ms_hptime2btime           00733d40 f   wLibMseed_D:genutils.obj
 0002:00089f30       _ms_hptime2isotimestr      00733f30 f   wLibMseed_D:genutils.obj
 0002:0008a150       _ms_hptime2mdtimestr       00734150 f   wLibMseed_D:genutils.obj
 0002:0008a370       _ms_hptime2seedtimestr     00734370 f   wLibMseed_D:genutils.obj
 0002:0008a580       _ms_time2hptime            00734580 f   wLibMseed_D:genutils.obj
 0002:0008a8a0       _ms_seedtimestr2hptime     007348a0 f   wLibMseed_D:genutils.obj
 0002:0008abe0       _ms_timestr2hptime         00734be0 f   wLibMseed_D:genutils.obj
 0002:0008afc0       _ms_nomsamprate            00734fc0 f   wLibMseed_D:genutils.obj
 0002:0008b050       _ms_genfactmult            00735050 f   wLibMseed_D:genutils.obj
 0002:0008b1e0       _ms_ratapprox              007351e0 f   wLibMseed_D:genutils.obj
 0002:0008b490       _ms_bigendianhost          00735490 f   wLibMseed_D:genutils.obj
 0002:0008b4e0       _ms_dabs                   007354e0 f   wLibMseed_D:genutils.obj
 0002:0008bb40       _ms_readmsr                00735b40 f   wLibMseed_D:fileutils.obj
 0002:0008bc00       _ms_readmsr_r              00735c00 f   wLibMseed_D:fileutils.obj
 0002:0008bc80       _ms_readmsr_main           00735c80 f   wLibMseed_D:fileutils.obj
 0002:0008dc20       _ms_readtraces             00737c20 f   wLibMseed_D:fileutils.obj
 0002:0008dcb0       _ms_readtraces_timewin     00737cb0 f   wLibMseed_D:fileutils.obj
 0002:0008de10       _ms_readtraces_selection   00737e10 f   wLibMseed_D:fileutils.obj
 0002:0008e050       _ms_readtracelist          00738050 f   wLibMseed_D:fileutils.obj
 0002:0008e0e0       _ms_readtracelist_timewin  007380e0 f   wLibMseed_D:fileutils.obj
 0002:0008e240       _ms_readtracelist_selection 00738240 f   wLibMseed_D:fileutils.obj
 0002:0008e560       _msr_writemseed            00738560 f   wLibMseed_D:fileutils.obj
 0002:0008e830       _mst_writemseed            00738830 f   wLibMseed_D:fileutils.obj
 0002:0008ea70       _mst_writemseedgroup       00738a70 f   wLibMseed_D:fileutils.obj
 0002:0008ecd0       _mst_init                  00738cd0 f   wLibMseed_D:traceutils.obj
 0002:0008edc0       _mst_free                  00738dc0 f   wLibMseed_D:traceutils.obj
 0002:0008eea0       _mst_initgroup             00738ea0 f   wLibMseed_D:traceutils.obj
 0002:0008efb0       _mst_freegroup             00738fb0 f   wLibMseed_D:traceutils.obj
 0002:0008f0a0       _mst_findmatch             007390a0 f   wLibMseed_D:traceutils.obj
 0002:0008f310       _mst_findadjacent          00739310 f   wLibMseed_D:traceutils.obj
 0002:0008f8a0       _mst_addmsr                007398a0 f   wLibMseed_D:traceutils.obj
 0002:0008fda0       _mst_addspan               00739da0 f   wLibMseed_D:traceutils.obj
 0002:00090120       _mst_addmsrtogroup         0073a120 f   wLibMseed_D:traceutils.obj
 0002:000904a0       _mst_addtracetogroup       0073a4a0 f   wLibMseed_D:traceutils.obj
 0002:00090550       _mst_groupheal             0073a550 f   wLibMseed_D:traceutils.obj
 0002:00090af0       _mst_groupsort             0073aaf0 f   wLibMseed_D:traceutils.obj
 0002:00091030       _mst_srcname               0073b030 f   wLibMseed_D:traceutils.obj
 0002:00091200       _mst_printtracelist        0073b200 f   wLibMseed_D:traceutils.obj
 0002:00091a80       _mst_printsynclist         0073ba80 f   wLibMseed_D:traceutils.obj
 0002:00091db0       _mst_printgaplist          0073bdb0 f   wLibMseed_D:traceutils.obj
 0002:00092540       _mst_pack                  0073c540 f   wLibMseed_D:traceutils.obj
 0002:00092b90       _mst_packgroup             0073cb90 f   wLibMseed_D:traceutils.obj
 0002:00092da0       _msr_init                  0073cda0 f   wLibMseed_D:msrutils.obj
 0002:00092ef0       _msr_free                  0073cef0 f   wLibMseed_D:msrutils.obj
 0002:00092ff0       _msr_free_blktchain        0073cff0 f   wLibMseed_D:msrutils.obj
 0002:000930e0       _msr_addblockette          0073d0e0 f   wLibMseed_D:msrutils.obj
 0002:00093340       _msr_normalize_header      0073d340 f   wLibMseed_D:msrutils.obj
 0002:00093860       _msr_duplicate             0073d860 f   wLibMseed_D:msrutils.obj
 0002:00093bb0       _msr_samprate              0073dbb0 f   wLibMseed_D:msrutils.obj
 0002:00093c30       _msr_nomsamprate           0073dc30 f   wLibMseed_D:msrutils.obj
 0002:00093cb0       _msr_starttime             0073dcb0 f   wLibMseed_D:msrutils.obj
 0002:00093db0       _msr_starttime_uc          0073ddb0 f   wLibMseed_D:msrutils.obj
 0002:00093e40       _msr_endtime               0073de40 f   wLibMseed_D:msrutils.obj
 0002:00093f50       _msr_srcname               0073df50 f   wLibMseed_D:msrutils.obj
 0002:00094120       _msr_print                 0073e120 f   wLibMseed_D:msrutils.obj
 0002:000968c0       _msr_host_latency          007408c0 f   wLibMseed_D:msrutils.obj
 0002:00096a60       _ms_gswap2                 00740a60 f   wLibMseed_D:gswap.obj
 0002:00096b20       _ms_gswap3                 00740b20 f   wLibMseed_D:gswap.obj
 0002:00096be0       _ms_gswap4                 00740be0 f   wLibMseed_D:gswap.obj
 0002:00096cb0       _ms_gswap8                 00740cb0 f   wLibMseed_D:gswap.obj
 0002:00096dd0       _ms_gswap2a                00740dd0 f   wLibMseed_D:gswap.obj
 0002:00096e40       _ms_gswap4a                00740e40 f   wLibMseed_D:gswap.obj
 0002:00096ed0       _ms_gswap8a                00740ed0 f   wLibMseed_D:gswap.obj
 0002:00096fc0       _msr_parse                 00740fc0 f   wLibMseed_D:parseutils.obj
 0002:000971b0       _ms_detect                 007411b0 f   wLibMseed_D:parseutils.obj
 0002:00097cb0       _ms_parse_raw              00741cb0 f   wLibMseed_D:parseutils.obj
 0002:0009b550       _ms_matchselect            00745550 f   wLibMseed_D:selection.obj
 0002:0009b860       _msr_matchselect           00745860 f   wLibMseed_D:selection.obj
 0002:0009b970       _ms_addselect              00745970 f   wLibMseed_D:selection.obj
 0002:0009bb90       _ms_addselect_comp         00745b90 f   wLibMseed_D:selection.obj
 0002:0009beb0       _ms_readselectionsfile     00745eb0 f   wLibMseed_D:selection.obj
 0002:0009c540       _ms_freeselections         00746540 f   wLibMseed_D:selection.obj
 0002:0009c5f0       _ms_printselections        007465f0 f   wLibMseed_D:selection.obj
 0002:0009cc80       _lmp_ftello                00746c80 f   wLibMseed_D:lmplatform.obj
 0002:0009ccd0       _lmp_fseeko                00746cd0 f   wLibMseed_D:lmplatform.obj
 0002:0009cd30       _mstl_init                 00746d30 f   wLibMseed_D:tracelist.obj
 0002:0009cdd0       _mstl_free                 00746dd0 f   wLibMseed_D:tracelist.obj
 0002:0009cf60       _mstl_addmsr               00746f60 f   wLibMseed_D:tracelist.obj
 0002:0009e6e0       _mstl_msr2seg              007486e0 f   wLibMseed_D:tracelist.obj
 0002:0009e8d0       _mstl_addmsrtoseg          007488d0 f   wLibMseed_D:tracelist.obj
 0002:0009ecd0       _mstl_addsegtoseg          00748cd0 f   wLibMseed_D:tracelist.obj
 0002:0009ef60       _mstl_printtracelist       00748f60 f   wLibMseed_D:tracelist.obj
 0002:0009f700       _mstl_printsynclist        00749700 f   wLibMseed_D:tracelist.obj
 0002:0009fa80       _mstl_printgaplist         00749a80 f   wLibMseed_D:tracelist.obj
 0002:000a0140       _msr_pack                  0074a140 f   wLibMseed_D:pack.obj
 0002:000a0f00       _msr_pack_header           0074af00 f   wLibMseed_D:pack.obj
 0002:000a28b0       _msr_unpack                0074c8b0 f   wLibMseed_D:unpack.obj
 0002:000a51d0       _msr_pack_int_16           0074f1d0 f   wLibMseed_D:packdata.obj
 0002:000a5330       _msr_pack_int_32           0074f330 f   wLibMseed_D:packdata.obj
 0002:000a5440       _msr_pack_float_32         0074f440 f   wLibMseed_D:packdata.obj
 0002:000a5550       _msr_pack_float_64         0074f550 f   wLibMseed_D:packdata.obj
 0002:000a5660       _msr_pack_steim1           0074f660 f   wLibMseed_D:packdata.obj
 0002:000a5fc0       _msr_pack_steim2           0074ffc0 f   wLibMseed_D:packdata.obj
 0002:000a7130       _msr_pack_text             00751130 f   wLibMseed_D:packdata.obj
 0002:000a7290       _msr_unpack_int_16         00751290 f   wLibMseed_D:unpackdata.obj
 0002:000a7390       _msr_unpack_int_32         00751390 f   wLibMseed_D:unpackdata.obj
 0002:000a7490       _msr_unpack_float_32       00751490 f   wLibMseed_D:unpackdata.obj
 0002:000a7590       _msr_unpack_float_64       00751590 f   wLibMseed_D:unpackdata.obj
 0002:000a7690       _msr_unpack_steim1         00751690 f   wLibMseed_D:unpackdata.obj
 0002:000a7c20       _msr_unpack_steim2         00751c20 f   wLibMseed_D:unpackdata.obj
 0002:000a84a0       _msr_unpack_geoscope       007524a0 f   wLibMseed_D:unpackdata.obj
 0002:000a8910       _msr_unpack_cdsn           00752910 f   wLibMseed_D:unpackdata.obj
 0002:000a8ac0       _msr_unpack_sro            00752ac0 f   wLibMseed_D:unpackdata.obj
 0002:000a8cb0       _msr_unpack_dwwssn         00752cb0 f   wLibMseed_D:unpackdata.obj
 0002:000a8de2       _mysql_init@4              00752de2 f   libmysql:libmysql.dll
 0002:000a8de8       _mysql_close@4             00752de8 f   libmysql:libmysql.dll
 0002:000a8dee       _mysql_free_result@4       00752dee f   libmysql:libmysql.dll
 0002:000a8df4       _mysql_query@8             00752df4 f   libmysql:libmysql.dll
 0002:000a8dfa       _mysql_real_connect@32     00752dfa f   libmysql:libmysql.dll
 0002:000a8e00       _mysql_store_result@4      00752e00 f   libmysql:libmysql.dll
 0002:000a8e06       _mysql_num_fields@4        00752e06 f   libmysql:libmysql.dll
 0002:000a8e0c       _mysql_fetch_row@4         00752e0c f   libmysql:libmysql.dll
 0002:000a8e12       _mysql_num_rows@4          00752e12 f   libmysql:libmysql.dll
 0002:000a8e18       _mysql_error@4             00752e18 f   libmysql:libmysql.dll
 0002:000a8e1e       _mysql_use_result@4        00752e1e f   libmysql:libmysql.dll
 0002:000a8e24       _mysql_set_character_set@8 00752e24 f   libmysql:libmysql.dll
 0002:000a8e30       ??2CObject@@SGPAXI@Z       00752e30 f   nafxcwd:afxmem.obj
 0002:000a8e60       ??3CObject@@SGXPAX@Z       00752e60 f   nafxcwd:afxmem.obj
 0002:000a8e80       ??3CObject@@SGXPAX0@Z      00752e80 f   nafxcwd:afxmem.obj
 0002:000a8ea0       ??2@YAPAXIPBDH@Z           00752ea0 f   nafxcwd:afxmem.obj
 0002:000a8ed0       ??_U@YAPAXIPBDH@Z          00752ed0 f   nafxcwd:afxmem.obj
 0002:000a8f00       ??3@YAXPAXPBDH@Z           00752f00 f   nafxcwd:afxmem.obj
 0002:000a8f20       ??_V@YAXPAXPBDH@Z          00752f20 f   nafxcwd:afxmem.obj
 0002:000a8f40       ??2CObject@@SGPAXIPBDH@Z   00752f40 f   nafxcwd:afxmem.obj
 0002:000a8f70       ??3CObject@@SGXPAXPBDH@Z   00752f70 f   nafxcwd:afxmem.obj
 0002:000a8f90       ?AfxAllocMemoryDebug@@YGPAXIHPBDH@Z 00752f90 f   nafxcwd:afxmem.obj
 0002:000a8fd0       ?AfxFreeMemoryDebug@@YGXPAXH@Z 00752fd0 f   nafxcwd:afxmem.obj
 0002:000a9000       ?_AfxDefaultAllocHook@@YGHIHJ@Z 00753000 f   nafxcwd:afxmem.obj
 0002:000a9020       ?_AfxAllocHookProxy@@YAHHPAXIHJPBEH@Z 00753020 f   nafxcwd:afxmem.obj
 0002:000a90d0       ?AfxSetAllocHook@@YGP6GHIHJ@ZP6GHIHJ@Z@Z 007530d0 f   nafxcwd:afxmem.obj
 0002:000a9120       ?AfxEnableMemoryLeakOverride@@YGHH@Z 00753120 f   nafxcwd:afxmem.obj
 0002:000a9150       ?AfxEnableMemoryTracking@@YGHH@Z 00753150 f   nafxcwd:afxmem.obj
 0002:000a91c0       ?AfxSetAllocStop@@YGXJ@Z   007531c0 f   nafxcwd:afxmem.obj
 0002:000a91e0       ?AfxCheckMemory@@YGHXZ     007531e0 f   nafxcwd:afxmem.obj
 0002:000a91f0       ?AfxIsMemoryBlock@@YGHPBXIPAJ@Z 007531f0 f   nafxcwd:afxmem.obj
 0002:000a9220       ??0CMemoryState@@QAE@XZ    00753220 f   nafxcwd:afxmem.obj
 0002:000a9250       ?UpdateData@CMemoryState@@QAEXXZ 00753250 f   nafxcwd:afxmem.obj
 0002:000a92e0       ?Difference@CMemoryState@@QAEHABU1@0@Z 007532e0 f   nafxcwd:afxmem.obj
 0002:000a9330       ?DumpStatistics@CMemoryState@@QBEXXZ 00753330 f   nafxcwd:afxmem.obj
 0002:000a9350       ?Checkpoint@CMemoryState@@QAEXXZ 00753350 f   nafxcwd:afxmem.obj
 0002:000a9380       ?DumpAllObjectsSince@CMemoryState@@QBEXXZ 00753380 f   nafxcwd:afxmem.obj
 0002:000a93a0       ?_AfxDoForAllObjectsProxy@@YAXPAX0@Z 007533a0 f   nafxcwd:afxmem.obj
 0002:000a93d0       ?AfxDoForAllObjects@@YGXP6AXPAVCObject@@PAX@Z1@Z 007533d0 f   nafxcwd:afxmem.obj
 0002:000a9420       ?AfxDumpMemoryLeaks@@YGHXZ 00753420 f   nafxcwd:afxmem.obj
 0002:000a9430       ?AfxNewHandler@@YAHI@Z     00753430 f   nafxcwd:afxmem.obj
 0002:000a9440       ?AfxGetNewHandler@@YGP6AHI@ZXZ 00753440 f   nafxcwd:afxmem.obj
 0002:000a9450       ?AfxSetNewHandler@@YGP6AHI@ZP6AHI@Z@Z 00753450 f   nafxcwd:afxmem.obj
 0002:000a9480       ??2@YAPAXI@Z               00753480 f   nafxcwd:afxmem.obj
 0002:000a94e0       ??3@YAXPAX@Z               007534e0 f   nafxcwd:afxmem.obj
 0002:000a9500       ??_U@YAPAXI@Z              00753500 f   nafxcwd:afxmem.obj
 0002:000a9520       ??_V@YAXPAX@Z              00753520 f   nafxcwd:afxmem.obj
 0002:000a9540       ??2@YAPAXIHPBDH@Z          00753540 f   nafxcwd:afxmem.obj
 0002:000a95b0       ??3@YAXPAXHPBDH@Z          007535b0 f   nafxcwd:afxmem.obj
 0002:000a95d0       ??_U@YAPAXIHPBDH@Z         007535d0 f   nafxcwd:afxmem.obj
 0002:000a9600       ??_V@YAXPAXHPBDH@Z         00753600 f   nafxcwd:afxmem.obj
 0002:000a9630       ??0CStringArray@@QAE@XZ    00753630 f   nafxcwd:array_s.obj
 0002:000a9690       ??_ECStringArray@@UAEPAXI@Z 00753690 f i nafxcwd:array_s.obj
 0002:000a9690       ??_GCStringArray@@UAEPAXI@Z 00753690 f i nafxcwd:array_s.obj
 0002:000a96d0       ??1CStringArray@@UAE@XZ    007536d0 f   nafxcwd:array_s.obj
 0002:000a9a00       ??_G?$CStringT@DV?$StrTraitMFC@DV?$ChTraitsCRT@D@ATL@@@@@ATL@@QAEPAXI@Z 00753a00 f i nafxcwd:array_s.obj
 0002:000a9a40       ?SetSize@CStringArray@@QAEXHH@Z 00753a40 f   nafxcwd:array_s.obj
 0002:000a9f40       ?Append@CStringArray@@QAEHABV1@@Z 00753f40 f   nafxcwd:array_s.obj
 0002:000aa070       ?Copy@CStringArray@@QAEXABV1@@Z 00754070 f   nafxcwd:array_s.obj
 0002:000aa110       ?FreeExtra@CStringArray@@QAEXXZ 00754110 f   nafxcwd:array_s.obj
 0002:000aa220       ?SetAtGrow@CStringArray@@QAEXHPBD@Z 00754220 f   nafxcwd:array_s.obj
 0002:000aa2c0       ?SetAtGrow@CStringArray@@QAEXHABV?$CStringT@DV?$StrTraitMFC@DV?$ChTraitsCRT@D@ATL@@@@@ATL@@@Z 007542c0 f   nafxcwd:array_s.obj
 0002:000aa3e0       ?InsertEmpty@CStringArray@@IAEXHH@Z 007543e0 f   nafxcwd:array_s.obj
 0002:000aa5a0       ?InsertAt@CStringArray@@QAEXHPBDH@Z 007545a0 f   nafxcwd:array_s.obj
 0002:000aa670       ?InsertAt@CStringArray@@QAEXHABV?$CStringT@DV?$StrTraitMFC@DV?$ChTraitsCRT@D@ATL@@@@@ATL@@H@Z 00754670 f   nafxcwd:array_s.obj
 0002:000aa6e0       ?RemoveAt@CStringArray@@QAEXHH@Z 007546e0 f   nafxcwd:array_s.obj
 0002:000aa850       ?InsertAt@CStringArray@@QAEXHPBV1@@Z 00754850 f   nafxcwd:array_s.obj
 0002:000aa9a0       ?Serialize@CStringArray@@UAEXAAVCArchive@@@Z 007549a0 f   nafxcwd:array_s.obj
 0002:000aaab0       ?Dump@CStringArray@@UBEXAAVCDumpContext@@@Z 00754ab0 f   nafxcwd:array_s.obj
 0002:000aaba0       ?AssertValid@CStringArray@@UBEXXZ 00754ba0 f   nafxcwd:array_s.obj
 0002:000aacd0       ?CreateObject@CStringArray@@SGPAVCObject@@XZ 00754cd0 f   nafxcwd:array_s.obj
 0002:000aad70       ?GetRuntimeClass@CStringArray@@UBEPAUCRuntimeClass@@XZ 00754d70 f   nafxcwd:array_s.obj
 0002:000aad90       ??5@YGAAVCArchive@@AAV0@AAPAVCStringArray@@@Z 00754d90 f   nafxcwd:array_s.obj
 0002:000aadc0       ??$?6DV?$StrTraitMFC@DV?$ChTraitsCRT@D@ATL@@@@@CArchive@@QAEAAV0@ABV?$CStringT@DV?$StrTraitMFC@DV?$ChTraitsCRT@D@ATL@@@@@ATL@@@Z 00754dc0 f i nafxcwd:array_s.obj
 0002:000aae10       ??$?5DV?$StrTraitMFC@DV?$ChTraitsCRT@D@ATL@@@@@CArchive@@QAEAAV0@AAV?$CStringT@DV?$StrTraitMFC@DV?$ChTraitsCRT@D@ATL@@@@@ATL@@@Z 00754e10 f i nafxcwd:array_s.obj
 0002:000ab070       ??$?6DV?$StrTraitMFC@DV?$ChTraitsCRT@D@ATL@@@@@CDumpContext@@QAEAAV0@ABV?$CStringT@DV?$StrTraitMFC@DV?$ChTraitsCRT@D@ATL@@@@@ATL@@@Z 00755070 f i nafxcwd:array_s.obj
 0002:000ab0a0       ??0?$CTempBuffer@D$0IA@VCCRTAllocator@ATL@@@ATL@@QAE@I@Z 007550a0 f i nafxcwd:array_s.obj
 0002:000ab0d0       ??0?$CTempBuffer@_W$0IA@VCCRTAllocator@ATL@@@ATL@@QAE@I@Z 007550d0 f i nafxcwd:array_s.obj
 0002:000ab100       ??0?$CStringT@DV?$StrTraitMFC@DV?$ChTraitsCRT@D@ATL@@@@@ATL@@QAE@PBDH@Z 00755100 f i nafxcwd:array_s.obj
 0002:000ab140       ??1?$CTempBuffer@D$0IA@VCCRTAllocator@ATL@@@ATL@@QAE@XZ 00755140 f i nafxcwd:array_s.obj
 0002:000ab170       ??B?$CTempBuffer@D$0IA@VCCRTAllocator@ATL@@@ATL@@QBEPADXZ 00755170 f i nafxcwd:array_s.obj
 0002:000ab190       ?Allocate@?$CTempBuffer@D$0IA@VCCRTAllocator@ATL@@@ATL@@QAEPADI@Z 00755190 f i nafxcwd:array_s.obj
 0002:000ab1c0       ??1?$CTempBuffer@_W$0IA@VCCRTAllocator@ATL@@@ATL@@QAE@XZ 007551c0 f i nafxcwd:array_s.obj
 0002:000ab1f0       ??B?$CTempBuffer@_W$0IA@VCCRTAllocator@ATL@@@ATL@@QBEPA_WXZ 007551f0 f i nafxcwd:array_s.obj
 0002:000ab210       ?Allocate@?$CTempBuffer@_W$0IA@VCCRTAllocator@ATL@@@ATL@@QAEPA_WI@Z 00755210 f i nafxcwd:array_s.obj
 0002:000ab240       ??0?$CStringT@DV?$StrTraitMFC@DV?$ChTraitsCRT@D@ATL@@@@@ATL@@QAE@PB_WH@Z 00755240 f i nafxcwd:array_s.obj
 0002:000ab3a0       ?AtlIsValidAddress@ATL@@YAHPBXIH@Z 007553a0 f i nafxcwd:array_s.obj
 0002:000ab3c0       ?AllocateBytes@?$CTempBuffer@D$0IA@VCCRTAllocator@ATL@@@ATL@@QAEPADI@Z 007553c0 f i nafxcwd:array_s.obj
 0002:000ab440       ?FreeHeap@?$CTempBuffer@D$0IA@VCCRTAllocator@ATL@@@ATL@@AAEXXZ 00755440 f i nafxcwd:array_s.obj
 0002:000ab470       ?Free@CCRTAllocator@ATL@@SAXPAX@Z 00755470 f i nafxcwd:array_s.obj
 0002:000ab490       ?AllocateBytes@?$CTempBuffer@_W$0IA@VCCRTAllocator@ATL@@@ATL@@QAEPA_WI@Z 00755490 f i nafxcwd:array_s.obj
 0002:000ab510       ?FreeHeap@?$CTempBuffer@_W$0IA@VCCRTAllocator@ATL@@@ATL@@AAEXXZ 00755510 f i nafxcwd:array_s.obj
 0002:000ab540       ?AllocateHeap@?$CTempBuffer@D$0IA@VCCRTAllocator@ATL@@@ATL@@AAEXI@Z 00755540 f i nafxcwd:array_s.obj
 0002:000ab590       ?Allocate@CCRTAllocator@ATL@@SAPAXI@Z 00755590 f i nafxcwd:array_s.obj
 0002:000ab5b0       ?AllocateHeap@?$CTempBuffer@_W$0IA@VCCRTAllocator@ATL@@@ATL@@AAEXI@Z 007555b0 f i nafxcwd:array_s.obj
 0002:000ab600       ??$AtlMultiplyThrow@I@ATL@@YAIII@Z 00755600 f i nafxcwd:array_s.obj
 0002:000ab650       ??$AtlMultiply@I@ATL@@YAJPAIII@Z 00755650 f i nafxcwd:array_s.obj
 0002:000ab6a0       ??0AFX_CLASSINIT@@QAE@PAUCRuntimeClass@@@Z 007556a0 f i nafxcwd:array_s.obj
 0002:000ab6d0       ??0CObject@@IAE@XZ         007556d0 f   nafxcwd:afxinl1.obj
 0002:000ab6f0       ??1CObject@@UAE@XZ         007556f0 f   nafxcwd:afxinl1.obj
 0002:000ab710       ?Serialize@CObject@@UAEXAAVCArchive@@@Z 00755710 f   nafxcwd:afxinl1.obj
 0002:000ab730       ??2CObject@@SGPAXIPAX@Z    00755730 f   nafxcwd:afxinl1.obj
 0002:000ab740       ?AfxDynamicDownCast@@YAPBVCObject@@PAUCRuntimeClass@@PBV1@@Z 00755740 f   nafxcwd:afxinl1.obj
 0002:000ab760       ?AfxStaticDownCast@@YAPBVCObject@@PAUCRuntimeClass@@PBV1@@Z 00755760 f   nafxcwd:afxinl1.obj
 0002:000ab780       ??1CException@@UAE@XZ      00755780 f   nafxcwd:afxinl1.obj
 0002:000ab7b0       ??0CSimpleException@@QAE@XZ 007557b0 f   nafxcwd:afxinl1.obj
 0002:000ab800       ??0CSimpleException@@QAE@H@Z 00755800 f   nafxcwd:afxinl1.obj
 0002:000ab850       ??1CSimpleException@@UAE@XZ 00755850 f   nafxcwd:afxinl1.obj
 0002:000ab880       ??0CMemoryException@@QAE@XZ 00755880 f   nafxcwd:afxinl1.obj
 0002:000ab8b0       ??_GCMemoryException@@UAEPAXI@Z 007558b0 f i nafxcwd:afxinl1.obj
 0002:000ab8b0       ??_ECMemoryException@@UAEPAXI@Z 007558b0 f i nafxcwd:afxinl1.obj
 0002:000ab8f0       ??0CMemoryException@@QAE@HI@Z 007558f0 f   nafxcwd:afxinl1.obj
 0002:000ab930       ??1CMemoryException@@UAE@XZ 00755930 f   nafxcwd:afxinl1.obj
 0002:000ab960       ??0CNotSupportedException@@QAE@XZ 00755960 f   nafxcwd:afxinl1.obj
 0002:000ab990       ??_GCNotSupportedException@@UAEPAXI@Z 00755990 f i nafxcwd:afxinl1.obj
 0002:000ab990       ??_ECNotSupportedException@@UAEPAXI@Z 00755990 f i nafxcwd:afxinl1.obj
 0002:000ab9d0       ??0CNotSupportedException@@QAE@HI@Z 007559d0 f   nafxcwd:afxinl1.obj
 0002:000aba10       ??1CNotSupportedException@@UAE@XZ 00755a10 f   nafxcwd:afxinl1.obj
 0002:000aba40       ??0CInvalidArgException@@QAE@XZ 00755a40 f   nafxcwd:afxinl1.obj
 0002:000aba70       ??_ECInvalidArgException@@UAEPAXI@Z 00755a70 f i nafxcwd:afxinl1.obj
 0002:000aba70       ??_GCInvalidArgException@@UAEPAXI@Z 00755a70 f i nafxcwd:afxinl1.obj
 0002:000abab0       ??0CInvalidArgException@@QAE@HI@Z 00755ab0 f   nafxcwd:afxinl1.obj
 0002:000abaf0       ??1CInvalidArgException@@UAE@XZ 00755af0 f   nafxcwd:afxinl1.obj
 0002:000abb20       ??0CArchiveException@@QAE@HPBD@Z 00755b20 f   nafxcwd:afxinl1.obj
 0002:000abbd0       ??_GCArchiveException@@UAEPAXI@Z 00755bd0 f i nafxcwd:afxinl1.obj
 0002:000abbd0       ??_ECArchiveException@@UAEPAXI@Z 00755bd0 f i nafxcwd:afxinl1.obj
 0002:000abc10       ??1CArchiveException@@UAE@XZ 00755c10 f   nafxcwd:afxinl1.obj
 0002:000abc50       ??0CFileException@@QAE@HJPBD@Z 00755c50 f   nafxcwd:afxinl1.obj
 0002:000abd00       ??_GCFileException@@UAEPAXI@Z 00755d00 f i nafxcwd:afxinl1.obj
 0002:000abd00       ??_ECFileException@@UAEPAXI@Z 00755d00 f i nafxcwd:afxinl1.obj
 0002:000abd40       ??1CFileException@@UAE@XZ  00755d40 f   nafxcwd:afxinl1.obj
 0002:000abd80       ??BCFile@@QBEPAXXZ         00755d80 f   nafxcwd:afxinl1.obj
 0002:000abda0       ?SeekToEnd@CFile@@QAE_KXZ  00755da0 f   nafxcwd:afxinl1.obj
 0002:000abdd0       ?SeekToBegin@CFile@@QAEXXZ 00755dd0 f   nafxcwd:afxinl1.obj
 0002:000abe00       ?SetFilePath@CFile@@UAEXPBD@Z 00755e00 f   nafxcwd:afxinl1.obj
 0002:000abe80       ?IsReadOnly@CFileFind@@QBEHXZ 00755e80 f   nafxcwd:afxinl1.obj
 0002:000abeb0       ?IsDirectory@CFileFind@@QBEHXZ 00755eb0 f   nafxcwd:afxinl1.obj
 0002:000abee0       ?IsCompressed@CFileFind@@QBEHXZ 00755ee0 f   nafxcwd:afxinl1.obj
 0002:000abf10       ?IsSystem@CFileFind@@QBEHXZ 00755f10 f   nafxcwd:afxinl1.obj
 0002:000abf40       ?IsHidden@CFileFind@@QBEHXZ 00755f40 f   nafxcwd:afxinl1.obj
 0002:000abf70       ?IsTemporary@CFileFind@@QBEHXZ 00755f70 f   nafxcwd:afxinl1.obj
 0002:000abfa0       ?IsNormal@CFileFind@@QBEHXZ 00755fa0 f   nafxcwd:afxinl1.obj
 0002:000abfd0       ?IsArchived@CFileFind@@QBEHXZ 00755fd0 f   nafxcwd:afxinl1.obj
 0002:000ac000       ?IsLoading@CArchive@@QBEHXZ 00756000 f   nafxcwd:afxinl1.obj
 0002:000ac030       ?IsStoring@CArchive@@QBEHXZ 00756030 f   nafxcwd:afxinl1.obj
 0002:000ac060       ?IsByteSwapping@CArchive@@QBEHXZ 00756060 f   nafxcwd:afxinl1.obj
 0002:000ac080       ?IsBufferEmpty@CArchive@@QBEHXZ 00756080 f   nafxcwd:afxinl1.obj
 0002:000ac0b0       ?GetFile@CArchive@@QBEPAVCFile@@XZ 007560b0 f   nafxcwd:afxinl1.obj
 0002:000ac0d0       ?SetObjectSchema@CArchive@@QAEXI@Z 007560d0 f   nafxcwd:afxinl1.obj
 0002:000ac0f0       ?SetStoreParams@CArchive@@QAEXII@Z 007560f0 f   nafxcwd:afxinl1.obj
 0002:000ac170       ?SetLoadParams@CArchive@@QAEXI@Z 00756170 f   nafxcwd:afxinl1.obj
 0002:000ac1e0       ??6CArchive@@QAEAAV0@H@Z   007561e0 f   nafxcwd:afxinl1.obj
 0002:000ac210       ??6CArchive@@QAEAAV0@I@Z   00756210 f   nafxcwd:afxinl1.obj
 0002:000ac240       ??6CArchive@@QAEAAV0@F@Z   00756240 f   nafxcwd:afxinl1.obj
 0002:000ac270       ??6CArchive@@QAEAAV0@D@Z   00756270 f   nafxcwd:afxinl1.obj
 0002:000ac2a0       ??6CArchive@@QAEAAV0@_W@Z  007562a0 f   nafxcwd:afxinl1.obj
 0002:000ac2d0       ??6CArchive@@QAEAAV0@_N@Z  007562d0 f   nafxcwd:afxinl1.obj
 0002:000ac300       ??6CArchive@@QAEAAV0@E@Z   00756300 f   nafxcwd:afxinl1.obj
 0002:000ac380       ??6CArchive@@QAEAAV0@_J@Z  00756380 f   nafxcwd:afxinl1.obj
 0002:000ac410       ??6CArchive@@QAEAAV0@_K@Z  00756410 f   nafxcwd:afxinl1.obj
 0002:000ac4a0       ??6CArchive@@QAEAAV0@G@Z   007564a0 f   nafxcwd:afxinl1.obj
 0002:000ac520       ??6CArchive@@QAEAAV0@J@Z   00756520 f   nafxcwd:afxinl1.obj
 0002:000ac5a0       ??6CArchive@@QAEAAV0@K@Z   007565a0 f   nafxcwd:afxinl1.obj
 0002:000ac620       ??6CArchive@@QAEAAV0@M@Z   00756620 f   nafxcwd:afxinl1.obj
 0002:000ac6a0       ??6CArchive@@QAEAAV0@N@Z   007566a0 f   nafxcwd:afxinl1.obj
 0002:000ac720       ??5CArchive@@QAEAAV0@AAH@Z 00756720 f   nafxcwd:afxinl1.obj
 0002:000ac750       ??5CArchive@@QAEAAV0@AAI@Z 00756750 f   nafxcwd:afxinl1.obj
 0002:000ac780       ??5CArchive@@QAEAAV0@AAF@Z 00756780 f   nafxcwd:afxinl1.obj
 0002:000ac7b0       ??5CArchive@@QAEAAV0@AAD@Z 007567b0 f   nafxcwd:afxinl1.obj
 0002:000ac7e0       ??5CArchive@@QAEAAV0@AA_W@Z 007567e0 f   nafxcwd:afxinl1.obj
 0002:000ac810       ??5CArchive@@QAEAAV0@AA_N@Z 00756810 f   nafxcwd:afxinl1.obj
 0002:000ac850       ??5CArchive@@QAEAAV0@AAE@Z 00756850 f   nafxcwd:afxinl1.obj
 0002:000ac8f0       ??5CArchive@@QAEAAV0@AA_J@Z 007568f0 f   nafxcwd:afxinl1.obj
 0002:000ac990       ??5CArchive@@QAEAAV0@AA_K@Z 00756990 f   nafxcwd:afxinl1.obj
 0002:000aca30       ??5CArchive@@QAEAAV0@AAG@Z 00756a30 f   nafxcwd:afxinl1.obj
 0002:000acad0       ??5CArchive@@QAEAAV0@AAK@Z 00756ad0 f   nafxcwd:afxinl1.obj
 0002:000acb70       ??5CArchive@@QAEAAV0@AAM@Z 00756b70 f   nafxcwd:afxinl1.obj
 0002:000acc10       ??5CArchive@@QAEAAV0@AAN@Z 00756c10 f   nafxcwd:afxinl1.obj
 0002:000accb0       ??5CArchive@@QAEAAV0@AAJ@Z 00756cb0 f   nafxcwd:afxinl1.obj
 0002:000acd50       ??0CArchive@@IAE@ABV0@@Z   00756d50 f   nafxcwd:afxinl1.obj
 0002:000acd80       ??4CArchive@@IAEXABV0@@Z   00756d80 f   nafxcwd:afxinl1.obj
 0002:000acda0       ??6@YGAAVCArchive@@AAV0@PBVCObject@@@Z 00756da0 f   nafxcwd:afxinl1.obj
 0002:000acdc0       ??5@YGAAVCArchive@@AAV0@AAPAVCObject@@@Z 00756dc0 f   nafxcwd:afxinl1.obj
 0002:000acdf0       ??5@YGAAVCArchive@@AAV0@AAPBVCObject@@@Z 00756df0 f   nafxcwd:afxinl1.obj
 0002:000ace20       ?EnsureRead@CArchive@@QAEXPAXI@Z 00756e20 f   nafxcwd:afxinl1.obj
 0002:000ace70       ?GetDepth@CDumpContext@@QBEHXZ 00756e70 f   nafxcwd:afxinl1.obj
 0002:000ace90       ?SetDepth@CDumpContext@@QAEXH@Z 00756e90 f   nafxcwd:afxinl1.obj
 0002:000aceb0       ??0CDumpContext@@IAE@ABV0@@Z 00756eb0 f   nafxcwd:afxinl1.obj
 0002:000aced0       ??4CDumpContext@@IAEXABV0@@Z 00756ed0 f   nafxcwd:afxinl1.obj
 0002:000acef0       ?GetSize@CByteArray@@QBEHXZ 00756ef0 f   nafxcwd:afxinl1.obj
 0002:000acf10       ?GetCount@CByteArray@@QBEHXZ 00756f10 f   nafxcwd:afxinl1.obj
 0002:000acf30       ?IsEmpty@CByteArray@@QBEHXZ 00756f30 f   nafxcwd:afxinl1.obj
 0002:000acf60       ?GetUpperBound@CByteArray@@QBEHXZ 00756f60 f   nafxcwd:afxinl1.obj
 0002:000acf80       ?RemoveAll@CByteArray@@QAEXXZ 00756f80 f   nafxcwd:afxinl1.obj
 0002:000acfa0       ?GetAt@CByteArray@@QBEEH@Z 00756fa0 f   nafxcwd:afxinl1.obj
 0002:000ad010       ?SetAt@CByteArray@@QAEXHE@Z 00757010 f   nafxcwd:afxinl1.obj
 0002:000ad080       ?ElementAt@CByteArray@@QAEAAEH@Z 00757080 f   nafxcwd:afxinl1.obj
 0002:000ad0f0       ?GetData@CByteArray@@QBEPBEXZ 007570f0 f   nafxcwd:afxinl1.obj
 0002:000ad110       ?GetData@CByteArray@@QAEPAEXZ 00757110 f   nafxcwd:afxinl1.obj
 0002:000ad130       ?Add@CByteArray@@QAEHE@Z   00757130 f   nafxcwd:afxinl1.obj
 0002:000ad170       ??ACByteArray@@QBEEH@Z     00757170 f   nafxcwd:afxinl1.obj
 0002:000ad1a0       ??ACByteArray@@QAEAAEH@Z   007571a0 f   nafxcwd:afxinl1.obj
 0002:000ad1d0       ?GetSize@CWordArray@@QBEHXZ 007571d0 f   nafxcwd:afxinl1.obj
 0002:000ad1f0       ?GetCount@CWordArray@@QBEHXZ 007571f0 f   nafxcwd:afxinl1.obj
 0002:000ad210       ?IsEmpty@CWordArray@@QBEHXZ 00757210 f   nafxcwd:afxinl1.obj
 0002:000ad240       ?GetUpperBound@CWordArray@@QBEHXZ 00757240 f   nafxcwd:afxinl1.obj
 0002:000ad260       ?RemoveAll@CWordArray@@QAEXXZ 00757260 f   nafxcwd:afxinl1.obj
 0002:000ad280       ?GetAt@CWordArray@@QBEGH@Z 00757280 f   nafxcwd:afxinl1.obj
 0002:000ad2f0       ?SetAt@CWordArray@@QAEXHG@Z 007572f0 f   nafxcwd:afxinl1.obj
 0002:000ad360       ?ElementAt@CWordArray@@QAEAAGH@Z 00757360 f   nafxcwd:afxinl1.obj
 0002:000ad3d0       ?GetData@CWordArray@@QBEPBGXZ 007573d0 f   nafxcwd:afxinl1.obj
 0002:000ad3f0       ?GetData@CWordArray@@QAEPAGXZ 007573f0 f   nafxcwd:afxinl1.obj
 0002:000ad410       ?Add@CWordArray@@QAEHG@Z   00757410 f   nafxcwd:afxinl1.obj
 0002:000ad450       ??ACWordArray@@QBEGH@Z     00757450 f   nafxcwd:afxinl1.obj
 0002:000ad480       ??ACWordArray@@QAEAAGH@Z   00757480 f   nafxcwd:afxinl1.obj
 0002:000ad4b0       ?GetSize@CDWordArray@@QBEHXZ 007574b0 f   nafxcwd:afxinl1.obj
 0002:000ad4d0       ?GetCount@CDWordArray@@QBEHXZ 007574d0 f   nafxcwd:afxinl1.obj
 0002:000ad4f0       ?IsEmpty@CDWordArray@@QBEHXZ 007574f0 f   nafxcwd:afxinl1.obj
 0002:000ad520       ?GetUpperBound@CDWordArray@@QBEHXZ 00757520 f   nafxcwd:afxinl1.obj
 0002:000ad540       ?RemoveAll@CDWordArray@@QAEXXZ 00757540 f   nafxcwd:afxinl1.obj
 0002:000ad560       ?GetAt@CDWordArray@@QBEKH@Z 00757560 f   nafxcwd:afxinl1.obj
 0002:000ad5d0       ?SetAt@CDWordArray@@QAEXHK@Z 007575d0 f   nafxcwd:afxinl1.obj
 0002:000ad640       ?ElementAt@CDWordArray@@QAEAAKH@Z 00757640 f   nafxcwd:afxinl1.obj
 0002:000ad6b0       ?GetData@CDWordArray@@QBEPBKXZ 007576b0 f   nafxcwd:afxinl1.obj
 0002:000ad6d0       ?GetData@CDWordArray@@QAEPAKXZ 007576d0 f   nafxcwd:afxinl1.obj
 0002:000ad6f0       ?Add@CDWordArray@@QAEHK@Z  007576f0 f   nafxcwd:afxinl1.obj
 0002:000ad730       ??ACDWordArray@@QBEKH@Z    00757730 f   nafxcwd:afxinl1.obj
 0002:000ad760       ??ACDWordArray@@QAEAAKH@Z  00757760 f   nafxcwd:afxinl1.obj
 0002:000ad790       ?GetSize@CUIntArray@@QBEHXZ 00757790 f   nafxcwd:afxinl1.obj
 0002:000ad7b0       ?GetCount@CUIntArray@@QBEHXZ 007577b0 f   nafxcwd:afxinl1.obj
 0002:000ad7d0       ?IsEmpty@CUIntArray@@QBEHXZ 007577d0 f   nafxcwd:afxinl1.obj
 0002:000ad800       ?GetUpperBound@CUIntArray@@QBEHXZ 00757800 f   nafxcwd:afxinl1.obj
 0002:000ad820       ?RemoveAll@CUIntArray@@QAEXXZ 00757820 f   nafxcwd:afxinl1.obj
 0002:000ad840       ?GetAt@CUIntArray@@QBEIH@Z 00757840 f   nafxcwd:afxinl1.obj
 0002:000ad8b0       ?SetAt@CUIntArray@@QAEXHI@Z 007578b0 f   nafxcwd:afxinl1.obj
 0002:000ad920       ?ElementAt@CUIntArray@@QAEAAIH@Z 00757920 f   nafxcwd:afxinl1.obj
 0002:000ad990       ?GetData@CUIntArray@@QBEPBIXZ 00757990 f   nafxcwd:afxinl1.obj
 0002:000ad9b0       ?GetData@CUIntArray@@QAEPAIXZ 007579b0 f   nafxcwd:afxinl1.obj
 0002:000ad9d0       ?Add@CUIntArray@@QAEHI@Z   007579d0 f   nafxcwd:afxinl1.obj
 0002:000ada10       ??ACUIntArray@@QBEIH@Z     00757a10 f   nafxcwd:afxinl1.obj
 0002:000ada40       ??ACUIntArray@@QAEAAIH@Z   00757a40 f   nafxcwd:afxinl1.obj
 0002:000ada70       ?GetSize@CPtrArray@@QBEHXZ 00757a70 f   nafxcwd:afxinl1.obj
 0002:000ada90       ?GetCount@CPtrArray@@QBEHXZ 00757a90 f   nafxcwd:afxinl1.obj
 0002:000adab0       ?IsEmpty@CPtrArray@@QBEHXZ 00757ab0 f   nafxcwd:afxinl1.obj
 0002:000adae0       ?GetUpperBound@CPtrArray@@QBEHXZ 00757ae0 f   nafxcwd:afxinl1.obj
 0002:000adb00       ?RemoveAll@CPtrArray@@QAEXXZ 00757b00 f   nafxcwd:afxinl1.obj
 0002:000adb20       ?GetAt@CPtrArray@@QBEPAXH@Z 00757b20 f   nafxcwd:afxinl1.obj
 0002:000adb90       ?SetAt@CPtrArray@@QAEXHPAX@Z 00757b90 f   nafxcwd:afxinl1.obj
 0002:000adc00       ?ElementAt@CPtrArray@@QAEAAPAXH@Z 00757c00 f   nafxcwd:afxinl1.obj
 0002:000adc70       ?GetData@CPtrArray@@QBEPAPBXXZ 00757c70 f   nafxcwd:afxinl1.obj
 0002:000adc90       ?GetData@CPtrArray@@QAEPAPAXXZ 00757c90 f   nafxcwd:afxinl1.obj
 0002:000adcb0       ?Add@CPtrArray@@QAEHPAX@Z  00757cb0 f   nafxcwd:afxinl1.obj
 0002:000adcf0       ??ACPtrArray@@QBEPAXH@Z    00757cf0 f   nafxcwd:afxinl1.obj
 0002:000add20       ??ACPtrArray@@QAEAAPAXH@Z  00757d20 f   nafxcwd:afxinl1.obj
 0002:000add50       ?GetSize@CObArray@@QBEHXZ  00757d50 f   nafxcwd:afxinl1.obj
 0002:000add70       ?GetCount@CObArray@@QBEHXZ 00757d70 f   nafxcwd:afxinl1.obj
 0002:000add90       ?IsEmpty@CObArray@@QBEHXZ  00757d90 f   nafxcwd:afxinl1.obj
 0002:000addc0       ?GetUpperBound@CObArray@@QBEHXZ 00757dc0 f   nafxcwd:afxinl1.obj
 0002:000adde0       ?RemoveAll@CObArray@@QAEXXZ 00757de0 f   nafxcwd:afxinl1.obj
 0002:000ade00       ?GetAt@CObArray@@QBEPAVCObject@@H@Z 00757e00 f   nafxcwd:afxinl1.obj
 0002:000ade70       ?SetAt@CObArray@@QAEXHPAVCObject@@@Z 00757e70 f   nafxcwd:afxinl1.obj
 0002:000adee0       ?ElementAt@CObArray@@QAEAAPAVCObject@@H@Z 00757ee0 f   nafxcwd:afxinl1.obj
 0002:000adf50       ?GetData@CObArray@@QBEPAPBVCObject@@XZ 00757f50 f   nafxcwd:afxinl1.obj
 0002:000adf70       ?GetData@CObArray@@QAEPAPAVCObject@@XZ 00757f70 f   nafxcwd:afxinl1.obj
 0002:000adf90       ?Add@CObArray@@QAEHPAVCObject@@@Z 00757f90 f   nafxcwd:afxinl1.obj
 0002:000adfd0       ??ACObArray@@QBEPAVCObject@@H@Z 00757fd0 f   nafxcwd:afxinl1.obj
 0002:000ae000       ??ACObArray@@QAEAAPAVCObject@@H@Z 00758000 f   nafxcwd:afxinl1.obj
 0002:000ae030       ?GetSize@CStringArray@@QBEHXZ 00758030 f   nafxcwd:afxinl1.obj
 0002:000ae050       ?GetCount@CStringArray@@QBEHXZ 00758050 f   nafxcwd:afxinl1.obj
 0002:000ae070       ?IsEmpty@CStringArray@@QBEHXZ 00758070 f   nafxcwd:afxinl1.obj
 0002:000ae0a0       ?GetUpperBound@CStringArray@@QBEHXZ 007580a0 f   nafxcwd:afxinl1.obj
 0002:000ae0c0       ?RemoveAll@CStringArray@@QAEXXZ 007580c0 f   nafxcwd:afxinl1.obj
 0002:000ae0e0       ?GetAt@CStringArray@@QBEABV?$CStringT@DV?$StrTraitMFC@DV?$ChTraitsCRT@D@ATL@@@@@ATL@@H@Z 007580e0 f   nafxcwd:afxinl1.obj
 0002:000ae150       ?SetAt@CStringArray@@QAEXHPBD@Z 00758150 f   nafxcwd:afxinl1.obj
 0002:000ae1d0       ?SetAt@CStringArray@@QAEXHABV?$CStringT@DV?$StrTraitMFC@DV?$ChTraitsCRT@D@ATL@@@@@ATL@@@Z 007581d0 f   nafxcwd:afxinl1.obj
 0002:000ae250       ?ElementAt@CStringArray@@QAEAAV?$CStringT@DV?$StrTraitMFC@DV?$ChTraitsCRT@D@ATL@@@@@ATL@@H@Z 00758250 f   nafxcwd:afxinl1.obj
 0002:000ae2c0       ?GetData@CStringArray@@QBEPBV?$CStringT@DV?$StrTraitMFC@DV?$ChTraitsCRT@D@ATL@@@@@ATL@@XZ 007582c0 f   nafxcwd:afxinl1.obj
 0002:000ae2e0       ?GetData@CStringArray@@QAEPAV?$CStringT@DV?$StrTraitMFC@DV?$ChTraitsCRT@D@ATL@@@@@ATL@@XZ 007582e0 f   nafxcwd:afxinl1.obj
 0002:000ae300       ?Add@CStringArray@@QAEHPBD@Z 00758300 f   nafxcwd:afxinl1.obj
 0002:000ae340       ?Add@CStringArray@@QAEHABV?$CStringT@DV?$StrTraitMFC@DV?$ChTraitsCRT@D@ATL@@@@@ATL@@@Z 00758340 f   nafxcwd:afxinl1.obj
 0002:000ae380       ??ACStringArray@@QBEABV?$CStringT@DV?$StrTraitMFC@DV?$ChTraitsCRT@D@ATL@@@@@ATL@@H@Z 00758380 f   nafxcwd:afxinl1.obj
 0002:000ae3b0       ??ACStringArray@@QAEAAV?$CStringT@DV?$StrTraitMFC@DV?$ChTraitsCRT@D@ATL@@@@@ATL@@H@Z 007583b0 f   nafxcwd:afxinl1.obj
 0002:000ae3e0       ?GetCount@CPtrList@@QBEHXZ 007583e0 f   nafxcwd:afxinl1.obj
 0002:000ae400       ?GetSize@CPtrList@@QBEHXZ  00758400 f   nafxcwd:afxinl1.obj
 0002:000ae420       ?IsEmpty@CPtrList@@QBEHXZ  00758420 f   nafxcwd:afxinl1.obj
 0002:000ae450       ?GetHead@CPtrList@@QAEAAPAXXZ 00758450 f   nafxcwd:afxinl1.obj
 0002:000ae490       ?GetHead@CPtrList@@QBEPBXXZ 00758490 f   nafxcwd:afxinl1.obj
 0002:000ae4d0       ?GetTail@CPtrList@@QAEAAPAXXZ 007584d0 f   nafxcwd:afxinl1.obj
 0002:000ae510       ?GetTail@CPtrList@@QBEPBXXZ 00758510 f   nafxcwd:afxinl1.obj
 0002:000ae550       ?GetHeadPosition@CPtrList@@QBEPAU__POSITION@@XZ 00758550 f   nafxcwd:afxinl1.obj
 0002:000ae570       ?GetTailPosition@CPtrList@@QBEPAU__POSITION@@XZ 00758570 f   nafxcwd:afxinl1.obj
 0002:000ae590       ?GetNext@CPtrList@@QAEAAPAXAAPAU__POSITION@@@Z 00758590 f   nafxcwd:afxinl1.obj
 0002:000ae600       ?GetNext@CPtrList@@QBEPBXAAPAU__POSITION@@@Z 00758600 f   nafxcwd:afxinl1.obj
 0002:000ae670       ?GetPrev@CPtrList@@QAEAAPAXAAPAU__POSITION@@@Z 00758670 f   nafxcwd:afxinl1.obj
 0002:000ae6e0       ?GetPrev@CPtrList@@QBEPBXAAPAU__POSITION@@@Z 007586e0 f   nafxcwd:afxinl1.obj
 0002:000ae750       ?GetAt@CPtrList@@QAEAAPAXPAU__POSITION@@@Z 00758750 f   nafxcwd:afxinl1.obj
 0002:000ae7b0       ?GetAt@CPtrList@@QBEPBXPAU__POSITION@@@Z 007587b0 f   nafxcwd:afxinl1.obj
 0002:000ae810       ?SetAt@CPtrList@@QAEXPAU__POSITION@@PAX@Z 00758810 f   nafxcwd:afxinl1.obj
 0002:000ae880       ?GetCount@CObList@@QBEHXZ  00758880 f   nafxcwd:afxinl1.obj
 0002:000ae8a0       ?GetSize@CObList@@QBEHXZ   007588a0 f   nafxcwd:afxinl1.obj
 0002:000ae8c0       ?IsEmpty@CObList@@QBEHXZ   007588c0 f   nafxcwd:afxinl1.obj
 0002:000ae8f0       ?GetHead@CObList@@QAEAAPAVCObject@@XZ 007588f0 f   nafxcwd:afxinl1.obj
 0002:000ae930       ?GetHead@CObList@@QBEPBVCObject@@XZ 00758930 f   nafxcwd:afxinl1.obj
 0002:000ae970       ?GetTail@CObList@@QAEAAPAVCObject@@XZ 00758970 f   nafxcwd:afxinl1.obj
 0002:000ae9b0       ?GetTail@CObList@@QBEPBVCObject@@XZ 007589b0 f   nafxcwd:afxinl1.obj
 0002:000ae9f0       ?GetHeadPosition@CObList@@QBEPAU__POSITION@@XZ 007589f0 f   nafxcwd:afxinl1.obj
 0002:000aea10       ?GetTailPosition@CObList@@QBEPAU__POSITION@@XZ 00758a10 f   nafxcwd:afxinl1.obj
 0002:000aea30       ?GetNext@CObList@@QAEAAPAVCObject@@AAPAU__POSITION@@@Z 00758a30 f   nafxcwd:afxinl1.obj
 0002:000aeaa0       ?GetNext@CObList@@QBEPBVCObject@@AAPAU__POSITION@@@Z 00758aa0 f   nafxcwd:afxinl1.obj
 0002:000aeb10       ?GetPrev@CObList@@QAEAAPAVCObject@@AAPAU__POSITION@@@Z 00758b10 f   nafxcwd:afxinl1.obj
 0002:000aeb80       ?GetPrev@CObList@@QBEPBVCObject@@AAPAU__POSITION@@@Z 00758b80 f   nafxcwd:afxinl1.obj
 0002:000aebf0       ?GetAt@CObList@@QAEAAPAVCObject@@PAU__POSITION@@@Z 00758bf0 f   nafxcwd:afxinl1.obj
 0002:000aec50       ?GetAt@CObList@@QBEPBVCObject@@PAU__POSITION@@@Z 00758c50 f   nafxcwd:afxinl1.obj
 0002:000aecb0       ?SetAt@CObList@@QAEXPAU__POSITION@@PAVCObject@@@Z 00758cb0 f   nafxcwd:afxinl1.obj
 0002:000aed20       ?GetCount@CStringList@@QBEHXZ 00758d20 f   nafxcwd:afxinl1.obj
 0002:000aed40       ?GetSize@CStringList@@QBEHXZ 00758d40 f   nafxcwd:afxinl1.obj
 0002:000aed60       ?IsEmpty@CStringList@@QBEHXZ 00758d60 f   nafxcwd:afxinl1.obj
 0002:000aed90       ?GetHead@CStringList@@QAEAAV?$CStringT@DV?$StrTraitMFC@DV?$ChTraitsCRT@D@ATL@@@@@ATL@@XZ 00758d90 f   nafxcwd:afxinl1.obj
 0002:000aedd0       ?GetHead@CStringList@@QBEABV?$CStringT@DV?$StrTraitMFC@DV?$ChTraitsCRT@D@ATL@@@@@ATL@@XZ 00758dd0 f   nafxcwd:afxinl1.obj
 0002:000aee10       ?GetTail@CStringList@@QAEAAV?$CStringT@DV?$StrTraitMFC@DV?$ChTraitsCRT@D@ATL@@@@@ATL@@XZ 00758e10 f   nafxcwd:afxinl1.obj
 0002:000aee50       ?GetTail@CStringList@@QBEABV?$CStringT@DV?$StrTraitMFC@DV?$ChTraitsCRT@D@ATL@@@@@ATL@@XZ 00758e50 f   nafxcwd:afxinl1.obj
 0002:000aee90       ?GetHeadPosition@CStringList@@QBEPAU__POSITION@@XZ 00758e90 f   nafxcwd:afxinl1.obj
 0002:000aeeb0       ?GetTailPosition@CStringList@@QBEPAU__POSITION@@XZ 00758eb0 f   nafxcwd:afxinl1.obj
 0002:000aeed0       ?GetNext@CStringList@@QAEAAV?$CStringT@DV?$StrTraitMFC@DV?$ChTraitsCRT@D@ATL@@@@@ATL@@AAPAU__POSITION@@@Z 00758ed0 f   nafxcwd:afxinl1.obj
 0002:000aef40       ?GetNext@CStringList@@QBEABV?$CStringT@DV?$StrTraitMFC@DV?$ChTraitsCRT@D@ATL@@@@@ATL@@AAPAU__POSITION@@@Z 00758f40 f   nafxcwd:afxinl1.obj
 0002:000aefb0       ?GetPrev@CStringList@@QAEAAV?$CStringT@DV?$StrTraitMFC@DV?$ChTraitsCRT@D@ATL@@@@@ATL@@AAPAU__POSITION@@@Z 00758fb0 f   nafxcwd:afxinl1.obj
 0002:000af020       ?GetPrev@CStringList@@QBEABV?$CStringT@DV?$StrTraitMFC@DV?$ChTraitsCRT@D@ATL@@@@@ATL@@AAPAU__POSITION@@@Z 00759020 f   nafxcwd:afxinl1.obj
 0002:000af090       ?GetAt@CStringList@@QAEAAV?$CStringT@DV?$StrTraitMFC@DV?$ChTraitsCRT@D@ATL@@@@@ATL@@PAU__POSITION@@@Z 00759090 f   nafxcwd:afxinl1.obj
 0002:000af0f0       ?GetAt@CStringList@@QBEABV?$CStringT@DV?$StrTraitMFC@DV?$ChTraitsCRT@D@ATL@@@@@ATL@@PAU__POSITION@@@Z 007590f0 f   nafxcwd:afxinl1.obj
 0002:000af150       ?SetAt@CStringList@@QAEXPAU__POSITION@@PBD@Z 00759150 f   nafxcwd:afxinl1.obj
 0002:000af1c0       ?SetAt@CStringList@@QAEXPAU__POSITION@@ABV?$CStringT@DV?$StrTraitMFC@DV?$ChTraitsCRT@D@ATL@@@@@ATL@@@Z 007591c0 f   nafxcwd:afxinl1.obj
 0002:000af230       ?GetCount@CMapWordToPtr@@QBEHXZ 00759230 f   nafxcwd:afxinl1.obj
 0002:000af250       ?GetSize@CMapWordToPtr@@QBEHXZ 00759250 f   nafxcwd:afxinl1.obj
 0002:000af270       ?IsEmpty@CMapWordToPtr@@QBEHXZ 00759270 f   nafxcwd:afxinl1.obj
 0002:000af2a0       ?SetAt@CMapWordToPtr@@QAEXGPAX@Z 007592a0 f   nafxcwd:afxinl1.obj
 0002:000af2d0       ?GetStartPosition@CMapWordToPtr@@QBEPAU__POSITION@@XZ 007592d0 f   nafxcwd:afxinl1.obj
 0002:000af2f0       ?GetHashTableSize@CMapWordToPtr@@QBEIXZ 007592f0 f   nafxcwd:afxinl1.obj
 0002:000af310       ?GetCount@CMapPtrToWord@@QBEHXZ 00759310 f   nafxcwd:afxinl1.obj
 0002:000af330       ?GetSize@CMapPtrToWord@@QBEHXZ 00759330 f   nafxcwd:afxinl1.obj
 0002:000af350       ?IsEmpty@CMapPtrToWord@@QBEHXZ 00759350 f   nafxcwd:afxinl1.obj
 0002:000af380       ?SetAt@CMapPtrToWord@@QAEXPAXG@Z 00759380 f   nafxcwd:afxinl1.obj
 0002:000af3b0       ?GetStartPosition@CMapPtrToWord@@QBEPAU__POSITION@@XZ 007593b0 f   nafxcwd:afxinl1.obj
 0002:000af3d0       ?GetHashTableSize@CMapPtrToWord@@QBEIXZ 007593d0 f   nafxcwd:afxinl1.obj
 0002:000af3f0       ?GetCount@CMapPtrToPtr@@QBEHXZ 007593f0 f   nafxcwd:afxinl1.obj
 0002:000af410       ?GetSize@CMapPtrToPtr@@QBEHXZ 00759410 f   nafxcwd:afxinl1.obj
 0002:000af430       ?IsEmpty@CMapPtrToPtr@@QBEHXZ 00759430 f   nafxcwd:afxinl1.obj
 0002:000af460       ?SetAt@CMapPtrToPtr@@QAEXPAX0@Z 00759460 f   nafxcwd:afxinl1.obj
 0002:000af490       ?GetStartPosition@CMapPtrToPtr@@QBEPAU__POSITION@@XZ 00759490 f   nafxcwd:afxinl1.obj
 0002:000af4b0       ?GetHashTableSize@CMapPtrToPtr@@QBEIXZ 007594b0 f   nafxcwd:afxinl1.obj
 0002:000af4d0       ?GetCount@CMapWordToOb@@QBEHXZ 007594d0 f   nafxcwd:afxinl1.obj
 0002:000af4f0       ?GetSize@CMapWordToOb@@QBEHXZ 007594f0 f   nafxcwd:afxinl1.obj
 0002:000af510       ?IsEmpty@CMapWordToOb@@QBEHXZ 00759510 f   nafxcwd:afxinl1.obj
 0002:000af540       ?SetAt@CMapWordToOb@@QAEXGPAVCObject@@@Z 00759540 f   nafxcwd:afxinl1.obj
 0002:000af570       ?GetStartPosition@CMapWordToOb@@QBEPAU__POSITION@@XZ 00759570 f   nafxcwd:afxinl1.obj
 0002:000af590       ?GetHashTableSize@CMapWordToOb@@QBEIXZ 00759590 f   nafxcwd:afxinl1.obj
 0002:000af5b0       ?GetCount@CMapStringToPtr@@QBEHXZ 007595b0 f   nafxcwd:afxinl1.obj
 0002:000af5d0       ?GetSize@CMapStringToPtr@@QBEHXZ 007595d0 f   nafxcwd:afxinl1.obj
 0002:000af5f0       ?IsEmpty@CMapStringToPtr@@QBEHXZ 007595f0 f   nafxcwd:afxinl1.obj
 0002:000af620       ?SetAt@CMapStringToPtr@@QAEXPBDPAX@Z 00759620 f   nafxcwd:afxinl1.obj
 0002:000af650       ?GetStartPosition@CMapStringToPtr@@QBEPAU__POSITION@@XZ 00759650 f   nafxcwd:afxinl1.obj
 0002:000af670       ?GetHashTableSize@CMapStringToPtr@@QBEIXZ 00759670 f   nafxcwd:afxinl1.obj
 0002:000af690       ?GetCount@CMapStringToOb@@QBEHXZ 00759690 f   nafxcwd:afxinl1.obj
 0002:000af6b0       ?GetSize@CMapStringToOb@@QBEHXZ 007596b0 f   nafxcwd:afxinl1.obj
 0002:000af6d0       ?IsEmpty@CMapStringToOb@@QBEHXZ 007596d0 f   nafxcwd:afxinl1.obj
 0002:000af700       ?SetAt@CMapStringToOb@@QAEXPBDPAVCObject@@@Z 00759700 f   nafxcwd:afxinl1.obj
 0002:000af730       ?GetStartPosition@CMapStringToOb@@QBEPAU__POSITION@@XZ 00759730 f   nafxcwd:afxinl1.obj
 0002:000af750       ?GetHashTableSize@CMapStringToOb@@QBEIXZ 00759750 f   nafxcwd:afxinl1.obj
 0002:000af770       ?GetCount@CMapStringToString@@QBEHXZ 00759770 f   nafxcwd:afxinl1.obj
 0002:000af790       ?GetSize@CMapStringToString@@QBEHXZ 00759790 f   nafxcwd:afxinl1.obj
 0002:000af7b0       ?IsEmpty@CMapStringToString@@QBEHXZ 007597b0 f   nafxcwd:afxinl1.obj
 0002:000af7e0       ?SetAt@CMapStringToString@@QAEXPBD0@Z 007597e0 f   nafxcwd:afxinl1.obj
 0002:000af810       ?GetStartPosition@CMapStringToString@@QBEPAU__POSITION@@XZ 00759810 f   nafxcwd:afxinl1.obj
 0002:000af830       ?GetHashTableSize@CMapStringToString@@QBEIXZ 00759830 f   nafxcwd:afxinl1.obj
 0002:000af850       ??0CCommonDialog@@QAE@PAVCWnd@@@Z 00759850 f   nafxcwd:afxinl1.obj
 0002:000af890       ?GetReadOnlyPref@CFileDialog@@QBEHXZ 00759890 f   nafxcwd:afxinl1.obj
 0002:000af8c0       ?SetTemplate@CFileDialog@@QAEXII@Z 007598c0 f   nafxcwd:afxinl1.obj
 0002:000af8f0       ?GetStartPosition@CFileDialog@@QBEPAU__POSITION@@XZ 007598f0 f   nafxcwd:afxinl1.obj
 0002:000af910       ?GetFaceName@CFontDialog@@QBE?AV?$CStringT@DV?$StrTraitMFC@DV?$ChTraitsCRT@D@ATL@@@@@ATL@@XZ 00759910 f   nafxcwd:afxinl1.obj
 0002:000af960       ?GetStyleName@CFontDialog@@QBE?AV?$CStringT@DV?$StrTraitMFC@DV?$ChTraitsCRT@D@ATL@@@@@ATL@@XZ 00759960 f   nafxcwd:afxinl1.obj
 0002:000af9b0       ?GetSize@CFontDialog@@QBEHXZ 007599b0 f   nafxcwd:afxinl1.obj
 0002:000af9d0       ?GetWeight@CFontDialog@@QBEHXZ 007599d0 f   nafxcwd:afxinl1.obj
 0002:000af9f0       ?IsItalic@CFontDialog@@QBEHXZ 007599f0 f   nafxcwd:afxinl1.obj
 0002:000afa20       ?IsStrikeOut@CFontDialog@@QBEHXZ 00759a20 f   nafxcwd:afxinl1.obj
 0002:000afa50       ?IsBold@CFontDialog@@QBEHXZ 00759a50 f   nafxcwd:afxinl1.obj
 0002:000afa80       ?IsUnderline@CFontDialog@@QBEHXZ 00759a80 f   nafxcwd:afxinl1.obj
 0002:000afab0       ?GetColor@CFontDialog@@QBEKXZ 00759ab0 f   nafxcwd:afxinl1.obj
 0002:000afad0       ?GetColor@CColorDialog@@QBEKXZ 00759ad0 f   nafxcwd:afxinl1.obj
 0002:000afaf0       ?PrintSelection@CPrintDialog@@QBEHXZ 00759af0 f   nafxcwd:afxinl1.obj
 0002:000afb20       ?PrintRange@CPrintDialog@@QBEHXZ 00759b20 f   nafxcwd:afxinl1.obj
 0002:000afb50       ?PrintAll@CPrintDialog@@QBEHXZ 00759b50 f   nafxcwd:afxinl1.obj
 0002:000afba0       ?PrintCollate@CPrintDialog@@QBEHXZ 00759ba0 f   nafxcwd:afxinl1.obj
 0002:000afbd0       ?GetFromPage@CPrintDialog@@QBEHXZ 00759bd0 f   nafxcwd:afxinl1.obj
 0002:000afc20       ?GetToPage@CPrintDialog@@QBEHXZ 00759c20 f   nafxcwd:afxinl1.obj
 0002:000afc70       ?GetPrinterDC@CPrintDialog@@QBEPAUHDC__@@XZ 00759c70 f   nafxcwd:afxinl1.obj
 0002:000afcd0       ?PrintSelection@CPrintDialogEx@@QBEHXZ 00759cd0 f   nafxcwd:afxinl1.obj
 0002:000afd00       ?PrintRange@CPrintDialogEx@@QBEHXZ 00759d00 f   nafxcwd:afxinl1.obj
 0002:000afd30       ?PrintCurrentPage@CPrintDialogEx@@QBEHXZ 00759d30 f   nafxcwd:afxinl1.obj
 0002:000afd60       ?PrintAll@CPrintDialogEx@@QBEHXZ 00759d60 f   nafxcwd:afxinl1.obj
 0002:000afdc0       ?PrintCollate@CPrintDialogEx@@QBEHXZ 00759dc0 f   nafxcwd:afxinl1.obj
 0002:000afdf0       ?GetPrinterDC@CPrintDialogEx@@QBEPAUHDC__@@XZ 00759df0 f   nafxcwd:afxinl1.obj
 0002:000afe50       ?IsTerminating@CFindReplaceDialog@@QBEHXZ 00759e50 f   nafxcwd:afxinl1.obj
 0002:000afe80       ?GetReplaceString@CFindReplaceDialog@@QBE?AV?$CStringT@DV?$StrTraitMFC@DV?$ChTraitsCRT@D@ATL@@@@@ATL@@XZ 00759e80 f   nafxcwd:afxinl1.obj
 0002:000afed0       ?GetFindString@CFindReplaceDialog@@QBE?AV?$CStringT@DV?$StrTraitMFC@DV?$ChTraitsCRT@D@ATL@@@@@ATL@@XZ 00759ed0 f   nafxcwd:afxinl1.obj
 0002:000aff20       ?SearchDown@CFindReplaceDialog@@QBEHXZ 00759f20 f   nafxcwd:afxinl1.obj
 0002:000aff50       ?FindNext@CFindReplaceDialog@@QBEHXZ 00759f50 f   nafxcwd:afxinl1.obj
 0002:000aff80       ?MatchCase@CFindReplaceDialog@@QBEHXZ 00759f80 f   nafxcwd:afxinl1.obj
 0002:000affb0       ?MatchWholeWord@CFindReplaceDialog@@QBEHXZ 00759fb0 f   nafxcwd:afxinl1.obj
 0002:000affe0       ?ReplaceCurrent@CFindReplaceDialog@@QBEHXZ 00759fe0 f   nafxcwd:afxinl1.obj
 0002:000b0010       ?ReplaceAll@CFindReplaceDialog@@QBEHXZ 0075a010 f   nafxcwd:afxinl1.obj
 0002:000b0040       ?MapDialogRect@CPropertySheet@@QBEXPAUtagRECT@@@Z 0075a040 f   nafxcwd:afxinl1.obj
 0002:000b00a0       ?GetPage@CPropertySheet@@QBEPAVCPropertyPage@@H@Z 0075a0a0 f   nafxcwd:afxinl1.obj
 0002:000b0130       ?SetWizardMode@CPropertySheet@@QAEXXZ 0075a130 f   nafxcwd:afxinl1.obj
 0002:000b0160       ?SetFinishText@CPropertySheet@@QAEXPBD@Z 0075a160 f   nafxcwd:afxinl1.obj
 0002:000b01c0       ?SetWizardButtons@CPropertySheet@@QAEXK@Z 0075a1c0 f   nafxcwd:afxinl1.obj
 0002:000b0220       ?GetTabControl@CPropertySheet@@QBEPAVCTabCtrl@@XZ 0075a220 f   nafxcwd:afxinl1.obj
 0002:000b0280       ?PressButton@CPropertySheet@@QAEXH@Z 0075a280 f   nafxcwd:afxinl1.obj
 0002:000b0300       ?IsWizard@CPropertySheet@@QBEHXZ 0075a300 f   nafxcwd:afxinl1.obj
 0002:000b0330       ?IsModeless@CPropertySheet@@QBEHXZ 0075a330 f   nafxcwd:afxinl1.obj
 0002:000b0350       ?GetPaperSize@CPageSetupDialog@@QBE?AVCSize@@XZ 0075a350 f   nafxcwd:afxinl1.obj
 0002:000b0390       ??0CCreateContext@@QAE@XZ  0075a390 f   nafxcwd:afxinl1.obj
 0002:000b03c0       ?Create@CMetaFileDC@@QAEHPBD@Z 0075a3c0 f   nafxcwd:afxinl1.obj
 0002:000b03f0       ?Close@CMetaFileDC@@QAEPAUHMETAFILE__@@XZ 0075a3f0 f   nafxcwd:afxinl1.obj
 0002:000b0420       ?CreateEnhanced@CMetaFileDC@@QAEHPAVCDC@@PBDPBUtagRECT@@1@Z 0075a420 f   nafxcwd:afxinl1.obj
 0002:000b0460       ?CloseEnhanced@CMetaFileDC@@QAEPAUHENHMETAFILE__@@XZ 0075a460 f   nafxcwd:afxinl1.obj
 0002:000b0490       ?SetViewportOrg@CMetaFileDC@@QAE?AVCPoint@@UtagPOINT@@@Z 0075a490 f   nafxcwd:afxinl1.obj
 0002:000b04f0       ?SetViewportExt@CMetaFileDC@@QAE?AVCSize@@UtagSIZE@@@Z 0075a4f0 f   nafxcwd:afxinl1.obj
 0002:000b0550       ?TextOutA@CMetaFileDC@@QAEHHHABV?$CStringT@DV?$StrTraitMFC@DV?$ChTraitsCRT@D@ATL@@@@@ATL@@@Z 0075a550 f   nafxcwd:afxinl1.obj
 0002:000b05c0       ?ExtTextOutA@CMetaFileDC@@QAEHHHIPBUtagRECT@@ABV?$CStringT@DV?$StrTraitMFC@DV?$ChTraitsCRT@D@ATL@@@@@ATL@@PAH@Z 0075a5c0 f   nafxcwd:afxinl1.obj
 0002:000b0640       ?TabbedTextOutA@CMetaFileDC@@QAE?AVCSize@@HHABV?$CStringT@DV?$StrTraitMFC@DV?$ChTraitsCRT@D@ATL@@@@@ATL@@HPAHH@Z 0075a640 f   nafxcwd:afxinl1.obj
 0002:000b06d0       ?DrawTextA@CMetaFileDC@@QAEHABV?$CStringT@DV?$StrTraitMFC@DV?$ChTraitsCRT@D@ATL@@@@@ATL@@PAUtagRECT@@I@Z 0075a6d0 f   nafxcwd:afxinl1.obj
 0002:000b0740       ?DrawTextExA@CMetaFileDC@@QAEHABV?$CStringT@DV?$StrTraitMFC@DV?$ChTraitsCRT@D@ATL@@@@@ATL@@PAUtagRECT@@IPAUtagDRAWTEXTPARAMS@@@Z 0075a740 f   nafxcwd:afxinl1.obj
 0002:000b07b0       ?DrawText@CMetaFileDC@@QAEHPBDHPAUtagRECT@@I@Z 0075a7b0 f   nafxcwd:afxinl1.obj
 0002:000b07f0       ?DrawText@CMetaFileDC@@QAEHABV?$CStringT@DV?$StrTraitMFC@DV?$ChTraitsCRT@D@ATL@@@@@ATL@@PAUtagRECT@@I@Z 0075a7f0 f   nafxcwd:afxinl1.obj
 0002:000b0820       ?DrawTextEx@CMetaFileDC@@QAEHPADHPAUtagRECT@@IPAUtagDRAWTEXTPARAMS@@@Z 0075a820 f   nafxcwd:afxinl1.obj
 0002:000b0860       ?DrawTextEx@CMetaFileDC@@QAEHABV?$CStringT@DV?$StrTraitMFC@DV?$ChTraitsCRT@D@ATL@@@@@ATL@@PAUtagRECT@@IPAUtagDRAWTEXTPARAMS@@@Z 0075a860 f   nafxcwd:afxinl1.obj
 0002:000b0890       ?PtVisible@CMetaFileDC@@QBEHUtagPOINT@@@Z 0075a890 f   nafxcwd:afxinl1.obj
 0002:000b08e0       ?GetRowCount@CSplitterWnd@@QBEHXZ 0075a8e0 f   nafxcwd:afxinl1.obj
 0002:000b0900       ?GetColumnCount@CSplitterWnd@@QBEHXZ 0075a900 f   nafxcwd:afxinl1.obj
 0002:000b0920       ?IsChildPane@CSplitterWnd@@QAEHPAVCWnd@@AAH1@Z 0075a920 f   nafxcwd:afxinl1.obj
 0002:000b0950       ?GetActivePane@CSplitterWnd@@IAEPAVCWnd@@AAH0@Z 0075a950 f   nafxcwd:afxinl1.obj
 0002:000b0980       ?IsTracking@CSplitterWnd@@QAEHXZ 0075a980 f   nafxcwd:afxinl1.obj
 0002:000b09a0       ?GetCount@CControlBar@@QBEHXZ 0075a9a0 f   nafxcwd:afxinl1.obj
 0002:000b09c0       ?GetBarStyle@CControlBar@@QAEKXZ 0075a9c0 f   nafxcwd:afxinl1.obj
 0002:000b09e0       ?SetBorders@CControlBar@@QAEXPBUtagRECT@@@Z 0075a9e0 f   nafxcwd:afxinl1.obj
 0002:000b0a20       ?GetBorders@CControlBar@@QBE?AVCRect@@XZ 0075aa20 f   nafxcwd:afxinl1.obj
 0002:000b0a70       ?LoadToolBar@CToolBar@@QAEHI@Z 0075aa70 f   nafxcwd:afxinl1.obj
 0002:000b0aa0       ?LoadBitmapA@CToolBar@@QAEHI@Z 0075aaa0 f   nafxcwd:afxinl1.obj
 0002:000b0ad0       ?GetToolBarCtrl@CToolBar@@QBEAAVCToolBarCtrl@@XZ 0075aad0 f   nafxcwd:afxinl1.obj
 0002:000b0af0       ?Create@CDialogBar@@UAEHPAVCWnd@@III@Z 0075aaf0 f   nafxcwd:afxinl1.obj
 0002:000b0b30       ?GetStatusBarCtrl@CStatusBar@@QBEAAVCStatusBarCtrl@@XZ 0075ab30 f   nafxcwd:afxinl1.obj
 0002:000b0b50       ?SetBorders@CStatusBar@@QAEXPBUtagRECT@@@Z 0075ab50 f   nafxcwd:afxinl1.obj
 0002:000b0b90       ?SetBorders@CStatusBar@@QAEXHHHH@Z 0075ab90 f   nafxcwd:afxinl1.obj
 0002:000b0be0       ?EnableDocking@CStatusBar@@QAEXK@Z 0075abe0 f   nafxcwd:afxinl1.obj
 0002:000b0c10       ?GetReBarCtrl@CReBar@@QBEAAVCReBarCtrl@@XZ 0075ac10 f   nafxcwd:afxinl1.obj
 0002:000b0c30       ?GetReBarBandInfoSize@CReBar@@QBEIXZ 0075ac30 f   nafxcwd:afxinl1.obj
 0002:000b0c50       ?EnableDocking@CReBar@@QAEXK@Z 0075ac50 f   nafxcwd:afxinl1.obj
 0002:000b0c80       ??0CRectTracker@@QAE@XZ    0075ac80 f   nafxcwd:afxinl1.obj
 0002:000b0ce0       ??_ECRectTracker@@UAEPAXI@Z 0075ace0 f i nafxcwd:afxinl1.obj
 0002:000b0ce0       ??_GCRectTracker@@UAEPAXI@Z 0075ace0 f i nafxcwd:afxinl1.obj
 0002:000b0d20       ??0CBitmapButton@@QAE@XZ   0075ad20 f   nafxcwd:afxinl1.obj
 0002:000b0de0       ??_GCBitmapButton@@UAEPAXI@Z 0075ade0 f i nafxcwd:afxinl1.obj
 0002:000b0de0       ??_ECBitmapButton@@UAEPAXI@Z 0075ade0 f i nafxcwd:afxinl1.obj
 0002:000b0e20       ??1CBitmapButton@@UAE@XZ   0075ae20 f i nafxcwd:afxinl1.obj
 0002:000b0ed0       ?LoadBitmaps@CBitmapButton@@QAEHIIII@Z 0075aed0 f   nafxcwd:afxinl1.obj
 0002:000b0f10       ?SetMinPage@CPrintInfo@@QAEXI@Z 0075af10 f   nafxcwd:afxinl1.obj
 0002:000b0f40       ?SetMaxPage@CPrintInfo@@QAEXI@Z 0075af40 f   nafxcwd:afxinl1.obj
 0002:000b0f70       ?GetMinPage@CPrintInfo@@QBEIXZ 0075af70 f   nafxcwd:afxinl1.obj
 0002:000b0fa0       ?GetMaxPage@CPrintInfo@@QBEIXZ 0075afa0 f   nafxcwd:afxinl1.obj
 0002:000b0fd0       ?GetFromPage@CPrintInfo@@QBEIXZ 0075afd0 f   nafxcwd:afxinl1.obj
 0002:000b1000       ?GetToPage@CPrintInfo@@QBEIXZ 0075b000 f   nafxcwd:afxinl1.obj
 0002:000b1030       ?GetEditCtrl@CEditView@@QBEAAVCEdit@@XZ 0075b030 f   nafxcwd:afxinl1.obj
 0002:000b1050       ??_ECCommonDialog@@UAEPAXI@Z 0075b050 f i nafxcwd:afxinl1.obj
 0002:000b1050       ??_GCCommonDialog@@UAEPAXI@Z 0075b050 f i nafxcwd:afxinl1.obj
 0002:000b1090       ??1CCommonDialog@@UAE@XZ   0075b090 f i nafxcwd:afxinl1.obj
 0002:000b10c0       ??3CException@@SGXPAX@Z    0075b0c0 f   nafxcwd:except.obj
 0002:000b1140       ??3CException@@SGXPAXPBDH@Z 0075b140 f   nafxcwd:except.obj
 0002:000b1160       ??0CException@@QAE@XZ      0075b160 f   nafxcwd:except.obj
 0002:000b11b0       ??0CException@@QAE@H@Z     0075b1b0 f   nafxcwd:except.obj
 0002:000b1200       ?Delete@CException@@QAEXXZ 0075b200 f   nafxcwd:except.obj
 0002:000b1270       ?GetErrorMessage@CException@@UBEHPADIPAI@Z 0075b270 f   nafxcwd:except.obj
 0002:000b12b0       ?GetErrorMessage@CException@@UAEHPADIPAI@Z 0075b2b0 f   nafxcwd:except.obj
 0002:000b12f0       ?ReportError@CException@@UAEHII@Z 0075b2f0 f   nafxcwd:except.obj
 0002:000b13c0       ??0AFX_EXCEPTION_LINK@@QAE@XZ 0075b3c0 f   nafxcwd:except.obj
 0002:000b1410       ?AfxGetExceptionContext@@YAPAUAFX_EXCEPTION_CONTEXT@@XZ 0075b410 f i nafxcwd:except.obj
 0002:000b1450       ?AfxTryCleanup@@YGXXZ      0075b450 f   nafxcwd:except.obj
 0002:000b14d0       ?AfxThrowLastCleanup@@YGXXZ 0075b4d0 f   nafxcwd:except.obj
 0002:000b1510       ?GetRuntimeClass@CException@@UBEPAUCRuntimeClass@@XZ 0075b510 f   nafxcwd:except.obj
 0002:000b1530       ?GetRuntimeClass@CSimpleException@@UBEPAUCRuntimeClass@@XZ 0075b530 f   nafxcwd:except.obj
 0002:000b1550       ?GetRuntimeClass@CMemoryException@@UBEPAUCRuntimeClass@@XZ 0075b550 f   nafxcwd:except.obj
 0002:000b1570       ?GetRuntimeClass@CNotSupportedException@@UBEPAUCRuntimeClass@@XZ 0075b570 f   nafxcwd:except.obj
 0002:000b1590       ?GetRuntimeClass@CInvalidArgException@@UBEPAUCRuntimeClass@@XZ 0075b590 f   nafxcwd:except.obj
 0002:000b15b0       ?InitString@CSimpleException@@QAEXXZ 0075b5b0 f   nafxcwd:except.obj
 0002:000b1600       ?GetErrorMessage@CSimpleException@@UBEHPADIPAI@Z 0075b600 f   nafxcwd:except.obj
 0002:000b16c0       ?AfxThrowMemoryException@@YGXXZ 0075b6c0 f   nafxcwd:except.obj
 0002:000b16f0       ?AfxThrowNotSupportedException@@YGXXZ 0075b6f0 f   nafxcwd:except.obj
 0002:000b1720       ?AfxThrowInvalidArgException@@YGXXZ 0075b720 f   nafxcwd:except.obj
 0002:000b1750       ??C?$CThreadLocal@V_AFX_THREAD_STATE@@@@QAEPAV_AFX_THREAD_STATE@@XZ 0075b750 f i nafxcwd:except.obj
 0002:000b1770       ?GetData@?$CThreadLocal@V_AFX_THREAD_STATE@@@@QAEPAV_AFX_THREAD_STATE@@XZ 0075b770 f i nafxcwd:except.obj
 0002:000b17e0       ?CreateObject@?$CThreadLocal@V_AFX_THREAD_STATE@@@@SGPAVCNoTrackObject@@XZ 0075b7e0 f i nafxcwd:except.obj
 0002:000b1880       ?tcsncpy_s@Checked@ATL@@YAHPADIPBDI@Z 0075b880 f i nafxcwd:except.obj
 0002:000b18c0       __tcsncpy_s                0075b8c0 f i nafxcwd:except.obj
 0002:000b18f0       ?AfxGetScodeString@@YGPBDJ@Z 0075b8f0 f   nafxcwd:olemisc.obj
 0002:000b1950       ?AfxGetScodeRangeString@@YGPBDJ@Z 0075b950 f   nafxcwd:olemisc.obj
 0002:000b19c0       ?AfxGetSeverityString@@YGPBDJ@Z 0075b9c0 f   nafxcwd:olemisc.obj
 0002:000b19e0       ?AfxGetFacilityString@@YGPBDJ@Z 0075b9e0 f   nafxcwd:olemisc.obj
 0002:000b1a20       ?AfxGetFullScodeString@@YGPBDJ@Z 0075ba20 f   nafxcwd:olemisc.obj
 0002:000b1b70       ?AfxThrowOleException@@YGXJ@Z 0075bb70 f   nafxcwd:olemisc.obj
 0002:000b1c80       ?GetErrorMessage@COleException@@UBEHPADIPAI@Z 0075bc80 f   nafxcwd:olemisc.obj
 0002:000b1d50       ?Process@COleException@@SGJPBVCException@@@Z 0075bd50 f   nafxcwd:olemisc.obj
 0002:000b1dd0       ?AfxMergeMenus@@YGPAUHMENU__@@PAU1@0PAJHH@Z 0075bdd0 f   nafxcwd:olemisc.obj
 0002:000b2250       ?AfxUnmergeMenus@@YGXPAUHMENU__@@00@Z 0075c250 f   nafxcwd:olemisc.obj
 0002:000b2440       ?_AfxFillFormatEtc@@YGPAUtagFORMATETC@@PAU1@G0@Z 0075c440 f   nafxcwd:olemisc.obj
 0002:000b24f0       ?_AfxCopyGlobalMemory@@YGPAXPAX0@Z 0075c4f0 f   nafxcwd:olemisc.obj
 0002:000b2630       ?_AfxCopyStgMedium@@YGHGPAUtagSTGMEDIUM@@0@Z 0075c630 f   nafxcwd:olemisc.obj
 0002:000b2e70       ?_AfxOleGetObjectDescriptorData@@YGPAXU_GUID@@KUtagSIZE@@U_POINTL@@KPB_W3@Z 0075ce70 f   nafxcwd:olemisc.obj
 0002:000b3060       ?_AfxOleGetObjectDescriptorData@@YGPAXPAUIOleObject@@PB_WKU_POINTL@@PAUtagSIZE@@@Z 0075d060 f   nafxcwd:olemisc.obj
 0002:000b3580       ??1?$CComHeapPtr@_W@ATL@@QAE@XZ 0075d580 f i nafxcwd:olemisc.obj
 0002:000b35a0       ??1?$CComPtr@UIMoniker@@@ATL@@QAE@XZ 0075d5a0 f i nafxcwd:olemisc.obj
 0002:000b35c0       ??1?$CComQIPtr@UIViewObject2@@$1?_GUID_00000127_0000_0000_c000_000000000046@@3U__s_GUID@@B@ATL@@QAE@XZ 0075d5c0 f i nafxcwd:olemisc.obj
 0002:000b35e0       ??1?$CComQIPtr@UIOleLink@@$1?_GUID_0000011d_0000_0000_c000_000000000046@@3U__s_GUID@@B@ATL@@QAE@XZ 0075d5e0 f i nafxcwd:olemisc.obj
 0002:000b3600       ??1?$CComPtr@UIBindCtx@@@ATL@@QAE@XZ 0075d600 f i nafxcwd:olemisc.obj
 0002:000b3620       ??1?$CHeapPtr@_WVCComAllocator@ATL@@@ATL@@QAE@XZ 0075d620 f i nafxcwd:olemisc.obj
 0002:000b3640       ??1?$CComPtr@UIViewObject2@@@ATL@@QAE@XZ 0075d640 f i nafxcwd:olemisc.obj
 0002:000b3660       ??1?$CComPtr@UIOleLink@@@ATL@@QAE@XZ 0075d660 f i nafxcwd:olemisc.obj
 0002:000b3680       ?_AfxOleDoConvert@@YGJPAUIStorage@@ABU_GUID@@@Z 0075d680 f   nafxcwd:olemisc.obj
 0002:000b3850       ?_AfxOleDoTreatAsClass@@YGJPBDABU_GUID@@1@Z 0075d850 f   nafxcwd:olemisc.obj
 0002:000b3940       ?_AfxOleCreateTargetDevice@@YGPAUtagDVTARGETDEVICE@@PAUtagDEVNAMES@@PAU_devicemodeA@@@Z 0075d940 f   nafxcwd:olemisc.obj
 0002:000b3f10       ?_AfxOleCreateTargetDevice@@YGPAUtagDVTARGETDEVICE@@PAUtagPDA@@@Z 0075df10 f   nafxcwd:olemisc.obj
 0002:000b3fc0       ?_AfxOleGetFirstMoniker@@YGPAUIMoniker@@PAU1@@Z 0075dfc0 f   nafxcwd:olemisc.obj
 0002:000b40d0       ?_AfxOleGetLenFilePrefixOfMoniker@@YGKPAUIMoniker@@@Z 0075e0d0 f   nafxcwd:olemisc.obj
 0002:000b4210       ?_AfxOleCopyTargetDevice@@YGPAUtagDVTARGETDEVICE@@PAU1@@Z 0075e210 f   nafxcwd:olemisc.obj
 0002:000b4280       ?_AfxOleCopyFormatEtc@@YGXPAUtagFORMATETC@@0@Z 0075e280 f   nafxcwd:olemisc.obj
 0002:000b4320       ?_AfxOleCreateDC@@YGPAUHDC__@@PAUtagDVTARGETDEVICE@@@Z 0075e320 f   nafxcwd:olemisc.obj
 0002:000b45b0       ?_AfxDeleteMetafilePict@@YGXPAX@Z 0075e5b0 f   nafxcwd:olemisc.obj
 0002:000b45f0       ?_AfxXformSizeInPixelsToHimetric@@YGXPAUHDC__@@PAUtagSIZE@@1@Z 0075e5f0 f   nafxcwd:olemisc.obj
 0002:000b46a0       ?_AfxXformSizeInHimetricToPixels@@YGXPAUHDC__@@PAUtagSIZE@@1@Z 0075e6a0 f   nafxcwd:olemisc.obj
 0002:000b4750       ?GetRuntimeClass@COleException@@UBEPAUCRuntimeClass@@XZ 0075e750 f   nafxcwd:olemisc.obj
 0002:000b4770       ?GetLength@?$CSimpleStringT@_W$0A@@ATL@@QBEHXZ 0075e770 f i nafxcwd:olemisc.obj
 0002:000b4790       ?GetString@?$CSimpleStringT@_W$0A@@ATL@@QBEPB_WXZ 0075e790 f i nafxcwd:olemisc.obj
 0002:000b47b0       ??0?$CStringT@_WV?$StrTraitMFC@_WV?$ChTraitsCRT@_W@ATL@@@@@ATL@@QAE@XZ 0075e7b0 f i nafxcwd:olemisc.obj
 0002:000b47e0       ??0?$CStringT@_WV?$StrTraitMFC@_WV?$ChTraitsCRT@_W@ATL@@@@@ATL@@QAE@PBD@Z 0075e7e0 f i nafxcwd:olemisc.obj
 0002:000b4880       ??1?$CStringT@_WV?$StrTraitMFC@_WV?$ChTraitsCRT@_W@ATL@@@@@ATL@@QAE@XZ 0075e880 f i nafxcwd:olemisc.obj
 0002:000b48a0       ?LoadStringA@?$CStringT@_WV?$StrTraitMFC@_WV?$ChTraitsCRT@_W@ATL@@@@@ATL@@QAEHI@Z 0075e8a0 f i nafxcwd:olemisc.obj
 0002:000b48f0       ??0?$CComHeapPtr@_W@ATL@@QAE@XZ 0075e8f0 f i nafxcwd:olemisc.obj
 0002:000b4910       ?Allocate@?$CHeapPtr@_WVCComAllocator@ATL@@@ATL@@QAE_NI@Z 0075e910 f i nafxcwd:olemisc.obj
 0002:000b4960       ?AtlCoTaskMemCAlloc@ATL@@YAPAXKK@Z 0075e960 f i nafxcwd:olemisc.obj
 0002:000b49b0       ??$AtlMultiply@K@ATL@@YAJPAKKK@Z 0075e9b0 f i nafxcwd:olemisc.obj
 0002:000b4a00       ??1?$CHeapPtrBase@_WVCComAllocator@ATL@@@ATL@@QAE@XZ 0075ea00 f i nafxcwd:olemisc.obj
 0002:000b4a20       ??B?$CHeapPtrBase@_WVCComAllocator@ATL@@@ATL@@QBEPA_WXZ 0075ea20 f i nafxcwd:olemisc.obj
 0002:000b4a40       ??I?$CHeapPtrBase@_WVCComAllocator@ATL@@@ATL@@QAEPAPA_WXZ 0075ea40 f i nafxcwd:olemisc.obj
 0002:000b4aa0       ?Attach@?$CHeapPtrBase@_WVCComAllocator@ATL@@@ATL@@QAEXPA_W@Z 0075eaa0 f i nafxcwd:olemisc.obj
 0002:000b4ad0       ?Detach@?$CHeapPtrBase@_WVCComAllocator@ATL@@@ATL@@QAEPA_WXZ 0075ead0 f i nafxcwd:olemisc.obj
 0002:000b4b00       ??0?$CComPtr@UIMoniker@@@ATL@@QAE@XZ 0075eb00 f i nafxcwd:olemisc.obj
 0002:000b4b20       ??1?$CComPtrBase@UIMoniker@@@ATL@@QAE@XZ 0075eb20 f i nafxcwd:olemisc.obj
 0002:000b4b50       ??I?$CComPtrBase@UIMoniker@@@ATL@@QAEPAPAUIMoniker@@XZ 0075eb50 f i nafxcwd:olemisc.obj
 0002:000b4ba0       ??C?$CComPtrBase@UIMoniker@@@ATL@@QBEPAV?$_NoAddRefReleaseOnCComPtr@UIMoniker@@@1@XZ 0075eba0 f i nafxcwd:olemisc.obj
 0002:000b4bf0       ?_AtlVerifyStackAvailable@_ATL_SAFE_ALLOCA_IMPL@ATL@@YA_NK@Z 0075ebf0 f i nafxcwd:olemisc.obj
 0002:000b4d30       ??0?$CComQIPtr@UIViewObject2@@$1?_GUID_00000127_0000_0000_c000_000000000046@@3U__s_GUID@@B@ATL@@QAE@PAUIUnknown@@@Z 0075ed30 f i nafxcwd:olemisc.obj
 0002:000b4d80       ??1?$CComPtrBase@UIViewObject2@@@ATL@@QAE@XZ 0075ed80 f i nafxcwd:olemisc.obj
 0002:000b4db0       ??B?$CComPtrBase@UIViewObject2@@@ATL@@QBEPAUIViewObject2@@XZ 0075edb0 f i nafxcwd:olemisc.obj
 0002:000b4dd0       ??C?$CComPtrBase@UIViewObject2@@@ATL@@QBEPAV?$_NoAddRefReleaseOnCComPtr@UIViewObject2@@@1@XZ 0075edd0 f i nafxcwd:olemisc.obj
 0002:000b4e20       ??0?$CComQIPtr@UIOleLink@@$1?_GUID_0000011d_0000_0000_c000_000000000046@@3U__s_GUID@@B@ATL@@QAE@PAUIUnknown@@@Z 0075ee20 f i nafxcwd:olemisc.obj
 0002:000b4e70       ??1?$CComPtrBase@UIOleLink@@@ATL@@QAE@XZ 0075ee70 f i nafxcwd:olemisc.obj
 0002:000b4ea0       ??C?$CComPtrBase@UIOleLink@@@ATL@@QBEPAV?$_NoAddRefReleaseOnCComPtr@UIOleLink@@@1@XZ 0075eea0 f i nafxcwd:olemisc.obj
 0002:000b4ef0       ??9?$CComPtrBase@UIOleLink@@@ATL@@QBE_NPAUIOleLink@@@Z 0075eef0 f i nafxcwd:olemisc.obj
 0002:000b4f20       ??0?$CComPtr@UIBindCtx@@@ATL@@QAE@XZ 0075ef20 f i nafxcwd:olemisc.obj
 0002:000b4f40       ??1?$CComPtrBase@UIBindCtx@@@ATL@@QAE@XZ 0075ef40 f i nafxcwd:olemisc.obj
 0002:000b4f70       ?ocslen@@YAHPB_W@Z         0075ef70 f i nafxcwd:olemisc.obj
 0002:000b4f90       ??B?$CComPtrBase@UIBindCtx@@@ATL@@QBEPAUIBindCtx@@XZ 0075ef90 f i nafxcwd:olemisc.obj
 0002:000b4fb0       ??I?$CComPtrBase@UIBindCtx@@@ATL@@QAEPAPAUIBindCtx@@XZ 0075efb0 f i nafxcwd:olemisc.obj
 0002:000b5000       ??0?$CSimpleStringT@_W$0A@@ATL@@QAE@PAUIAtlStringMgr@1@@Z 0075f000 f i nafxcwd:olemisc.obj
 0002:000b50a0       ??1?$CSimpleStringT@_W$0A@@ATL@@QAE@XZ 0075f0a0 f i nafxcwd:olemisc.obj
 0002:000b50d0       ?GetData@?$CSimpleStringT@_W$0A@@ATL@@ABEPAUCStringData@2@XZ 0075f0d0 f i nafxcwd:olemisc.obj
 0002:000b50f0       ??4?$CStringT@_WV?$StrTraitMFC@_WV?$ChTraitsCRT@_W@ATL@@@@@ATL@@QAEAAV01@PBD@Z 0075f0f0 f i nafxcwd:olemisc.obj
 0002:000b5190       ?LoadStringA@?$CStringT@_WV?$StrTraitMFC@_WV?$ChTraitsCRT@_W@ATL@@@@@ATL@@QAEHPAUHINSTANCE__@@I@Z 0075f190 f i nafxcwd:olemisc.obj
 0002:000b5240       ?CheckImplicitLoad@?$CStringT@_WV?$StrTraitMFC@_WV?$ChTraitsCRT@_W@ATL@@@@@ATL@@AAE_NPBX@Z 0075f240 f i nafxcwd:olemisc.obj
 0002:000b52e0       ??0?$CHeapPtr@_WVCComAllocator@ATL@@@ATL@@QAE@XZ 0075f2e0 f i nafxcwd:olemisc.obj
 0002:000b5300       ?AllocateBytes@?$CHeapPtrBase@_WVCComAllocator@ATL@@@ATL@@QAE_NI@Z 0075f300 f i nafxcwd:olemisc.obj
 0002:000b5370       ?Free@?$CHeapPtrBase@_WVCComAllocator@ATL@@@ATL@@QAEXXZ 0075f370 f i nafxcwd:olemisc.obj
 0002:000b53a0       ??0?$CComPtrBase@UIMoniker@@@ATL@@IAE@XZ 0075f3a0 f i nafxcwd:olemisc.obj
 0002:000b53c0       ??0?$CComPtr@UIViewObject2@@@ATL@@QAE@XZ 0075f3c0 f i nafxcwd:olemisc.obj
 0002:000b53e0       ??0?$CComPtr@UIOleLink@@@ATL@@QAE@XZ 0075f3e0 f i nafxcwd:olemisc.obj
 0002:000b5400       ??8?$CComPtrBase@UIOleLink@@@ATL@@QBE_NPAUIOleLink@@@Z 0075f400 f i nafxcwd:olemisc.obj
 0002:000b5430       ??0?$CComPtrBase@UIBindCtx@@@ATL@@IAE@XZ 0075f430 f i nafxcwd:olemisc.obj
 0002:000b5450       ?FindStringResourceInstance@?$StrTraitMFC@_WV?$ChTraitsCRT@_W@ATL@@@@SAPAUHINSTANCE__@@I@Z 0075f450 f i nafxcwd:olemisc.obj
 0002:000b5470       ?GetDefaultManager@?$StrTraitMFC@_WV?$ChTraitsCRT@_W@ATL@@@@SAPAUIAtlStringMgr@ATL@@XZ 0075f470 f i nafxcwd:olemisc.obj
 0002:000b5480       ?AtlDevModeA2W@@YAPAU_devicemodeW@@PAU1@PBU_devicemodeA@@@Z 0075f480 f i nafxcwd:olemisc.obj
 0002:000b56d0       ?AtlA2WHelper@@YGPA_WPA_WPBDHI@Z 0075f6d0 f i nafxcwd:olemisc.obj
 0002:000b57d0       ?Empty@?$CSimpleStringT@_W$0A@@ATL@@QAEXXZ 0075f7d0 f i nafxcwd:olemisc.obj
 0002:000b5860       ?GetBuffer@?$CSimpleStringT@_W$0A@@ATL@@QAEPA_WH@Z 0075f860 f i nafxcwd:olemisc.obj
 0002:000b5890       ?ReleaseBufferSetLength@?$CSimpleStringT@_W$0A@@ATL@@QAEXH@Z 0075f890 f i nafxcwd:olemisc.obj
 0002:000b58f0       ?Attach@?$CSimpleStringT@_W$0A@@ATL@@AAEXPAUCStringData@2@@Z 0075f8f0 f i nafxcwd:olemisc.obj
 0002:000b5920       ??0?$CHeapPtrBase@_WVCComAllocator@ATL@@@ATL@@IAE@XZ 0075f920 f i nafxcwd:olemisc.obj
 0002:000b5940       ??0?$CComPtrBase@UIViewObject2@@@ATL@@IAE@XZ 0075f940 f i nafxcwd:olemisc.obj
 0002:000b5960       ??0?$CComPtrBase@UIOleLink@@@ATL@@IAE@XZ 0075f960 f i nafxcwd:olemisc.obj
 0002:000b5980       ?PrepareWrite@?$CSimpleStringT@_W$0A@@ATL@@AAEPA_WH@Z 0075f980 f i nafxcwd:olemisc.obj
 0002:000b5a00       ?SetLength@?$CSimpleStringT@_W$0A@@ATL@@AAEXH@Z 0075fa00 f i nafxcwd:olemisc.obj
 0002:000b5ad0       ?PrepareWrite2@?$CSimpleStringT@_W$0A@@ATL@@AAEXH@Z 0075fad0 f i nafxcwd:olemisc.obj
 0002:000b5ba0       ?Fork@?$CSimpleStringT@_W$0A@@ATL@@AAEXH@Z 0075fba0 f i nafxcwd:olemisc.obj
 0002:000b5c90       ?Reallocate@?$CSimpleStringT@_W$0A@@ATL@@AAEXH@Z 0075fc90 f i nafxcwd:olemisc.obj
 0002:000b5d50       ?CopyChars@?$CSimpleStringT@_W$0A@@ATL@@SAXPA_WIPB_WH@Z 0075fd50 f i nafxcwd:olemisc.obj
 0002:000b5d80       ?ThrowMemoryException@?$CSimpleStringT@_W$0A@@ATL@@KAXXZ 0075fd80 f i nafxcwd:olemisc.obj
 0002:000b5da0       ?AtlDevModeW2A@@YGPAU_devicemodeA@@PAU1@PBU_devicemodeW@@@Z 0075fda0 f i nafxcwd:olemisc.obj
 0002:000b5f80       ?AtlW2AHelper@@YGPADPADPB_WHI@Z 0075ff80 f i nafxcwd:olemisc.obj
 0002:000b6080       ?AtlCrtErrorCheck@ATL@@YAHH@Z 00760080 f i nafxcwd:olemisc.obj
 0002:000b6160       ?wcscpy_s@Checked@ATL@@YAXPA_WIPB_W@Z 00760160 f i nafxcwd:olemisc.obj
 0002:000b6190       ?GetBaseTypeLength@?$ChTraitsCRT@_W@ATL@@SAHPBD@Z 00760190 f i nafxcwd:olemisc.obj
 0002:000b61c0       ?GetBaseTypeLength@?$ChTraitsCRT@_W@ATL@@SAHPB_WH@Z 007601c0 f i nafxcwd:olemisc.obj
 0002:000b61d0       ?ConvertToBaseType@?$ChTraitsCRT@_W@ATL@@SAXPA_WHPBDH@Z 007601d0 f i nafxcwd:olemisc.obj
 0002:000b6200       ?ConvertToBaseType@?$ChTraitsCRT@_W@ATL@@SAXPA_WHPB_WH@Z 00760200 f i nafxcwd:olemisc.obj
 0002:000b6250       ?wmemcpy_s@Checked@ATL@@YAXPA_WIPB_WI@Z 00760250 f i nafxcwd:olemisc.obj
 0002:000b6290       ?GetBaseTypeLength@?$ChTraitsCRT@_W@ATL@@SAHPB_W@Z 00760290 f i nafxcwd:olemisc.obj
 0002:000b62b0       ?Allocate@CComAllocator@ATL@@SAPAXI@Z 007602b0 f i nafxcwd:olemisc.obj
 0002:000b62d0       ?Free@CComAllocator@ATL@@SAXPAX@Z 007602d0 f i nafxcwd:olemisc.obj
 0002:000b62f0       ??0?$CAtlSafeAllocBufferManager@VCCRTAllocator@ATL@@@_ATL_SAFE_ALLOCA_IMPL@ATL@@QAE@XZ 007602f0 f i nafxcwd:olemisc.obj
 0002:000b6310       ?Allocate@?$CAtlSafeAllocBufferManager@VCCRTAllocator@ATL@@@_ATL_SAFE_ALLOCA_IMPL@ATL@@QAEPAXK@Z 00760310 f i nafxcwd:olemisc.obj
 0002:000b6380       ??1?$CAtlSafeAllocBufferManager@VCCRTAllocator@ATL@@@_ATL_SAFE_ALLOCA_IMPL@ATL@@QAE@XZ 00760380 f i nafxcwd:olemisc.obj
 0002:000b63d0       ??0?$CStringT@DV?$StrTraitMFC@DV?$ChTraitsCRT@D@ATL@@@@@ATL@@QAE@PB_W@Z 007603d0 f i nafxcwd:olemisc.obj
 0002:000b6470       ??4?$CStringT@DV?$StrTraitMFC@DV?$ChTraitsCRT@D@ATL@@@@@ATL@@QAEAAV01@PB_W@Z 00760470 f i nafxcwd:olemisc.obj
 0002:000b6510       ??Y?$CStringT@DV?$StrTraitMFC@DV?$ChTraitsCRT@D@ATL@@@@@ATL@@QAEAAV01@D@Z 00760510 f i nafxcwd:olemisc.obj
 0002:000b6540       ??Y?$CSimpleStringT@D$0A@@ATL@@QAEAAV01@D@Z 00760540 f i nafxcwd:olemisc.obj
 0002:000b6570       ?GetData@CAtlSafeAllocBufferNode@?$CAtlSafeAllocBufferManager@VCCRTAllocator@ATL@@@_ATL_SAFE_ALLOCA_IMPL@ATL@@QAEPAXXZ 00760570 f i nafxcwd:olemisc.obj
 0002:000b6590       ?GetBaseTypeLength@?$ChTraitsCRT@D@ATL@@SAHPB_W@Z 00760590 f i nafxcwd:olemisc.obj
 0002:000b65c0       ?AppendChar@?$CSimpleStringT@D$0A@@ATL@@QAEXD@Z 007605c0 f i nafxcwd:olemisc.obj
 0002:000b6620       ??$AtlAdd@K@ATL@@YAJPAKKK@Z 00760620 f i nafxcwd:olemisc.obj
 0002:000b6660       ??$AtlAddThrow@K@ATL@@YAKKK@Z 00760660 f i nafxcwd:olemisc.obj
 0002:000b66b0       ?AfxLoadString@@YGHIPADI@Z 007606b0 f   nafxcwd:winstr.obj
 0002:000b67a0       ?AfxLoadString@@YGHIPA_WI@Z 007607a0 f   nafxcwd:winstr.obj
 0002:000b68c0       ?AfxFindStringResourceHandle@@YGPAUHINSTANCE__@@I@Z 007608c0 f   nafxcwd:winstr.obj
 0002:000b68e0       ?AfxExtractSubString@@YGHAAV?$CStringT@DV?$StrTraitMFC@DV?$ChTraitsCRT@D@ATL@@@@@ATL@@PBDHD@Z 007608e0 f   nafxcwd:winstr.obj
 0002:000b6a00       __tcschr                   00760a00 f i nafxcwd:winstr.obj
 0002:000b6a20       ?GetBufferSetLength@?$CSimpleStringT@D$0A@@ATL@@QAEPADH@Z 00760a20 f i nafxcwd:winstr.obj
 0002:000b6a60       ?AfxA2WHelper@@YGPA_WPA_WPBDH@Z 00760a60 f   nafxcwd:strcore.obj
 0002:000b6a90       ?AfxW2AHelper@@YGPADPADPB_WH@Z 00760a90 f   nafxcwd:strcore.obj
 0002:000b6ac0       ??$HashKey@VCComBSTR@ATL@@@@YGIVCComBSTR@ATL@@@Z 00760ac0 f   nafxcwd:strcore.obj
 0002:000b6b70       ??$SerializeElements@VCComBSTR@ATL@@@@YGXAAVCArchive@@PAVCComBSTR@ATL@@H@Z 00760b70 f   nafxcwd:strcore.obj
 0002:000b6b90       ??$HashKey@PB_W@@YGIPB_W@Z 00760b90 f   nafxcwd:strcore.obj
 0002:000b6c60       ??$HashKey@PBD@@YGIPBD@Z   00760c60 f   nafxcwd:strcore.obj
 0002:000b6d30       ??$SerializeElements@V?$CStringT@DV?$StrTraitMFC@DV?$ChTraitsCRT@D@ATL@@@@@ATL@@@@YGXAAVCArchive@@PAV?$CStringT@DV?$StrTraitMFC@DV?$ChTraitsCRT@D@ATL@@@@@ATL@@H@Z 00760d30 f   nafxcwd:strcore.obj
 0002:000b6d50       ??$SerializeElements@V?$CStringT@_WV?$StrTraitMFC@_WV?$ChTraitsCRT@_W@ATL@@@@@ATL@@@@YGXAAVCArchive@@PAV?$CStringT@_WV?$StrTraitMFC@_WV?$ChTraitsCRT@_W@ATL@@@@@ATL@@H@Z 00760d50 f   nafxcwd:strcore.obj
 0002:000b6d70       ?AfxGetStringManager@@YGPAUIAtlStringMgr@ATL@@XZ 00760d70 f   nafxcwd:strcore.obj
 0002:000b6d80       ?Allocate@CAfxStringMgr@@UAEPAUCStringData@ATL@@HH@Z 00760d80 f   nafxcwd:strcore.obj
 0002:000b6e50       ?Free@CAfxStringMgr@@UAEXPAUCStringData@ATL@@@Z 00760e50 f   nafxcwd:strcore.obj
 0002:000b6e80       ?Reallocate@CAfxStringMgr@@UAEPAUCStringData@ATL@@PAU23@HH@Z 00760e80 f   nafxcwd:strcore.obj
 0002:000b6f30       ?GetNilString@CAfxStringMgr@@UAEPAUCStringData@ATL@@XZ 00760f30 f   nafxcwd:strcore.obj
 0002:000b6f60       ?Clone@CAfxStringMgr@@UAEPAUIAtlStringMgr@ATL@@XZ 00760f60 f   nafxcwd:strcore.obj
 0002:000b6f80       ??$SerializeElementsInsertExtract@VCComBSTR@ATL@@@@YGXAAVCArchive@@PAVCComBSTR@ATL@@H@Z 00760f80 f i nafxcwd:strcore.obj
 0002:000b70d0       ??$SerializeElementsInsertExtract@V?$CStringT@DV?$StrTraitMFC@DV?$ChTraitsCRT@D@ATL@@@@@ATL@@@@YGXAAVCArchive@@PAV?$CStringT@DV?$StrTraitMFC@DV?$ChTraitsCRT@D@ATL@@@@@ATL@@H@Z 007610d0 f i nafxcwd:strcore.obj
 0002:000b7200       ??$SerializeElementsInsertExtract@V?$CStringT@_WV?$StrTraitMFC@_WV?$ChTraitsCRT@_W@ATL@@@@@ATL@@@@YGXAAVCArchive@@PAV?$CStringT@_WV?$StrTraitMFC@_WV?$ChTraitsCRT@_W@ATL@@@@@ATL@@H@Z 00761200 f i nafxcwd:strcore.obj
 0002:000b7330       ??$?6_WV?$StrTraitMFC@_WV?$ChTraitsCRT@_W@ATL@@@@@CArchive@@QAEAAV0@ABV?$CStringT@_WV?$StrTraitMFC@_WV?$ChTraitsCRT@_W@ATL@@@@@ATL@@@Z 00761330 f i nafxcwd:strcore.obj
 0002:000b7390       ??$?5_WV?$StrTraitMFC@_WV?$ChTraitsCRT@_W@ATL@@@@@CArchive@@QAEAAV0@AAV?$CStringT@_WV?$StrTraitMFC@_WV?$ChTraitsCRT@_W@ATL@@@@@ATL@@@Z 00761390 f i nafxcwd:strcore.obj
 0002:000b75f0       ??B?$CSimpleStringT@_W$0A@@ATL@@QBEPB_WXZ 007615f0 f i nafxcwd:strcore.obj
 0002:000b7610       ??0?$CStringT@_WV?$StrTraitMFC@_WV?$ChTraitsCRT@_W@ATL@@@@@ATL@@QAE@PB_WH@Z 00761610 f i nafxcwd:strcore.obj
 0002:000b7650       ??0?$CStringT@_WV?$StrTraitMFC@_WV?$ChTraitsCRT@_W@ATL@@@@@ATL@@QAE@PBDH@Z 00761650 f i nafxcwd:strcore.obj
 0002:000b77b0       ??4?$CStringT@_WV?$StrTraitMFC@_WV?$ChTraitsCRT@_W@ATL@@@@@ATL@@QAEAAV01@ABV01@@Z 007617b0 f i nafxcwd:strcore.obj
 0002:000b77e0       ??0?$CSimpleStringT@_W$0A@@ATL@@QAE@PB_WHPAUIAtlStringMgr@1@@Z 007617e0 f i nafxcwd:strcore.obj
 0002:000b78e0       ??4?$CSimpleStringT@_W$0A@@ATL@@QAEAAV01@ABV01@@Z 007618e0 f i nafxcwd:strcore.obj
 0002:000b7990       ?SetString@?$CSimpleStringT@_W$0A@@ATL@@QAEXPB_WH@Z 00761990 f i nafxcwd:strcore.obj
 0002:000b7a80       ?CloneData@?$CSimpleStringT@_W$0A@@ATL@@CAPAUCStringData@2@PAU32@@Z 00761a80 f i nafxcwd:strcore.obj
 0002:000b7b60       ?GetAllocLength@?$CSimpleStringT@_W$0A@@ATL@@QBEHXZ 00761b60 f i nafxcwd:strcore.obj
 0002:000b7b80       ?CopyCharsOverlapped@?$CSimpleStringT@_W$0A@@ATL@@SAXPA_WIPB_WH@Z 00761b80 f i nafxcwd:strcore.obj
 0002:000b7bb0       ??0CComBSTR@ATL@@QAE@ABV01@@Z 00761bb0 f i nafxcwd:strcore.obj
 0002:000b7c10       ??BCComBSTR@ATL@@QBEPA_WXZ 00761c10 f i nafxcwd:strcore.obj
 0002:000b7c30       ?Copy@CComBSTR@ATL@@QBEPA_WXZ 00761c30 f i nafxcwd:strcore.obj
 0002:000b7ca0       ??7CComBSTR@ATL@@QBE_NXZ   00761ca0 f i nafxcwd:strcore.obj
 0002:000b7cc0       ??1CComBSTR@ATL@@QAE@XZ    00761cc0 f i nafxcwd:strcore.obj
 0002:000b7ce0       ?GetBaseTypeLength@?$ChTraitsCRT@_W@ATL@@SAHPBDH@Z 00761ce0 f i nafxcwd:strcore.obj
 0002:000b7d10       ??0CAfxStringMgr@@QAE@XZ   00761d10 f i nafxcwd:strcore.obj
 0002:000b7d50       ??0CNilStringData@ATL@@QAE@XZ 00761d50 f i nafxcwd:strcore.obj
 0002:000b7db0       ?SetManager@CNilStringData@ATL@@QAEXPAUIAtlStringMgr@2@@Z 00761db0 f i nafxcwd:strcore.obj
 0002:000b7e00       ??0CFileFind@@QAE@XZ       00761e00 f   nafxcwd:filefind.obj
 0002:000b7e80       ??_ECFileFind@@UAEPAXI@Z   00761e80 f i nafxcwd:filefind.obj
 0002:000b7e80       ??_GCFileFind@@UAEPAXI@Z   00761e80 f i nafxcwd:filefind.obj
 0002:000b7ec0       ??0CFileFind@@QAE@PAVCAtlTransactionManager@ATL@@@Z 00761ec0 f   nafxcwd:filefind.obj
 0002:000b7f40       ??1CFileFind@@UAE@XZ       00761f40 f   nafxcwd:filefind.obj
 0002:000b7fd0       ?Close@CFileFind@@QAEXXZ   00761fd0 f   nafxcwd:filefind.obj
 0002:000b8080       ?CloseContext@CFileFind@@MAEXXZ 00762080 f   nafxcwd:filefind.obj
 0002:000b80a0       ?FindFile@CFileFind@@UAEHPBDK@Z 007620a0 f   nafxcwd:filefind.obj
 0002:000b8330       ?MatchesMask@CFileFind@@UBEHK@Z 00762330 f   nafxcwd:filefind.obj
 0002:000b83a0       ?GetLastAccessTime@CFileFind@@UBEHPAU_FILETIME@@@Z 007623a0 f   nafxcwd:filefind.obj
 0002:000b8450       ?GetLastWriteTime@CFileFind@@UBEHPAU_FILETIME@@@Z 00762450 f   nafxcwd:filefind.obj
 0002:000b8500       ?GetCreationTime@CFileFind@@UBEHPAU_FILETIME@@@Z 00762500 f   nafxcwd:filefind.obj
 0002:000b8590       ?GetLastAccessTime@CFileFind@@UBEHAAVCTime@ATL@@@Z 00762590 f   nafxcwd:filefind.obj
 0002:000b8660       ?GetLastWriteTime@CFileFind@@UBEHAAVCTime@ATL@@@Z 00762660 f   nafxcwd:filefind.obj
 0002:000b8730       ?GetCreationTime@CFileFind@@UBEHAAVCTime@ATL@@@Z 00762730 f   nafxcwd:filefind.obj
 0002:000b8800       ?IsDots@CFileFind@@UBEHXZ  00762800 f   nafxcwd:filefind.obj
 0002:000b88d0       ?FindNextFileA@CFileFind@@UAEHXZ 007628d0 f   nafxcwd:filefind.obj
 0002:000b89a0       ?GetFileURL@CFileFind@@UBE?AV?$CStringT@DV?$StrTraitMFC@DV?$ChTraitsCRT@D@ATL@@@@@ATL@@XZ 007629a0 f   nafxcwd:filefind.obj
 0002:000b8ac0       ?GetRoot@CFileFind@@UBE?AV?$CStringT@DV?$StrTraitMFC@DV?$ChTraitsCRT@D@ATL@@@@@ATL@@XZ 00762ac0 f   nafxcwd:filefind.obj
 0002:000b8b40       ?GetFilePath@CFileFind@@UBE?AV?$CStringT@DV?$StrTraitMFC@DV?$ChTraitsCRT@D@ATL@@@@@ATL@@XZ 00762b40 f   nafxcwd:filefind.obj
 0002:000b8d00       ?GetFileTitle@CFileFind@@UBE?AV?$CStringT@DV?$StrTraitMFC@DV?$ChTraitsCRT@D@ATL@@@@@ATL@@XZ 00762d00 f   nafxcwd:filefind.obj
 0002:000b8e50       ?GetFileName@CFileFind@@UBE?AV?$CStringT@DV?$StrTraitMFC@DV?$ChTraitsCRT@D@ATL@@@@@ATL@@XZ 00762e50 f   nafxcwd:filefind.obj
 0002:000b8f50       ?GetLength@CFileFind@@QBE_KXZ 00762f50 f   nafxcwd:filefind.obj
 0002:000b8ff0       ?Dump@CFileFind@@MBEXAAVCDumpContext@@@Z 00762ff0 f   nafxcwd:filefind.obj
 0002:000b9040       ?AssertValid@CFileFind@@MBEXXZ 00763040 f   nafxcwd:filefind.obj
 0002:000b90c0       ?GetRuntimeClass@CFileFind@@UBEPAUCRuntimeClass@@XZ 007630c0 f   nafxcwd:filefind.obj
 0002:000b90e0       __tcsdec                   007630e0 f i nafxcwd:filefind.obj
 0002:000b9100       ?tcscpy_s@Checked@ATL@@YAXPADIPBD@Z 00763100 f i nafxcwd:filefind.obj
 0002:000b9130       ?tsplitpath_s@Checked@ATL@@YAXPBDPADI1I1I1I@Z 00763130 f i nafxcwd:filefind.obj
 0002:000b9180       ?tmakepath_s@Checked@ATL@@YAXPADIPBD111@Z 00763180 f i nafxcwd:filefind.obj
 0002:000b91c0       ?FindFirstFileA@CAtlTransactionManager@ATL@@QAEPAXPBDPAU_WIN32_FIND_DATAA@@@Z 007631c0 f i nafxcwd:filefind.obj
 0002:000b92a0       ?GetMessageMap@CWinApp@@MBEPBUAFX_MSGMAP@@XZ 007632a0 f   nafxcwd:appcore.obj
 0002:000b92c0       ?GetThisMessageMap@CWinApp@@KGPBUAFX_MSGMAP@@XZ 007632c0 f   nafxcwd:appcore.obj
 0002:000b92d0       ?AfxLoadLangResourceDLL@@YGPAUHINSTANCE__@@PBD0@Z 007632d0 f   nafxcwd:appcore.obj
 0002:000b97e0       ?AfxLoadLangResourceDLL@@YGPAUHINSTANCE__@@PBD@Z 007637e0 f   nafxcwd:appcore.obj
 0002:000b98e0       ??0CWinApp@@QAE@PBD@Z      007638e0 f   nafxcwd:appcore.obj
 0002:000b9c60       ??_ECWinApp@@UAEPAXI@Z     00763c60 f i nafxcwd:appcore.obj
 0002:000b9c60       ??_GCWinApp@@UAEPAXI@Z     00763c60 f i nafxcwd:appcore.obj
 0002:000b9ca0       ?LoadSysPolicies@CWinApp@@UAEHXZ 00763ca0 f   nafxcwd:appcore.obj
 0002:000b9cc0       ?_LoadSysPolicies@CWinApp@@IAEHXZ 00763cc0 f   nafxcwd:appcore.obj
 0002:000b9e40       ?GetSysPolicyValue@CWinApp@@QAEHKPAH@Z 00763e40 f   nafxcwd:appcore.obj
 0002:000b9e90       ?InitApplication@CWinApp@@UAEHXZ 00763e90 f   nafxcwd:appcore.obj
 0002:000b9f30       ?InitInstance@CWinApp@@UAEHXZ 00763f30 f   nafxcwd:appcore.obj
 0002:000ba060       ?LoadAppLangResourceDLL@CWinApp@@UAEPAUHINSTANCE__@@XZ 00764060 f   nafxcwd:appcore.obj
 0002:000ba170       ?LoadStdProfileSettings@CWinApp@@IAEXI@Z 00764170 f   nafxcwd:appcore.obj
 0002:000ba2e0       ?ParseCommandLine@CWinApp@@QAEXAAVCCommandLineInfo@@@Z 007642e0 f   nafxcwd:appcore.obj
 0002:000ba3a0       ?RestartInstance@CWinApp@@UAEHXZ 007643a0 f   nafxcwd:appcore.obj
 0002:000ba420       ??0CCommandLineInfo@@QAE@XZ 00764420 f   nafxcwd:appcore.obj
 0002:000ba4d0       ??_GCCommandLineInfo@@UAEPAXI@Z 007644d0 f i nafxcwd:appcore.obj
 0002:000ba4d0       ??_ECCommandLineInfo@@UAEPAXI@Z 007644d0 f i nafxcwd:appcore.obj
 0002:000ba510       ??1CCommandLineInfo@@UAE@XZ 00764510 f   nafxcwd:appcore.obj
 0002:000ba580       ?ParseParam@CCommandLineInfo@@UAEXPBDHH@Z 00764580 f   nafxcwd:appcore.obj
 0002:000ba640       ?ParseParamFlag@CCommandLineInfo@@IAEXPBD@Z 00764640 f   nafxcwd:appcore.obj
 0002:000ba9a0       ?ParseParamNotFlag@CCommandLineInfo@@IAEXPBD@Z 007649a0 f   nafxcwd:appcore.obj
 0002:000baa90       ?ParseLast@CCommandLineInfo@@IAEXH@Z 00764a90 f   nafxcwd:appcore.obj
 0002:000bab10       ??1CWinApp@@UAE@XZ         00764b10 f   nafxcwd:appcore.obj
 0002:000bb1d0       ?SetResourceInstance@CAtlBaseModule@ATL@@QAEPAUHINSTANCE__@@PAU3@@Z 007651d0 f i nafxcwd:appcore.obj
 0002:000bb200       ?InterlockedExchangePointer@@YGPAXPAPAXPAX@Z 00765200 f i nafxcwd:appcore.obj
 0002:000bb220       ?SaveStdProfileSettings@CWinApp@@IAEXXZ 00765220 f   nafxcwd:appcore.obj
 0002:000bb2c0       ?ExitInstance@CWinApp@@UAEHXZ 007652c0 f   nafxcwd:appcore.obj
 0002:000bb3d0       ?Run@CWinApp@@UAEHXZ       007653d0 f   nafxcwd:appcore.obj
 0002:000bb450       ?AfxPostQuitMessage@@YGXH@Z 00765450 f   nafxcwd:appcore.obj
 0002:000bb4a0       ?WinHelpA@CWinApp@@UAEXKI@Z 007654a0 f   nafxcwd:appcore.obj
 0002:000bb530       ?HtmlHelpA@CWinApp@@UAEXKI@Z 00765530 f   nafxcwd:appcore.obj
 0002:000bb5c0       ?WinHelpInternal@CWinApp@@UAEXKI@Z 007655c0 f   nafxcwd:appcore.obj
 0002:000bb650       ?AfxApplicationRecoveryWrapper@@YGKPAX@Z 00765650 f   nafxcwd:appcore.obj
 0002:000bb6c0       ?RegisterWithRestartManager@CWinApp@@UAEJHABV?$CStringT@DV?$StrTraitMFC@DV?$ChTraitsCRT@D@ATL@@@@@ATL@@@Z 007656c0 f   nafxcwd:appcore.obj
 0002:000bba40       ?RegisterWithRestartManager@CWinApp@@UAEJPB_WKP6GKPAX@Z1KK@Z 00765a40 f   nafxcwd:appcore.obj
 0002:000bbb40       ?ApplicationRecoveryCallback@CWinApp@@UAEKPAX@Z 00765b40 f   nafxcwd:appcore.obj
 0002:000bbc50       ?GetDataRecoveryHandler@CWinApp@@UAEPAVCDataRecoveryHandler@@XZ 00765c50 f   nafxcwd:appcore.obj
 0002:000bbe10       ?ProcessWndProcException@CWinApp@@UAEJPAVCException@@PBUtagMSG@@@Z 00765e10 f   nafxcwd:appcore.obj
 0002:000bbf90       ?OnIdle@CWinApp@@UAEHJ@Z   00765f90 f   nafxcwd:appcore.obj
 0002:000bc0e0       ?DevModeChange@CWinApp@@QAEXPAD@Z 007660e0 f   nafxcwd:appcore.obj
 0002:000bc250       ?AssertValid@CWinApp@@UBEXXZ 00766250 f   nafxcwd:appcore.obj
 0002:000bc300       ?Dump@CWinApp@@UBEXAAVCDumpContext@@@Z 00766300 f   nafxcwd:appcore.obj
 0002:000bc730       ?GetRuntimeClass@CWinApp@@UBEPAUCRuntimeClass@@XZ 00766730 f   nafxcwd:appcore.obj
 0002:000bc750       ?Find@?$CStringT@DV?$StrTraitMFC@DV?$ChTraitsCRT@D@ATL@@@@@ATL@@QBEHPBDH@Z 00766750 f i nafxcwd:appcore.obj
 0002:000bc860       ??B?$CThreadLocal@VAFX_MODULE_THREAD_STATE@@@@QAEPAVAFX_MODULE_THREAD_STATE@@XZ 00766860 f i nafxcwd:appcore.obj
 0002:000bc880       ?GetData@?$CThreadLocal@VAFX_MODULE_THREAD_STATE@@@@QAEPAVAFX_MODULE_THREAD_STATE@@XZ 00766880 f i nafxcwd:appcore.obj
 0002:000bc8f0       ?CreateObject@?$CThreadLocal@VAFX_MODULE_THREAD_STATE@@@@SGPAVCNoTrackObject@@XZ 007668f0 f i nafxcwd:appcore.obj
 0002:000bc980       ??0CComBSTR@ATL@@QAE@PBD@Z 00766980 f i nafxcwd:appcore.obj
 0002:000bc9f0       ?A2WBSTR@@YAPA_WPBDH@Z     007669f0 f i nafxcwd:appcore.obj
 0002:000bcba0       ?AfxCtxLoadLibraryA@@YAPAUHINSTANCE__@@PBD@Z 00766ba0 f i nafxcwd:appcore.obj
 0002:000bccc0       ?GetSize@CRecentFileList@@QBEHXZ 00766cc0 f i nafxcwd:appcore.obj
 0002:000bcce0       ??ACRecentFileList@@QAEAAV?$CStringT@DV?$StrTraitMFC@DV?$ChTraitsCRT@D@ATL@@@@@ATL@@H@Z 00766ce0 f i nafxcwd:appcore.obj
 0002:000bcd70       ?AfxInvariantStrICmp@@YAHPBD0@Z 00766d70 f i nafxcwd:appcore.obj
 0002:000bcda0       ??1?$CProcessLocal@V_AFX_WIN_STATE@@@@QAE@XZ 00766da0 f i nafxcwd:appcore.obj
 0002:000bcdc0       ?OnHelp@CWinApp@@IAEXXZ    00766dc0 f   nafxcwd:apphelpx.obj
 0002:000bce70       ?OnHelpIndex@CWinApp@@IAEXXZ 00766e70 f   nafxcwd:apphelpx.obj
 0002:000bcea0       ?OnHelpFinder@CWinApp@@IAEXXZ 00766ea0 f   nafxcwd:apphelpx.obj
 0002:000bced0       ?OnHelpUsing@CWinApp@@IAEXXZ 00766ed0 f   nafxcwd:apphelpx.obj
 0002:000bcf00       ?OnContextHelp@CWinApp@@IAEXXZ 00766f00 f   nafxcwd:apphelpx.obj
 0002:000bcfd0       ??0CCmdTarget@@QAE@XZ      00766fd0 f   nafxcwd:cmdtarg.obj
 0002:000bd0c0       ??1CCmdTarget@@UAE@XZ      007670c0 f   nafxcwd:cmdtarg.obj
 0002:000bd180       ?_AfxDispatchCmdMsg@@YGHPAVCCmdTarget@@IHP81@AEXXZPAXIPAUAFX_CMDHANDLERINFO@@@Z 00767180 f   nafxcwd:cmdtarg.obj
 0002:000bd7d0       ?OnCmdMsg@CCmdTarget@@UAEHIHPAXPAUAFX_CMDHANDLERINFO@@@Z 007677d0 f   nafxcwd:cmdtarg.obj
 0002:000bdb90       _IsEqualGUID               00767b90 f i nafxcwd:cmdtarg.obj
 0002:000bdbc0       ?IsInvokeAllowed@CCmdTarget@@UAEHJ@Z 00767bc0 f   nafxcwd:cmdtarg.obj
 0002:000bdbe0       ?GetDispatchIID@CCmdTarget@@UAEHPAU_GUID@@@Z 00767be0 f   nafxcwd:cmdtarg.obj
 0002:000bdc00       ?GetTypeInfoCount@CCmdTarget@@UAEIXZ 00767c00 f   nafxcwd:cmdtarg.obj
 0002:000bdc20       ?GetTypeLibCache@CCmdTarget@@UAEPAVCTypeLibCache@@XZ 00767c20 f   nafxcwd:cmdtarg.obj
 0002:000bdc40       ?GetTypeLib@CCmdTarget@@UAEJKPAPAUITypeLib@@@Z 00767c40 f   nafxcwd:cmdtarg.obj
 0002:000bdc60       ?BeginWaitCursor@CCmdTarget@@QAEXXZ 00767c60 f   nafxcwd:cmdtarg.obj
 0002:000bdca0       ?EndWaitCursor@CCmdTarget@@QAEXXZ 00767ca0 f   nafxcwd:cmdtarg.obj
 0002:000bdce0       ?RestoreWaitCursor@CCmdTarget@@QAEXXZ 00767ce0 f   nafxcwd:cmdtarg.obj
 0002:000bdd20       ?GetMessageMap@CCmdTarget@@MBEPBUAFX_MSGMAP@@XZ 00767d20 f   nafxcwd:cmdtarg.obj
 0002:000bdd40       ?GetThisMessageMap@CCmdTarget@@KGPBUAFX_MSGMAP@@XZ 00767d40 f   nafxcwd:cmdtarg.obj
 0002:000bdd50       ?GetDispatchMap@CCmdTarget@@MBEPBUAFX_DISPMAP@@XZ 00767d50 f   nafxcwd:cmdtarg.obj
 0002:000bdd70       ?GetEventSinkMap@CCmdTarget@@MBEPBUAFX_EVENTSINKMAP@@XZ 00767d70 f   nafxcwd:cmdtarg.obj
 0002:000bdd90       ?GetInterfaceMap@CCmdTarget@@MBEPBUAFX_INTERFACEMAP@@XZ 00767d90 f   nafxcwd:cmdtarg.obj
 0002:000bddb0       ?OnFinalRelease@CCmdTarget@@UAEXXZ 00767db0 f   nafxcwd:cmdtarg.obj
 0002:000bde40       ?OnCreateAggregates@CCmdTarget@@UAEHXZ 00767e40 f   nafxcwd:cmdtarg.obj
 0002:000bde60       ?GetInterfaceHook@CCmdTarget@@UAEPAUIUnknown@@PBX@Z 00767e60 f   nafxcwd:cmdtarg.obj
 0002:000bde80       ?GetConnectionMap@CCmdTarget@@MBEPBUAFX_CONNECTIONMAP@@XZ 00767e80 f   nafxcwd:cmdtarg.obj
 0002:000bdea0       ?GetConnectionHook@CCmdTarget@@MAEPAUIConnectionPoint@@ABU_GUID@@@Z 00767ea0 f   nafxcwd:cmdtarg.obj
 0002:000bdec0       ?GetExtraConnectionPoints@CCmdTarget@@MAEHPAVCPtrArray@@@Z 00767ec0 f   nafxcwd:cmdtarg.obj
 0002:000bdee0       ?GetCommandMap@CCmdTarget@@MBEPBUAFX_OLECMDMAP@@XZ 00767ee0 f   nafxcwd:cmdtarg.obj
 0002:000bdf00       ?GetRoutingView@CCmdTarget@@IAEPAVCView@@XZ 00767f00 f   nafxcwd:cmdtarg.obj
 0002:000bdf20       ?GetRoutingFrame@CCmdTarget@@IAEPAVCFrameWnd@@XZ 00767f20 f   nafxcwd:cmdtarg.obj
 0002:000bdf40       ??0CCmdUI@@QAE@XZ          00767f40 f   nafxcwd:cmdtarg.obj
 0002:000bdfd0       ?Enable@CCmdUI@@UAEXH@Z    00767fd0 f   nafxcwd:cmdtarg.obj
 0002:000be120       ?SetCheck@CCmdUI@@UAEXH@Z  00768120 f   nafxcwd:cmdtarg.obj
 0002:000be250       ?SetRadio@CCmdUI@@UAEXH@Z  00768250 f   nafxcwd:cmdtarg.obj
 0002:000be330       ?SetText@CCmdUI@@UAEXPBD@Z 00768330 f   nafxcwd:cmdtarg.obj
 0002:000be500       ?DoUpdate@CCmdUI@@QAEHPAVCCmdTarget@@H@Z 00768500 f   nafxcwd:cmdtarg.obj
 0002:000be680       ?_AfxLoadDotBitmap@@YGXXZ  00768680 f   nafxcwd:cmdtarg.obj
 0002:000be960       ?Dump@CCmdTarget@@UBEXAAVCDumpContext@@@Z 00768960 f   nafxcwd:cmdtarg.obj
 0002:000bea90       ?AssertValid@CCmdTarget@@UBEXXZ 00768a90 f   nafxcwd:cmdtarg.obj
 0002:000beab0       ?GetRuntimeClass@CCmdTarget@@UBEPAUCRuntimeClass@@XZ 00768ab0 f   nafxcwd:cmdtarg.obj
 0002:000bead0       ?_AfxThreadEntry@@YGIPAX@Z 00768ad0 f   nafxcwd:thrdcore.obj
 0002:000befc0       ?AfxGetThread@@YGPAVCWinThread@@XZ 00768fc0 f   nafxcwd:thrdcore.obj
 0002:000beff0       ?AfxGetCurrentMessage@@YGPAUtagMSG@@XZ 00768ff0 f   nafxcwd:thrdcore.obj
 0002:000bf030       ?AfxInternalPumpMessage@@YGHXZ 00769030 f   nafxcwd:thrdcore.obj
 0002:000bf180       ?AfxPumpMessage@@YGHXZ     00769180 f   nafxcwd:thrdcore.obj
 0002:000bf1c0       ?AfxInternalProcessWndProcException@@YGJPAVCException@@PBUtagMSG@@@Z 007691c0 f   nafxcwd:thrdcore.obj
 0002:000bf210       ?AfxProcessWndProcException@@YGJPAVCException@@PBUtagMSG@@@Z 00769210 f   nafxcwd:thrdcore.obj
 0002:000bf260       ?AfxInternalPreTranslateMessage@@YAHPAUtagMSG@@@Z 00769260 f   nafxcwd:thrdcore.obj
 0002:000bf320       ?AfxPreTranslateMessage@@YAHPAUtagMSG@@@Z 00769320 f   nafxcwd:thrdcore.obj
 0002:000bf370       ?AfxInternalIsIdleMessage@@YAHPAUtagMSG@@@Z 00769370 f   nafxcwd:thrdcore.obj
 0002:000bf460       ?AfxIsIdleMessage@@YAHPAUtagMSG@@@Z 00769460 f   nafxcwd:thrdcore.obj
 0002:000bf4b0       ?AfxBeginThread@@YGPAVCWinThread@@P6AIPAX@Z0HIKPAU_SECURITY_ATTRIBUTES@@@Z 007694b0 f   nafxcwd:thrdcore.obj
 0002:000bf640       ?AfxBeginThread@@YGPAVCWinThread@@PAUCRuntimeClass@@HIKPAU_SECURITY_ATTRIBUTES@@@Z 00769640 f   nafxcwd:thrdcore.obj
 0002:000bf7a0       ?AfxEndThread@@YGXIH@Z     007697a0 f   nafxcwd:thrdcore.obj
 0002:000bf870       ?AfxInitThread@@YGXXZ      00769870 f   nafxcwd:thrdcore.obj
 0002:000bf8e0       ?AfxTermThread@@YGXPAUHINSTANCE__@@@Z 007698e0 f   nafxcwd:thrdcore.obj
 0002:000bfaf0       ??0CWinThread@@QAE@P6AIPAX@Z0@Z 00769af0 f   nafxcwd:thrdcore.obj
 0002:000bfb90       ??_GCWinThread@@UAEPAXI@Z  00769b90 f i nafxcwd:thrdcore.obj
 0002:000bfb90       ??_ECWinThread@@UAEPAXI@Z  00769b90 f i nafxcwd:thrdcore.obj
 0002:000bfbd0       ??0CWinThread@@QAE@XZ      00769bd0 f   nafxcwd:thrdcore.obj
 0002:000bfc70       ?CommonConstruct@CWinThread@@QAEXXZ 00769c70 f   nafxcwd:thrdcore.obj
 0002:000bfd20       ??1CWinThread@@UAE@XZ      00769d20 f   nafxcwd:thrdcore.obj
 0002:000bfdd0       ?CreateThread@CWinThread@@QAEHKIPAU_SECURITY_ATTRIBUTES@@@Z 00769dd0 f   nafxcwd:thrdcore.obj
 0002:000c00a0       ?Delete@CWinThread@@UAEXXZ 0076a0a0 f   nafxcwd:thrdcore.obj
 0002:000c0100       ?InitInstance@CWinThread@@UAEHXZ 0076a100 f   nafxcwd:thrdcore.obj
 0002:000c0130       ?Run@CWinThread@@UAEHXZ    0076a130 f   nafxcwd:thrdcore.obj
 0002:000c0260       ?IsIdleMessage@CWinThread@@UAEHPAUtagMSG@@@Z 0076a260 f   nafxcwd:thrdcore.obj
 0002:000c0290       ?ExitInstance@CWinThread@@UAEHXZ 0076a290 f   nafxcwd:thrdcore.obj
 0002:000c0300       ?OnIdle@CWinThread@@UAEHJ@Z 0076a300 f   nafxcwd:thrdcore.obj
 0002:000c0570       ?DispatchThreadMessage@CWinThread@@IAEXPAUtagMSG@@@Z 0076a570 f   nafxcwd:thrdcore.obj
 0002:000c05a0       ?DispatchThreadMessageEx@CWinThread@@IAEHPAUtagMSG@@@Z 0076a5a0 f   nafxcwd:thrdcore.obj
 0002:000c0710       ?PreTranslateMessage@CWinThread@@UAEHPAUtagMSG@@@Z 0076a710 f   nafxcwd:thrdcore.obj
 0002:000c0750       ?ProcessWndProcException@CWinThread@@UAEJPAVCException@@PBUtagMSG@@@Z 0076a750 f   nafxcwd:thrdcore.obj
 0002:000c0780       ?_AfxMsgFilterHook@@YGJHIJ@Z 0076a780 f   nafxcwd:thrdcore.obj
 0002:000c0830       ?IsHelpKey@@YGHPAUtagMSG@@@Z 0076a830 f   nafxcwd:thrdcore.obj
 0002:000c08d0       ?IsEnterKey@@YAHPAUtagMSG@@@Z 0076a8d0 f i nafxcwd:thrdcore.obj
 0002:000c0910       ?IsButtonUp@@YAHPAUtagMSG@@@Z 0076a910 f i nafxcwd:thrdcore.obj
 0002:000c0930       ?ProcessMessageFilter@CWinThread@@UAEHHPAUtagMSG@@@Z 0076a930 f   nafxcwd:thrdcore.obj
 0002:000c0b70       ?GetMainWnd@CWinThread@@UAEPAVCWnd@@XZ 0076ab70 f   nafxcwd:thrdcore.obj
 0002:000c0bc0       ?PumpMessage@CWinThread@@UAEHXZ 0076abc0 f   nafxcwd:thrdcore.obj
 0002:000c0be0       ?AssertValid@CWinThread@@UBEXXZ 0076abe0 f   nafxcwd:thrdcore.obj
 0002:000c0c00       ?Dump@CWinThread@@UBEXAAVCDumpContext@@@Z 0076ac00 f   nafxcwd:thrdcore.obj
 0002:000c0ef0       ?GetRuntimeClass@CWinThread@@UBEPAUCRuntimeClass@@XZ 0076aef0 f   nafxcwd:thrdcore.obj
 0002:000c0f10       ??B?$CTypedSimpleList@PAVCFrameWnd@@@@QAEPAVCFrameWnd@@XZ 0076af10 f i nafxcwd:thrdcore.obj
 0002:000c0f30       ?GetHead@CSimpleList@@QBEPAXXZ 0076af30 f i nafxcwd:thrdcore.obj
 0002:000c0f50       ?SetRegistryKey@CWinApp@@IAEXPBD@Z 0076af50 f   nafxcwd:appui3.obj
 0002:000c1040       ?SetRegistryKey@CWinApp@@IAEXI@Z 0076b040 f   nafxcwd:appui3.obj
 0002:000c10f0       ?SetAppID@CWinApp@@IAEXPBD@Z 0076b0f0 f   nafxcwd:appui3.obj
 0002:000c1220       ?GetAppRegistryKey@CWinApp@@QAEPAUHKEY__@@PAVCAtlTransactionManager@ATL@@@Z 0076b220 f   nafxcwd:appui3.obj
 0002:000c1430       ?GetSectionKey@CWinApp@@QAEPAUHKEY__@@PBDPAVCAtlTransactionManager@ATL@@@Z 0076b430 f   nafxcwd:appui3.obj
 0002:000c1500       ?GetProfileIntA@CWinApp@@UAEIPBD0H@Z 0076b500 f   nafxcwd:appui3.obj
 0002:000c1670       ?GetProfileStringA@CWinApp@@UAE?AV?$CStringT@DV?$StrTraitMFC@DV?$ChTraitsCRT@D@ATL@@@@@ATL@@PBD00@Z 0076b670 f   nafxcwd:appui3.obj
 0002:000c19b0       ?GetProfileBinary@CWinApp@@UAEHPBD0PAPAEPAI@Z 0076b9b0 f   nafxcwd:appui3.obj
 0002:000c1dc0       ?WriteProfileInt@CWinApp@@UAEHPBD0H@Z 0076bdc0 f   nafxcwd:appui3.obj
 0002:000c1f00       ?WriteProfileStringA@CWinApp@@UAEHPBD00@Z 0076bf00 f   nafxcwd:appui3.obj
 0002:000c20d0       ?WriteProfileBinary@CWinApp@@UAEHPBD0PAEI@Z 0076c0d0 f   nafxcwd:appui3.obj
 0002:000c2270       ?EnableTaskbarInteraction@CWinApp@@QAEHH@Z 0076c270 f   nafxcwd:appui3.obj
 0002:000c2300       ?IsTaskbarInteractionEnabled@CWinApp@@UAEHXZ 0076c300 f   nafxcwd:appui3.obj
 0002:000c2350       ?EnableD2DSupport@CWinApp@@QAEHW4D2D1_FACTORY_TYPE@@W4DWRITE_FACTORY_TYPE@@@Z 0076c350 f   nafxcwd:appui3.obj
 0002:000c23e0       ?IsD2DInitialized@AFX_GLOBAL_DATA@@QBEHXZ 0076c3e0 f i nafxcwd:appui3.obj
 0002:000c2400       ??A?$CSimpleStringT@D$0A@@ATL@@QBEDH@Z 0076c400 f i nafxcwd:appui3.obj
 0002:000c2490       ?RegOpenKeyExA@CAtlTransactionManager@ATL@@QAEJPAUHKEY__@@PBDKKPAPAU3@@Z 0076c490 f i nafxcwd:appui3.obj
 0002:000c2580       ?RegCreateKeyExA@CAtlTransactionManager@ATL@@QAEJPAUHKEY__@@PBDKPADKKQAU_SECURITY_ATTRIBUTES@@PAPAU3@PAK@Z 0076c580 f i nafxcwd:appui3.obj
 0002:000c26a0       ??0CRegKey@ATL@@QAE@PAUHKEY__@@@Z 0076c6a0 f i nafxcwd:appui3.obj
 0002:000c26e0       ??1CRegKey@ATL@@QAE@XZ     0076c6e0 f i nafxcwd:appui3.obj
 0002:000c2700       ?Close@CRegKey@ATL@@QAEJXZ 0076c700 f i nafxcwd:appui3.obj
 0002:000c2760       ?ProcessShellCommand@CWinApp@@QAEHAAVCCommandLineInfo@@@Z 0076c760 f   nafxcwd:appui2.obj
 0002:000c2b50       ?InitLibId@CWinApp@@UAEXXZ 0076cb50 f   nafxcwd:appui2.obj
 0002:000c2b60       ?Register@CWinApp@@UAEHXZ  0076cb60 f   nafxcwd:appui2.obj
 0002:000c2b80       ?Unregister@CWinApp@@UAEHXZ 0076cb80 f   nafxcwd:appui2.obj
 0002:000c2ec0       ?DelRegTree@CWinApp@@QAEJPAUHKEY__@@ABV?$CStringT@DV?$StrTraitMFC@DV?$ChTraitsCRT@D@ATL@@@@@ATL@@PAVCAtlTransactionManager@4@@Z 0076cec0 f   nafxcwd:appui2.obj
 0002:000c2ef0       ?AfxDelRegTreeHelper@@YGJPAUHKEY__@@ABV?$CStringT@DV?$StrTraitMFC@DV?$ChTraitsCRT@D@ATL@@@@@ATL@@PAVCAtlTransactionManager@3@@Z 0076cef0 f   nafxcwd:appui2.obj
 0002:000c3210       ?EnableShellOpen@CWinApp@@IAEXXZ 0076d210 f   nafxcwd:appui2.obj
 0002:000c3390       ?RegisterShellFileTypes@CWinApp@@IAEXH@Z 0076d390 f   nafxcwd:appui2.obj
 0002:000c3410       ?UnregisterShellFileTypes@CWinApp@@IAEXXZ 0076d410 f   nafxcwd:appui2.obj
 0002:000c3480       ?GetOpenDocumentCount@CWinApp@@QAEHXZ 0076d480 f   nafxcwd:appui2.obj
 0002:000c34f0       ?AddDocTemplate@CWinApp@@QAEXPAVCDocTemplate@@@Z 0076d4f0 f   nafxcwd:appui2.obj
 0002:000c35c0       ?GetFirstDocTemplatePosition@CWinApp@@QBEPAU__POSITION@@XZ 0076d5c0 f   nafxcwd:appui2.obj
 0002:000c3600       ?GetNextDocTemplate@CWinApp@@QBEPAVCDocTemplate@@AAPAU__POSITION@@@Z 0076d600 f   nafxcwd:appui2.obj
 0002:000c3680       ?RegDeleteKeyA@CAtlTransactionManager@ATL@@QAEJPAUHKEY__@@PBD@Z 0076d680 f i nafxcwd:appui2.obj
 0002:000c3760       ?GetBuffer@?$CSimpleStringT@D$0A@@ATL@@QAEPADXZ 0076d760 f i nafxcwd:appui2.obj
 0002:000c37b0       ?OnAppExit@CWinApp@@IAEXXZ 0076d7b0 f   nafxcwd:appui.obj
 0002:000c3800       ?HideApplication@CWinApp@@QAEXXZ 0076d800 f   nafxcwd:appui.obj
 0002:000c3870       ?DoWaitCursor@CWinApp@@UAEXH@Z 0076d870 f   nafxcwd:appui.obj
 0002:000c39d0       ?SaveAllModified@CWinApp@@UAEHXZ 0076d9d0 f   nafxcwd:appui.obj
 0002:000c3a10       ?AddToRecentFileList@CWinApp@@UAEXPBD@Z 0076da10 f   nafxcwd:appui.obj
 0002:000c3ae0       ?OpenDocumentFile@CWinApp@@UAEPAVCDocument@@PBD@Z 0076dae0 f   nafxcwd:appui.obj
 0002:000c3b40       ?OpenDocumentFile@CWinApp@@UAEPAVCDocument@@PBDH@Z 0076db40 f   nafxcwd:appui.obj
 0002:000c3bb0       ?CloseAllDocuments@CWinApp@@QAEXH@Z 0076dbb0 f   nafxcwd:appui.obj
 0002:000c3bf0       ?OnUpdateRecentFileMenu@CWinApp@@IAEXPAVCCmdUI@@@Z 0076dbf0 f   nafxcwd:appui.obj
 0002:000c3ca0       ?OnDDECommand@CWinApp@@UAEHPAD@Z 0076dca0 f   nafxcwd:appui.obj
 0002:000c3cf0       ?OnOpenRecentFile@CWinApp@@IAEHI@Z 0076dcf0 f   nafxcwd:appui.obj
 0002:000c3f30       ?EnableModeless@CWinApp@@QAEXH@Z 0076df30 f   nafxcwd:appui1.obj
 0002:000c3f60       ?DoEnableModeless@CWinApp@@SAXH@Z 0076df60 f   nafxcwd:appui1.obj
 0002:000c4010       ?DoMessageBox@CWinApp@@UAEHPBDII@Z 0076e010 f   nafxcwd:appui1.obj
 0002:000c4040       ?ShowAppMessageBox@CWinApp@@SAHPAV1@PBDII@Z 0076e040 f   nafxcwd:appui1.obj
 0002:000c4340       ?AfxMessageBox@@YGHPBDII@Z 0076e340 f   nafxcwd:appui1.obj
 0002:000c43b0       ?AfxMessageBox@@YGHIII@Z   0076e3b0 f   nafxcwd:appui1.obj
 0002:000c44c0       ?GetSafeOwner_@CWnd@@SGPAUHWND__@@PAU2@PAPAU2@@Z 0076e4c0 f   nafxcwd:appui1.obj
 0002:000c4600       ?GetRoutingView_@CCmdTarget@@KGPAVCView@@XZ 0076e600 f   nafxcwd:appui1.obj
 0002:000c4630       ?GetRoutingFrame_@CCmdTarget@@KGPAVCFrameWnd@@XZ 0076e630 f   nafxcwd:appui1.obj
 0002:000c4660       ?AfxCtxMessageBoxA@@YAHPAUHWND__@@PBD1I@Z 0076e660 f i nafxcwd:appui1.obj
 0002:000c4790       ?AfxDlgProc@@YGHPAUHWND__@@IIJ@Z 0076e790 f   nafxcwd:dlgcore.obj
 0002:000c4800       ?GetMessageMap@CDialog@@MBEPBUAFX_MSGMAP@@XZ 0076e800 f   nafxcwd:dlgcore.obj
 0002:000c4820       ?GetThisMessageMap@CDialog@@KGPBUAFX_MSGMAP@@XZ 0076e820 f   nafxcwd:dlgcore.obj
 0002:000c4830       ?PreTranslateMessage@CDialog@@UAEHPAUtagMSG@@@Z 0076e830 f   nafxcwd:dlgcore.obj
 0002:000c4970       ?OnCmdMsg@CDialog@@UAEHIHPAXPAUAFX_CMDHANDLERINFO@@@Z 0076e970 f   nafxcwd:dlgcore.obj
 0002:000c4b60       ??0CDialog@@QAE@XZ         0076eb60 f   nafxcwd:dlgcore.obj
 0002:000c4c00       ??_GCDialog@@UAEPAXI@Z     0076ec00 f i nafxcwd:dlgcore.obj
 0002:000c4c00       ??_ECDialog@@UAEPAXI@Z     0076ec00 f i nafxcwd:dlgcore.obj
 0002:000c4c40       ??1CDialog@@UAE@XZ         0076ec40 f   nafxcwd:dlgcore.obj
 0002:000c4d40       ?Initialize@CDialog@@QAEXXZ 0076ed40 f   nafxcwd:dlgcore.obj
 0002:000c4dd0       ?OnPaint@CDialog@@IAEXXZ   0076edd0 f   nafxcwd:dlgcore.obj
 0002:000c4e90       ?OnQueryEndSession@CDialog@@IAEHXZ 0076ee90 f   nafxcwd:dlgcore.obj
 0002:000c4ef0       ?OnEndSession@CDialog@@IAEXH@Z 0076eef0 f   nafxcwd:dlgcore.obj
 0002:000c4f70       ?Create@CDialog@@UAEHPBDPAVCWnd@@@Z 0076ef70 f   nafxcwd:dlgcore.obj
 0002:000c50b0       ?CreateIndirect@CDialog@@UAEHPAXPAVCWnd@@@Z 0076f0b0 f   nafxcwd:dlgcore.obj
 0002:000c50e0       ?CreateIndirect@CDialog@@IAEHPAXPAVCWnd@@PAUHINSTANCE__@@@Z 0076f0e0 f   nafxcwd:dlgcore.obj
 0002:000c5160       ?UnlockResource@@YGHPAX@Z  0076f160 f i nafxcwd:dlgcore.obj
 0002:000c5170       ?CreateIndirect@CDialog@@UAEHPBUDLGTEMPLATE@@PAVCWnd@@PAX@Z 0076f170 f   nafxcwd:dlgcore.obj
 0002:000c51a0       ?CreateIndirect@CDialog@@IAEHPBUDLGTEMPLATE@@PAVCWnd@@PAXPAUHINSTANCE__@@@Z 0076f1a0 f   nafxcwd:dlgcore.obj
 0002:000c5210       ?CreateDlg@CWnd@@IAEHPBDPAV1@@Z 0076f210 f   nafxcwd:dlgcore.obj
 0002:000c52e0       ?CreateDlgIndirect@CWnd@@IAEHPBUDLGTEMPLATE@@PAV1@PAUHINSTANCE__@@@Z 0076f2e0 f   nafxcwd:dlgcore.obj
 0002:000c5890       ?SetOccDialogInfo@CDialog@@MAEHPAU_AFX_OCC_DIALOG_INFO@@@Z 0076f890 f   nafxcwd:dlgcore.obj
 0002:000c58c0       ?GetOccDialogInfo@CDialog@@MAEPAU_AFX_OCC_DIALOG_INFO@@XZ 0076f8c0 f   nafxcwd:dlgcore.obj
 0002:000c58e0       ??0CDialog@@QAE@PBDPAVCWnd@@@Z 0076f8e0 f   nafxcwd:dlgcore.obj
 0002:000c59e0       ??0CDialog@@QAE@IPAVCWnd@@@Z 0076f9e0 f   nafxcwd:dlgcore.obj
 0002:000c5a90       ?InitModalIndirect@CDialog@@QAEHPAXPAVCWnd@@@Z 0076fa90 f   nafxcwd:dlgcore.obj
 0002:000c5b40       ?InitModalIndirect@CDialog@@QAEHPBUDLGTEMPLATE@@PAVCWnd@@PAX@Z 0076fb40 f   nafxcwd:dlgcore.obj
 0002:000c5c10       ?PreModal@CDialog@@IAEPAUHWND__@@XZ 0076fc10 f   nafxcwd:dlgcore.obj
 0002:000c5ca0       ?PostModal@CDialog@@IAEXXZ 0076fca0 f   nafxcwd:dlgcore.obj
 0002:000c5d20       ?DoModal@CDialog@@UAEHXZ   0076fd20 f   nafxcwd:dlgcore.obj
 0002:000c6110       ?EndDialog@CDialog@@QAEXH@Z 00770110 f   nafxcwd:dlgcore.obj
 0002:000c6190       ?HandleSetFont@CDialog@@IAEJIJ@Z 00770190 f   nafxcwd:dlgcore.obj
 0002:000c61d0       ?PreInitDialog@CDialog@@MAEXXZ 007701d0 f   nafxcwd:dlgcore.obj
 0002:000c61e0       ?HandleInitDialog@CDialog@@IAEJIJ@Z 007701e0 f   nafxcwd:dlgcore.obj
 0002:000c6370       ?AfxHelpEnabled@@YGHXZ     00770370 f   nafxcwd:dlgcore.obj
 0002:000c6400       ?OnSetFont@CDialog@@UAEXPAVCFont@@@Z 00770400 f   nafxcwd:dlgcore.obj
 0002:000c6420       ?OnInitDialog@CDialog@@UAEHXZ 00770420 f   nafxcwd:dlgcore.obj
 0002:000c6560       ?OnOK@CDialog@@MAEXXZ      00770560 f   nafxcwd:dlgcore.obj
 0002:000c65d0       ?OnCancel@CDialog@@MAEXXZ  007705d0 f   nafxcwd:dlgcore.obj
 0002:000c65f0       ?CheckAutoCenter@CDialog@@UAEHXZ 007705f0 f   nafxcwd:dlgcore.obj
 0002:000c6770       ?OnCommandHelp@CDialog@@IAEJIJ@Z 00770770 f   nafxcwd:dlgcore.obj
 0002:000c67f0       ?OnHelpHitTest@CDialog@@IAEJIJ@Z 007707f0 f   nafxcwd:dlgcore.obj
 0002:000c6820       ?AssertValid@CDialog@@UBEXXZ 00770820 f   nafxcwd:dlgcore.obj
 0002:000c6840       ?Dump@CDialog@@UBEXAAVCDumpContext@@@Z 00770840 f   nafxcwd:dlgcore.obj
 0002:000c6960       ?_AfxCheckDialogTemplate@@YGHPBDH@Z 00770960 f   nafxcwd:dlgcore.obj
 0002:000c6c80       ?GetRuntimeClass@CDialog@@UBEPAUCRuntimeClass@@XZ 00770c80 f   nafxcwd:dlgcore.obj
 0002:000c6ca0       ??_9CDialog@@$BBIE@AE      00770ca0 f i nafxcwd:dlgcore.obj
 0002:000c6cb0       ??_9CDialog@@$BBII@AE      00770cb0 f i nafxcwd:dlgcore.obj
 0002:000c6cc0       ??0CShellManager@@QAE@XZ   00770cc0 f   nafxcwd:afxshellmanager.obj
 0002:000c6de0       ??_GCShellManager@@UAEPAXI@Z 00770de0 f i nafxcwd:afxshellmanager.obj
 0002:000c6de0       ??_ECShellManager@@UAEPAXI@Z 00770de0 f i nafxcwd:afxshellmanager.obj
 0002:000c6e20       ??1CShellManager@@UAE@XZ   00770e20 f   nafxcwd:afxshellmanager.obj
 0002:000c6ed0       ?BrowseCallbackProc@CShellManager@@KGHPAUHWND__@@IJJ@Z 00770ed0 f   nafxcwd:afxshellmanager.obj
 0002:000c6f30       ?BrowseForFolder@CShellManager@@QAEHAAV?$CStringT@DV?$StrTraitMFC@DV?$ChTraitsCRT@D@ATL@@@@@ATL@@PAVCWnd@@PBD2IPAH@Z 00770f30 f   nafxcwd:afxshellmanager.obj
 0002:000c70d0       ?GetNextItem@CShellManager@@QAEPAU_ITEMIDLIST@@PBU2@@Z 007710d0 f   nafxcwd:afxshellmanager.obj
 0002:000c7100       ?CreateItem@CShellManager@@QAEPAU_ITEMIDLIST@@I@Z 00771100 f   nafxcwd:afxshellmanager.obj
 0002:000c71a0       ?GetItemCount@CShellManager@@QAEIPBU_ITEMIDLIST@@@Z 007711a0 f   nafxcwd:afxshellmanager.obj
 0002:000c7210       ?GetItemSize@CShellManager@@QAEIPBU_ITEMIDLIST@@@Z 00771210 f   nafxcwd:afxshellmanager.obj
 0002:000c7280       ?ConcatenateItem@CShellManager@@QAEPAU_ITEMIDLIST@@PBU2@0@Z 00771280 f   nafxcwd:afxshellmanager.obj
 0002:000c7330       ?CopyItem@CShellManager@@QAEPAU_ITEMIDLIST@@PBU2@@Z 00771330 f   nafxcwd:afxshellmanager.obj
 0002:000c7400       ?FreeItem@CShellManager@@QAEXPAU_ITEMIDLIST@@@Z 00771400 f   nafxcwd:afxshellmanager.obj
 0002:000c7480       ?ItemFromPath@CShellManager@@QAEJPBDAAPAU_ITEMIDLIST@@@Z 00771480 f   nafxcwd:afxshellmanager.obj
 0002:000c75c0       ?GetParentItem@CShellManager@@QAEHPBU_ITEMIDLIST@@AAPAU2@@Z 007715c0 f   nafxcwd:afxshellmanager.obj
 0002:000c7700       ?AfxEnableControlContainer@@YAXPAVCOccManager@@@Z 00771700 f   nafxcwd:occmgr.obj
 0002:000c7740       ?_AfxFindFirstDlgItem@@YGPAUDLGITEMTEMPLATE@@PBUDLGTEMPLATE@@@Z 00771740 f   nafxcwd:occmgr.obj
 0002:000c78f0       ?_AfxFindNextDlgItem@@YGPAUDLGITEMTEMPLATE@@PAU1@H@Z 007718f0 f   nafxcwd:occmgr.obj
 0002:000c79e0       ?OnEvent@COccManager@@UAEHPAVCCmdTarget@@IPAUAFX_EVENT@@PAUAFX_CMDHANDLERINFO@@@Z 007719e0 f   nafxcwd:occmgr.obj
 0002:000c7a10       ?CreateContainer@COccManager@@UAEPAVCOleControlContainer@@PAVCWnd@@@Z 00771a10 f   nafxcwd:occmgr.obj
 0002:000c7ac0       ?CreateSite@COccManager@@UAEPAVCOleControlSite@@PAVCOleControlContainer@@@Z 00771ac0 f   nafxcwd:occmgr.obj
 0002:000c7ae0       ?CreateSite@COccManager@@UAEPAVCOleControlSite@@PAVCOleControlContainer@@ABVCControlCreationInfo@@@Z 00771ae0 f   nafxcwd:occmgr.obj
 0002:000c7be0       ?PreCreateDialog@COccManager@@UAEPBUDLGTEMPLATE@@PAU_AFX_OCC_DIALOG_INFO@@PBU2@@Z 00771be0 f   nafxcwd:occmgr.obj
 0002:000c7e80       ?PostCreateDialog@COccManager@@UAEXPAU_AFX_OCC_DIALOG_INFO@@@Z 00771e80 f   nafxcwd:occmgr.obj
 0002:000c7ef0       ?SplitDialogTemplate@COccManager@@UAEPAUDLGTEMPLATE@@PBU2@PAPAUDLGITEMTEMPLATE@@@Z 00771ef0 f   nafxcwd:occmgr.obj
 0002:000c8230       ?CreateDlgControls@COccManager@@UAEHPAVCWnd@@PBDPAU_AFX_OCC_DIALOG_INFO@@@Z 00772230 f   nafxcwd:occmgr.obj
 0002:000c8440       ?CreateDlgControls@COccManager@@UAEHPAVCWnd@@PAXPAU_AFX_OCC_DIALOG_INFO@@@Z 00772440 f   nafxcwd:occmgr.obj
 0002:000c8870       ?BindControls@COccManager@@IAEXPAVCWnd@@@Z 00772870 f   nafxcwd:occmgr.obj
 0002:000c8b90       ?CreateDlgControl@COccManager@@IAEHPAVCWnd@@PAUHWND__@@HPAUDLGITEMTEMPLATE@@GPAEKPAPAU3@@Z 00772b90 f   nafxcwd:occmgr.obj
 0002:000c9430       ?PrepareOleCtrl@CDataExchange@@QAEPAVCOleControlSite@@H@Z 00773430 f   nafxcwd:occmgr.obj
 0002:000c9530       ??0CControlSiteFactoryMgr@@QAE@XZ 00773530 f   nafxcwd:occmgr.obj
 0002:000c96a0       ??0COleControlSiteFactory@@QAE@XZ 007736a0 f i nafxcwd:occmgr.obj
 0002:000c96d0       ?CreateSite@COleControlSiteFactory@@UAEPAVCOleControlSite@@PAVCOleControlContainer@@ABVCControlCreationInfo@@@Z 007736d0 f i nafxcwd:occmgr.obj
 0002:000c9780       ??_ECOleControlSiteFactory@@UAEPAXI@Z 00773780 f i nafxcwd:occmgr.obj
 0002:000c9780       ??_GCOleControlSiteFactory@@UAEPAXI@Z 00773780 f i nafxcwd:occmgr.obj
 0002:000c97c0       ??0IControlSiteFactory@@QAE@XZ 007737c0 f i nafxcwd:occmgr.obj
 0002:000c97e0       ??1COleControlSiteFactory@@UAE@XZ 007737e0 f i nafxcwd:occmgr.obj
 0002:000c9800       ??_GCControlSiteFactoryMgr@@UAEPAXI@Z 00773800 f i nafxcwd:occmgr.obj
 0002:000c9800       ??_ECControlSiteFactoryMgr@@UAEPAXI@Z 00773800 f i nafxcwd:occmgr.obj
 0002:000c9840       ??1CControlSiteFactoryMgr@@UAE@XZ 00773840 f   nafxcwd:occmgr.obj
 0002:000c9910       ?CreateSite@CControlSiteFactoryMgr@@QAEPAVCOleControlSite@@PAVCOleControlContainer@@ABVCControlCreationInfo@@@Z 00773910 f   nafxcwd:occmgr.obj
 0002:000c99a0       ?RegisterSiteFactory@CControlSiteFactoryMgr@@QAEHPAVIControlSiteFactory@@@Z 007739a0 f   nafxcwd:occmgr.obj
 0002:000c9a40       ?UnregisterSiteFactory@CControlSiteFactoryMgr@@QAEHPAVIControlSiteFactory@@@Z 00773a40 f   nafxcwd:occmgr.obj
 0002:000c9af0       ?AfxRegisterSiteFactory@@YGHPAVIControlSiteFactory@@@Z 00773af0 f   nafxcwd:occmgr.obj
 0002:000c9b20       ?AfxUnregisterSiteFactory@@YGHPAVIControlSiteFactory@@@Z 00773b20 f   nafxcwd:occmgr.obj
 0002:000c9b50       ?GetNext@?$_CTypedPtrList@VCPtrList@@PAUCOleControlSiteOrWnd@@@@QAEAAPAUCOleControlSiteOrWnd@@AAPAU__POSITION@@@Z 00773b50 f i nafxcwd:occmgr.obj
 0002:000c9b80       ??1CNoTrackObject@@UAE@XZ  00773b80 f i nafxcwd:occmgr.obj
 0002:000c9ba0       ??_GCNoTrackObject@@UAEPAXI@Z 00773ba0 f i nafxcwd:occmgr.obj
 0002:000c9ba0       ??_ECNoTrackObject@@UAEPAXI@Z 00773ba0 f i nafxcwd:occmgr.obj
 0002:000c9be0       ?GetData@?$CProcessLocal@VCOccManager@@@@QAEPAVCOccManager@@XZ 00773be0 f i nafxcwd:occmgr.obj
 0002:000c9c50       ??C?$CProcessLocal@VCControlSiteFactoryMgr@@@@QAEPAVCControlSiteFactoryMgr@@XZ 00773c50 f i nafxcwd:occmgr.obj
 0002:000c9c70       ?CreateObject@?$CProcessLocal@VCOccManager@@@@SGPAVCNoTrackObject@@XZ 00773c70 f i nafxcwd:occmgr.obj
 0002:000c9cb0       ?GetData@?$CProcessLocal@VCControlSiteFactoryMgr@@@@QAEPAVCControlSiteFactoryMgr@@XZ 00773cb0 f i nafxcwd:occmgr.obj
 0002:000c9d20       ??0COccManager@@QAE@XZ     00773d20 f i nafxcwd:occmgr.obj
 0002:000c9d50       ??_GCOccManager@@UAEPAXI@Z 00773d50 f i nafxcwd:occmgr.obj
 0002:000c9d50       ??_ECOccManager@@UAEPAXI@Z 00773d50 f i nafxcwd:occmgr.obj
 0002:000c9d90       ??1COccManager@@UAE@XZ     00773d90 f i nafxcwd:occmgr.obj
 0002:000c9db0       ?CreateObject@?$CProcessLocal@VCControlSiteFactoryMgr@@@@SGPAVCNoTrackObject@@XZ 00773db0 f i nafxcwd:occmgr.obj
 0002:000c9e40       ??0?$CList@PAVIControlSiteFactory@@PAV1@@@QAE@H@Z 00773e40 f i nafxcwd:occmgr.obj
 0002:000c9f20       ?AddHead@?$CList@PAVIControlSiteFactory@@PAV1@@@QAEPAU__POSITION@@PAVIControlSiteFactory@@@Z 00773f20 f i nafxcwd:occmgr.obj
 0002:000c9fb0       ?RemoveAt@?$CList@PAVIControlSiteFactory@@PAV1@@@QAEXPAU__POSITION@@@Z 00773fb0 f i nafxcwd:occmgr.obj
 0002:000ca0f0       ?Find@?$CList@PAVIControlSiteFactory@@PAV1@@@QBEPAU__POSITION@@PAVIControlSiteFactory@@PAU2@@Z 007740f0 f i nafxcwd:occmgr.obj
 0002:000ca1b0       ?FreeNode@?$CList@PAVIControlSiteFactory@@PAV1@@@IAEXPAUCNode@1@@Z 007741b0 f i nafxcwd:occmgr.obj
 0002:000ca230       ??$CompareElements@PAVIControlSiteFactory@@PAV1@@@YGHPBQAVIControlSiteFactory@@0@Z 00774230 f i nafxcwd:occmgr.obj
 0002:000ca320       ??0CNoTrackObject@@QAE@XZ  00774320 f i nafxcwd:occmgr.obj
 0002:000ca340       ??1IControlSiteFactory@@UAE@XZ 00774340 f i nafxcwd:occmgr.obj
 0002:000ca360       ??_GIControlSiteFactory@@UAEPAXI@Z 00774360 f i nafxcwd:occmgr.obj
 0002:000ca360       ??_EIControlSiteFactory@@UAEPAXI@Z 00774360 f i nafxcwd:occmgr.obj
 0002:000ca3a0       ??1?$CList@PAVIControlSiteFactory@@PAV1@@@UAE@XZ 007743a0 f i nafxcwd:occmgr.obj
 0002:000ca440       ?Serialize@?$CList@PAVIControlSiteFactory@@PAV1@@@UAEXAAVCArchive@@@Z 00774440 f i nafxcwd:occmgr.obj
 0002:000ca560       ?Dump@?$CList@PAVIControlSiteFactory@@PAV1@@@UBEXAAVCDumpContext@@@Z 00774560 f i nafxcwd:occmgr.obj
 0002:000ca630       ?AssertValid@?$CList@PAVIControlSiteFactory@@PAV1@@@UBEXXZ 00774630 f i nafxcwd:occmgr.obj
 0002:000ca710       ??_E?$CList@PAVIControlSiteFactory@@PAV1@@@UAEPAXI@Z 00774710 f i nafxcwd:occmgr.obj
 0002:000ca710       ??_G?$CList@PAVIControlSiteFactory@@PAV1@@@UAEPAXI@Z 00774710 f i nafxcwd:occmgr.obj
 0002:000ca750       ?AddTail@?$CList@PAVIControlSiteFactory@@PAV1@@@QAEPAU__POSITION@@PAVIControlSiteFactory@@@Z 00774750 f i nafxcwd:occmgr.obj
 0002:000ca7e0       ?RemoveAll@?$CList@PAVIControlSiteFactory@@PAV1@@@QAEXXZ 007747e0 f i nafxcwd:occmgr.obj
 0002:000ca880       ?GetHeadPosition@?$CList@PAVIControlSiteFactory@@PAV1@@@QBEPAU__POSITION@@XZ 00774880 f i nafxcwd:occmgr.obj
 0002:000ca8a0       ?GetNext@?$CList@PAVIControlSiteFactory@@PAV1@@@QAEAAPAVIControlSiteFactory@@AAPAU__POSITION@@@Z 007748a0 f i nafxcwd:occmgr.obj
 0002:000ca910       ??$SerializeElements@PAVIControlSiteFactory@@@@YGXAAVCArchive@@PAPAVIControlSiteFactory@@H@Z 00774910 f i nafxcwd:occmgr.obj
 0002:000caab0       ??$DumpElements@PAVIControlSiteFactory@@@@YGXAAVCDumpContext@@PBQAVIControlSiteFactory@@H@Z 00774ab0 f i nafxcwd:occmgr.obj
 0002:000cab60       ?NewNode@?$CList@PAVIControlSiteFactory@@PAV1@@@IAEPAUCNode@1@PAU21@0@Z 00774b60 f i nafxcwd:occmgr.obj
 0002:000cace0       ?data@CPlex@@QAEPAXXZ      00774ce0 f i nafxcwd:occmgr.obj
 0002:000cad00       ??1?$CProcessLocal@VCOccManager@@@@QAE@XZ 00774d00 f i nafxcwd:occmgr.obj
 0002:000cad20       ??1?$CProcessLocal@VCControlSiteFactoryMgr@@@@QAE@XZ 00774d20 f i nafxcwd:occmgr.obj
 0002:000cad40       ??1_AFX_SOCK_STATE@@UAE@XZ 00774d40 f   nafxcwd:sockcore.obj
 0002:000cadc0       ??_G_AFX_SOCK_STATE@@UAEPAXI@Z 00774dc0 f i nafxcwd:sockcore.obj
 0002:000cadc0       ??_E_AFX_SOCK_STATE@@UAEPAXI@Z 00774dc0 f i nafxcwd:sockcore.obj
 0002:000cae00       ?AfxSocketTerm@@YGXXZ      00774e00 f   nafxcwd:sockcore.obj
 0002:000cae60       ?AfxSocketInit@@YGHPAUWSAData@@@Z 00774e60 f   nafxcwd:sockcore.obj
 0002:000cb150       ??0CAsyncSocket@@QAE@XZ    00775150 f   nafxcwd:sockcore.obj
 0002:000cb190       ??_ECAsyncSocket@@UAEPAXI@Z 00775190 f i nafxcwd:sockcore.obj
 0002:000cb190       ??_GCAsyncSocket@@UAEPAXI@Z 00775190 f i nafxcwd:sockcore.obj
 0002:000cb1d0       ?Create@CAsyncSocket@@QAEHIHJPBD@Z 007751d0 f   nafxcwd:sockcore.obj
 0002:000cb250       ?Attach@CAsyncSocket@@QAEHIJ@Z 00775250 f   nafxcwd:sockcore.obj
 0002:000cb2d0       ?Detach@CAsyncSocket@@QAEIXZ 007752d0 f   nafxcwd:sockcore.obj
 0002:000cb330       ?GetPeerName@CAsyncSocket@@QAEHAAV?$CStringT@DV?$StrTraitMFC@DV?$ChTraitsCRT@D@ATL@@@@@ATL@@AAI@Z 00775330 f   nafxcwd:sockcore.obj
 0002:000cb3d0       ?GetSockName@CAsyncSocket@@QAEHAAV?$CStringT@DV?$StrTraitMFC@DV?$ChTraitsCRT@D@ATL@@@@@ATL@@AAI@Z 007753d0 f   nafxcwd:sockcore.obj
 0002:000cb470       ?Accept@CAsyncSocket@@UAEHAAV1@PAUsockaddr@@PAH@Z 00775470 f   nafxcwd:sockcore.obj
 0002:000cb5a0       ?Bind@CAsyncSocket@@QAEHIPBD@Z 007755a0 f   nafxcwd:sockcore.obj
 0002:000cb760       ?Close@CAsyncSocket@@UAEXXZ 00775760 f   nafxcwd:sockcore.obj
 0002:000cb7d0       ?Connect@CAsyncSocket@@QAEHPBDI@Z 007757d0 f   nafxcwd:sockcore.obj
 0002:000cb9e0       ?Receive@CAsyncSocket@@UAEHPAXHH@Z 007759e0 f   nafxcwd:sockcore.obj
 0002:000cba20       ?ReceiveFrom@CAsyncSocket@@QAEHPAXHAAV?$CStringT@DV?$StrTraitMFC@DV?$ChTraitsCRT@D@ATL@@@@@ATL@@AAIH@Z 00775a20 f   nafxcwd:sockcore.obj
 0002:000cbad0       ?Send@CAsyncSocket@@UAEHPBXHH@Z 00775ad0 f   nafxcwd:sockcore.obj
 0002:000cbb10       ?SendTo@CAsyncSocket@@QAEHPBXHIPBDH@Z 00775b10 f   nafxcwd:sockcore.obj
 0002:000cbd00       ?AsyncSelect@CAsyncSocket@@QAEHJ@Z 00775d00 f   nafxcwd:sockcore.obj
 0002:000cbda0       ?OnReceive@CAsyncSocket@@MAEXH@Z 00775da0 f   nafxcwd:sockcore.obj
 0002:000cbdc0       ?OnSend@CAsyncSocket@@MAEXH@Z 00775dc0 f   nafxcwd:sockcore.obj
 0002:000cbde0       ?OnOutOfBandData@CAsyncSocket@@MAEXH@Z 00775de0 f   nafxcwd:sockcore.obj
 0002:000cbe00       ?OnAccept@CAsyncSocket@@MAEXH@Z 00775e00 f   nafxcwd:sockcore.obj
 0002:000cbe20       ?OnConnect@CAsyncSocket@@MAEXH@Z 00775e20 f   nafxcwd:sockcore.obj
 0002:000cbe40       ?OnClose@CAsyncSocket@@MAEXH@Z 00775e40 f   nafxcwd:sockcore.obj
 0002:000cbe60       ??1CAsyncSocket@@UAE@XZ    00775e60 f   nafxcwd:sockcore.obj
 0002:000cc0a0       ?LookupHandle@CAsyncSocket@@SGPAV1@IH@Z 007760a0 f   nafxcwd:sockcore.obj
 0002:000cc110       ?AttachHandle@CAsyncSocket@@SGXIPAV1@H@Z 00776110 f   nafxcwd:sockcore.obj
 0002:000cc500       ?DetachHandle@CAsyncSocket@@SGXIH@Z 00776500 f   nafxcwd:sockcore.obj
 0002:000cc6e0       ?KillSocket@CAsyncSocket@@SGXIPAV1@@Z 007766e0 f   nafxcwd:sockcore.obj
 0002:000cc770       ?DoCallBack@CAsyncSocket@@SGXIJ@Z 00776770 f   nafxcwd:sockcore.obj
 0002:000ccab0       ?Socket@CAsyncSocket@@QAEHHJHH@Z 00776ab0 f   nafxcwd:sockcore.obj
 0002:000ccb40       ?AssertValid@CAsyncSocket@@UBEXXZ 00776b40 f   nafxcwd:sockcore.obj
 0002:000ccba0       ?Dump@CAsyncSocket@@UBEXAAVCDumpContext@@@Z 00776ba0 f   nafxcwd:sockcore.obj
 0002:000ccc20       ?ReceiveFromHelper@CAsyncSocket@@MAEHPAXHPAUsockaddr@@PAHH@Z 00776c20 f   nafxcwd:sockcore.obj
 0002:000ccc60       ?SendToHelper@CAsyncSocket@@MAEHPBXHPBUsockaddr@@HH@Z 00776c60 f   nafxcwd:sockcore.obj
 0002:000ccca0       ?ConnectHelper@CAsyncSocket@@MAEHPBUsockaddr@@H@Z 00776ca0 f   nafxcwd:sockcore.obj
 0002:000ccce0       ??0CSocket@@QAE@XZ         00776ce0 f   nafxcwd:sockcore.obj
 0002:000ccd30       ??_GCSocket@@UAEPAXI@Z     00776d30 f i nafxcwd:sockcore.obj
 0002:000ccd30       ??_ECSocket@@UAEPAXI@Z     00776d30 f i nafxcwd:sockcore.obj
 0002:000ccd70       ?CancelBlockingCall@CSocket@@QAEXXZ 00776d70 f   nafxcwd:sockcore.obj
 0002:000ccdb0       ?OnMessagePending@CSocket@@MAEHXZ 00776db0 f   nafxcwd:sockcore.obj
 0002:000cce00       ??1CSocket@@UAE@XZ         00776e00 f   nafxcwd:sockcore.obj
 0002:000cd040       ?Accept@CSocket@@UAEHAAVCAsyncSocket@@PAUsockaddr@@PAH@Z 00777040 f   nafxcwd:sockcore.obj
 0002:000cd0d0       ?Close@CSocket@@UAEXXZ     007770d0 f   nafxcwd:sockcore.obj
 0002:000cd140       ?Receive@CSocket@@UAEHPAXHH@Z 00777140 f   nafxcwd:sockcore.obj
 0002:000cd1e0       ?Send@CSocket@@UAEHPBXHH@Z 007771e0 f   nafxcwd:sockcore.obj
 0002:000cd280       ?SendChunk@CSocket@@QAEHPBXHH@Z 00777280 f   nafxcwd:sockcore.obj
 0002:000cd300       ?ConnectHelper@CSocket@@MAEHPBUsockaddr@@H@Z 00777300 f   nafxcwd:sockcore.obj
 0002:000cd3c0       ?ReceiveFromHelper@CSocket@@MAEHPAXHPAUsockaddr@@PAHH@Z 007773c0 f   nafxcwd:sockcore.obj
 0002:000cd460       ?SendToHelper@CSocket@@MAEHPBXHPBUsockaddr@@HH@Z 00777460 f   nafxcwd:sockcore.obj
 0002:000cd500       ?ProcessAuxQueue@CSocket@@SGHXZ 00777500 f   nafxcwd:sockcore.obj
 0002:000cd620       ?AuxQueueAdd@CSocket@@KGXIIJ@Z 00777620 f   nafxcwd:sockcore.obj
 0002:000cd6a0       ?PumpMessages@CSocket@@MAEHI@Z 007776a0 f   nafxcwd:sockcore.obj
 0002:000cda70       ?AssertValid@CSocket@@MBEXXZ 00777a70 f   nafxcwd:sockcore.obj
 0002:000cda90       ?Dump@CSocket@@MBEXAAVCDumpContext@@@Z 00777a90 f   nafxcwd:sockcore.obj
 0002:000cdb20       ??0CSocketFile@@QAE@PAVCSocket@@H@Z 00777b20 f   nafxcwd:sockcore.obj
 0002:000cdc80       ??_ECSocketFile@@UAEPAXI@Z 00777c80 f i nafxcwd:sockcore.obj
 0002:000cdc80       ??_GCSocketFile@@UAEPAXI@Z 00777c80 f i nafxcwd:sockcore.obj
 0002:000cdcc0       ??1CSocketFile@@UAE@XZ     00777cc0 f   nafxcwd:sockcore.obj
 0002:000cdcf0       ?Read@CSocketFile@@UAEIPAXI@Z 00777cf0 f   nafxcwd:sockcore.obj
 0002:000cde50       ?Write@CSocketFile@@UAEXPBXI@Z 00777e50 f   nafxcwd:sockcore.obj
 0002:000cdf10       ?Close@CSocketFile@@UAEXXZ 00777f10 f   nafxcwd:sockcore.obj
 0002:000cdf30       ?Open@CSocketFile@@UAEHPBDIPAVCFileException@@@Z 00777f30 f   nafxcwd:sockcore.obj
 0002:000cdf50       ?Duplicate@CSocketFile@@UBEPAVCFile@@XZ 00777f50 f   nafxcwd:sockcore.obj
 0002:000cdf70       ?GetPosition@CSocketFile@@UBE_KXZ 00777f70 f   nafxcwd:sockcore.obj
 0002:000cdf90       ?Seek@CSocketFile@@UAE_K_JI@Z 00777f90 f   nafxcwd:sockcore.obj
 0002:000ce000       ?SetLength@CSocketFile@@UAEX_K@Z 00778000 f   nafxcwd:sockcore.obj
 0002:000ce020       ?GetLength@CSocketFile@@UBE_KXZ 00778020 f   nafxcwd:sockcore.obj
 0002:000ce040       ?LockRange@CSocketFile@@UAEX_K0@Z 00778040 f   nafxcwd:sockcore.obj
 0002:000ce060       ?UnlockRange@CSocketFile@@UAEX_K0@Z 00778060 f   nafxcwd:sockcore.obj
 0002:000ce080       ?Flush@CSocketFile@@UAEXXZ 00778080 f   nafxcwd:sockcore.obj
 0002:000ce090       ?Abort@CSocketFile@@UAEXXZ 00778090 f   nafxcwd:sockcore.obj
 0002:000ce0b0       ?GetBufferPtr@CSocketFile@@UAEIIIPAPAX0@Z 007780b0 f   nafxcwd:sockcore.obj
 0002:000ce0f0       ?AssertValid@CSocketFile@@UBEXXZ 007780f0 f   nafxcwd:sockcore.obj
 0002:000ce140       ?Dump@CSocketFile@@UBEXAAVCDumpContext@@@Z 00778140 f   nafxcwd:sockcore.obj
 0002:000ce1b0       ??0CSocketWnd@@QAE@XZ      007781b0 f   nafxcwd:sockcore.obj
 0002:000ce1e0       ??_ECSocketWnd@@UAEPAXI@Z  007781e0 f i nafxcwd:sockcore.obj
 0002:000ce1e0       ??_GCSocketWnd@@UAEPAXI@Z  007781e0 f i nafxcwd:sockcore.obj
 0002:000ce220       ??1CSocketWnd@@UAE@XZ      00778220 f i nafxcwd:sockcore.obj
 0002:000ce240       ?OnSocketNotify@CSocketWnd@@IAEJIJ@Z 00778240 f   nafxcwd:sockcore.obj
 0002:000ce280       ?OnSocketDead@CSocketWnd@@IAEJIJ@Z 00778280 f   nafxcwd:sockcore.obj
 0002:000ce2c0       ?GetMessageMap@CSocketWnd@@MBEPBUAFX_MSGMAP@@XZ 007782c0 f   nafxcwd:sockcore.obj
 0002:000ce2e0       ?GetThisMessageMap@CSocketWnd@@KGPBUAFX_MSGMAP@@XZ 007782e0 f   nafxcwd:sockcore.obj
 0002:000ce2f0       ??BCAsyncSocket@@QBEIXZ    007782f0 f   nafxcwd:sockcore.obj
 0002:000ce310       ?GetPeerName@CAsyncSocket@@QAEHPAUsockaddr@@PAH@Z 00778310 f   nafxcwd:sockcore.obj
 0002:000ce350       ?GetSockName@CAsyncSocket@@QAEHPAUsockaddr@@PAH@Z 00778350 f   nafxcwd:sockcore.obj
 0002:000ce390       ?SetSockOpt@CAsyncSocket@@QAEHHPBXHH@Z 00778390 f   nafxcwd:sockcore.obj
 0002:000ce3e0       ?GetSockOpt@CAsyncSocket@@QAEHHPAXPAHH@Z 007783e0 f   nafxcwd:sockcore.obj
 0002:000ce430       ?FromHandle@CAsyncSocket@@SGPAV1@I@Z 00778430 f   nafxcwd:sockcore.obj
 0002:000ce450       ?GetLastError@CAsyncSocket@@SGHXZ 00778450 f   nafxcwd:sockcore.obj
 0002:000ce460       ?Bind@CAsyncSocket@@QAEHPBUsockaddr@@H@Z 00778460 f   nafxcwd:sockcore.obj
 0002:000ce4a0       ?Connect@CAsyncSocket@@QAEHPBUsockaddr@@H@Z 007784a0 f   nafxcwd:sockcore.obj
 0002:000ce4d0       ?IOCtl@CAsyncSocket@@QAEHJPAK@Z 007784d0 f   nafxcwd:sockcore.obj
 0002:000ce510       ?Listen@CAsyncSocket@@QAEHH@Z 00778510 f   nafxcwd:sockcore.obj
 0002:000ce550       ?ReceiveFrom@CAsyncSocket@@QAEHPAXHPAUsockaddr@@PAHH@Z 00778550 f   nafxcwd:sockcore.obj
 0002:000ce590       ?ShutDown@CAsyncSocket@@QAEHH@Z 00778590 f   nafxcwd:sockcore.obj
 0002:000ce5d0       ?SendTo@CAsyncSocket@@QAEHPBXHPBUsockaddr@@HH@Z 007785d0 f   nafxcwd:sockcore.obj
 0002:000ce610       ?Create@CSocket@@QAEHIHPBD@Z 00778610 f   nafxcwd:sockcore.obj
 0002:000ce640       ?IsBlocking@CSocket@@QAEHXZ 00778640 f   nafxcwd:sockcore.obj
 0002:000ce670       ?FromHandle@CSocket@@SGPAV1@I@Z 00778670 f   nafxcwd:sockcore.obj
 0002:000ce690       ?Attach@CSocket@@QAEHI@Z   00778690 f   nafxcwd:sockcore.obj
 0002:000ce6c0       ?T2A_EX@@YAPADPADI@Z       007786c0 f i nafxcwd:sockcore.obj
 0002:000ce6d0       ?GetRuntimeClass@CAsyncSocket@@UBEPAUCRuntimeClass@@XZ 007786d0 f   nafxcwd:sockcore.obj
 0002:000ce6f0       ?GetRuntimeClass@CSocket@@UBEPAUCRuntimeClass@@XZ 007786f0 f   nafxcwd:sockcore.obj
 0002:000ce710       ?GetRuntimeClass@CSocketFile@@UBEPAUCRuntimeClass@@XZ 00778710 f   nafxcwd:sockcore.obj
 0002:000ce730       ?GetData@?$CProcessLocal@V_AFX_SOCK_STATE@@@@QAEPAV_AFX_SOCK_STATE@@XZ 00778730 f i nafxcwd:sockcore.obj
 0002:000ce7a0       ?CreateObject@?$CProcessLocal@V_AFX_SOCK_STATE@@@@SGPAVCNoTrackObject@@XZ 007787a0 f i nafxcwd:sockcore.obj
 0002:000ce7e0       ??0_AFX_SOCK_STATE@@QAE@XZ 007787e0 f i nafxcwd:sockcore.obj
 0002:000ce810       ??1?$CProcessLocal@V_AFX_SOCK_STATE@@@@QAE@XZ 00778810 f i nafxcwd:sockcore.obj
 0002:000ce830       ?GetRuntimeClass@CDialogEx@@UBEPAUCRuntimeClass@@XZ 00778830 f   nafxcwd:afxdialogex.obj
 0002:000ce850       ??0CDialogEx@@QAE@XZ       00778850 f   nafxcwd:afxdialogex.obj
 0002:000ce910       ??_ECDialogEx@@UAEPAXI@Z   00778910 f i nafxcwd:afxdialogex.obj
 0002:000ce910       ??_GCDialogEx@@UAEPAXI@Z   00778910 f i nafxcwd:afxdialogex.obj
 0002:000ce950       ??0CDialogEx@@QAE@IPAVCWnd@@@Z 00778950 f   nafxcwd:afxdialogex.obj
 0002:000cea20       ??0CDialogEx@@QAE@PBDPAVCWnd@@@Z 00778a20 f   nafxcwd:afxdialogex.obj
 0002:000ceaf0       ?CommonConstruct@CDialogEx@@IAEXXZ 00778af0 f   nafxcwd:afxdialogex.obj
 0002:000ceb60       ?SetBackgroundColor@CDialogEx@@QAEXKH@Z 00778b60 f   nafxcwd:afxdialogex.obj
 0002:000cebf0       ?SetBackgroundImage@CDialogEx@@QAEXPAUHBITMAP__@@W4BackgroundLocation@1@HH@Z 00778bf0 f   nafxcwd:afxdialogex.obj
 0002:000ced10       ?SetBackgroundImage@CDialogEx@@QAEHIW4BackgroundLocation@1@H@Z 00778d10 f   nafxcwd:afxdialogex.obj
 0002:000ceda0       ?GetMessageMap@CDialogEx@@MBEPBUAFX_MSGMAP@@XZ 00778da0 f   nafxcwd:afxdialogex.obj
 0002:000cedc0       ?GetThisMessageMap@CDialogEx@@KGPBUAFX_MSGMAP@@XZ 00778dc0 f   nafxcwd:afxdialogex.obj
 0002:000cedd0       ?OnActivate@CDialogEx@@IAEXIPAVCWnd@@H@Z 00778dd0 f   nafxcwd:afxdialogex.obj
 0002:000cee00       ?OnNcActivate@CDialogEx@@IAEHH@Z 00778e00 f   nafxcwd:afxdialogex.obj
 0002:000cee50       ?OnEraseBkgnd@CDialogEx@@IAEHPAVCDC@@@Z 00778e50 f   nafxcwd:afxdialogex.obj
 0002:000cf170       ?OnDestroy@CDialogEx@@IAEXXZ 00779170 f   nafxcwd:afxdialogex.obj
 0002:000cf1e0       ?OnCtlColor@CDialogEx@@IAEPAUHBRUSH__@@PAVCDC@@PAVCWnd@@I@Z 007791e0 f   nafxcwd:afxdialogex.obj
 0002:000cf3d0       ?PreTranslateMessage@CDialogEx@@UAEHPAUtagMSG@@@Z 007793d0 f   nafxcwd:afxdialogex.obj
 0002:000cf420       ?SetActiveMenu@CDialogEx@@IAEXPAVCMFCPopupMenu@@@Z 00779420 f   nafxcwd:afxdialogex.obj
 0002:000cf450       ?OnCommand@CDialogEx@@MAEHIJ@Z 00779450 f   nafxcwd:afxdialogex.obj
 0002:000cf4a0       ?OnSysColorChange@CDialogEx@@IAEXXZ 007794a0 f   nafxcwd:afxdialogex.obj
 0002:000cf4e0       ?OnSettingChange@CDialogEx@@IAEXIPBD@Z 007794e0 f   nafxcwd:afxdialogex.obj
 0002:000cf520       ??0CWnd@@QAE@XZ            00779520 f   nafxcwd:wincore.obj
 0002:000cf670       ??_ECWnd@@UAEPAXI@Z        00779670 f i nafxcwd:wincore.obj
 0002:000cf670       ??_GCWnd@@UAEPAXI@Z        00779670 f i nafxcwd:wincore.obj
 0002:000cf6b0       ??0XAccessible@CWnd@@QAE@XZ 007796b0 f i nafxcwd:wincore.obj
 0002:000cf6d0       ??0XAccessibleServer@CWnd@@QAE@XZ 007796d0 f i nafxcwd:wincore.obj
 0002:000cf6f0       ??0CWnd@@AAE@PAUHWND__@@@Z 007796f0 f   nafxcwd:wincore.obj
 0002:000cf830       ?_AfxModifyStyle@@YGHPAUHWND__@@HKKI@Z 00779830 f   nafxcwd:wincore.obj
 0002:000cf8e0       ?ModifyStyle@CWnd@@SGHPAUHWND__@@KKI@Z 007798e0 f   nafxcwd:wincore.obj
 0002:000cf910       ?ModifyStyleEx@CWnd@@SGHPAUHWND__@@KKI@Z 00779910 f   nafxcwd:wincore.obj
 0002:000cf940       ?_AfxPreInitDialog@@YGXPAVCWnd@@PAUtagRECT@@PAK@Z 00779940 f   nafxcwd:wincore.obj
 0002:000cf9b0       ?_AfxPostInitDialog@@YGXPAVCWnd@@ABUtagRECT@@K@Z 007799b0 f   nafxcwd:wincore.obj
 0002:000cfa90       ?_AfxHandleActivate@@YGXPAVCWnd@@I0@Z 00779a90 f   nafxcwd:wincore.obj
 0002:000cfb50       ?_AfxHandleSetCursor@@YGHPAVCWnd@@II@Z 00779b50 f   nafxcwd:wincore.obj
 0002:000cfbf0       ?AfxCallWndProc@@YGJPAVCWnd@@PAUHWND__@@IIJ@Z 00779bf0 f   nafxcwd:wincore.obj
 0002:000cfe50       ?GetCurrentMessage@CWnd@@KGPBUtagMSG@@XZ 00779e50 f   nafxcwd:wincore.obj
 0002:000cfeb0       ?Default@CWnd@@IAEJXZ      00779eb0 f   nafxcwd:wincore.obj
 0002:000cff10       ?afxMapHWND@@YGPAVCHandleMap@@H@Z 00779f10 f   nafxcwd:wincore.obj
 0002:000d0030       ?FromHandle@CWnd@@SGPAV1@PAUHWND__@@@Z 0077a030 f   nafxcwd:wincore.obj
 0002:000d00d0       ?FromHandlePermanent@CWnd@@SGPAV1@PAUHWND__@@@Z 0077a0d0 f   nafxcwd:wincore.obj
 0002:000d0150       ?Attach@CWnd@@QAEHPAUHWND__@@@Z 0077a150 f   nafxcwd:wincore.obj
 0002:000d0220       ?Detach@CWnd@@QAEPAUHWND__@@XZ 0077a220 f   nafxcwd:wincore.obj
 0002:000d0290       ?PreSubclassWindow@CWnd@@UAEXXZ 0077a290 f   nafxcwd:wincore.obj
 0002:000d02a0       ?GetMenu@CWnd@@UBEPAVCMenu@@XZ 0077a2a0 f   nafxcwd:wincore.obj
 0002:000d0300       ?SetMenu@CWnd@@UAEHPAVCMenu@@@Z 0077a300 f   nafxcwd:wincore.obj
 0002:000d0360       ?AfxWndProc@@YGJPAUHWND__@@IIJ@Z 0077a360 f   nafxcwd:wincore.obj
 0002:000d0440       ?AfxGetAfxWndProc@@YGP6GJPAUHWND__@@IIJ@ZXZ 0077a440 f   nafxcwd:wincore.obj
 0002:000d0450       ?_AfxActivationWndProc@@YGJPAUHWND__@@IIJ@Z 0077a450 f   nafxcwd:wincore.obj
 0002:000d07b0       ?_AfxCbtFilterHook@@YGJHIJ@Z 0077a7b0 f   nafxcwd:wincore.obj
 0002:000d0cc0       __tcscmp                   0077acc0 f i nafxcwd:wincore.obj
 0002:000d0ce0       ?AfxHookWindowCreate@@YGXPAVCWnd@@@Z 0077ace0 f   nafxcwd:wincore.obj
 0002:000d0df0       ?AfxUnhookWindowCreate@@YGHXZ 0077adf0 f   nafxcwd:wincore.obj
 0002:000d0e70       ?CreateEx@CWnd@@UAEHKPBD0KABUtagRECT@@PAV1@IPAX@Z 0077ae70 f   nafxcwd:wincore.obj
 0002:000d0ef0       ?CreateEx@CWnd@@UAEHKPBD0KHHHHPAUHWND__@@PAUHMENU__@@PAX@Z 0077aef0 f   nafxcwd:wincore.obj
 0002:000d1140       ?PreCreateWindow@CWnd@@UAEHAAUtagCREATESTRUCTA@@@Z 0077b140 f   nafxcwd:wincore.obj
 0002:000d11f0       ?Create@CWnd@@UAEHPBD0KABUtagRECT@@PAV1@IPAUCCreateContext@@@Z 0077b1f0 f   nafxcwd:wincore.obj
 0002:000d12c0       ??1CWnd@@UAE@XZ            0077b2c0 f   nafxcwd:wincore.obj
 0002:000d1480       ?OnDestroy@CWnd@@IAEXXZ    0077b480 f   nafxcwd:wincore.obj
 0002:000d15f0       ?OnNcDestroy@CWnd@@IAEXXZ  0077b5f0 f   nafxcwd:wincore.obj
 0002:000d1850       ?PostNcDestroy@CWnd@@MAEXXZ 0077b850 f   nafxcwd:wincore.obj
 0002:000d1860       ?OnFinalRelease@CWnd@@UAEXXZ 0077b860 f   nafxcwd:wincore.obj
 0002:000d18b0       ?AssertValid@CWnd@@UBEXXZ  0077b8b0 f   nafxcwd:wincore.obj
 0002:000d1a60       ?Dump@CWnd@@UBEXAAVCDumpContext@@@Z 0077ba60 f   nafxcwd:wincore.obj
 0002:000d1d10       ?DestroyWindow@CWnd@@UAEHXZ 0077bd10 f   nafxcwd:wincore.obj
 0002:000d1eb0       ?DefWindowProcA@CWnd@@MAEJIIJ@Z 0077beb0 f   nafxcwd:wincore.obj
 0002:000d1f70       ?GetSuperWndProcAddr@CWnd@@MAEPAP6GJPAUHWND__@@IIJ@ZXZ 0077bf70 f   nafxcwd:wincore.obj
 0002:000d1f90       ?PreTranslateMessage@CWnd@@UAEHPAUtagMSG@@@Z 0077bf90 f   nafxcwd:wincore.obj
 0002:000d1fe0       ?CancelToolTips@CWnd@@SGXH@Z 0077bfe0 f   nafxcwd:wincore.obj
 0002:000d2070       ?OnToolHitTest@CWnd@@UBEHVCPoint@@PAUtagTOOLINFOA@@@Z 0077c070 f   nafxcwd:wincore.obj
 0002:000d2160       ?GetWindowTextA@CWnd@@QBEXAAV?$CStringT@DV?$StrTraitMFC@DV?$ChTraitsCRT@D@ATL@@@@@ATL@@@Z 0077c160 f   nafxcwd:wincore.obj
 0002:000d2220       ?GetDlgItemTextA@CWnd@@QBEHHAAV?$CStringT@DV?$StrTraitMFC@DV?$ChTraitsCRT@D@ATL@@@@@ATL@@@Z 0077c220 f   nafxcwd:wincore.obj
 0002:000d2320       ?GetWindowPlacement@CWnd@@QBEHPAUtagWINDOWPLACEMENT@@@Z 0077c320 f   nafxcwd:wincore.obj
 0002:000d2390       ?SetWindowPlacement@CWnd@@QAEHPBUtagWINDOWPLACEMENT@@@Z 0077c390 f   nafxcwd:wincore.obj
 0002:000d2400       ?OnDrawItem@CWnd@@IAEXHPAUtagDRAWITEMSTRUCT@@@Z 0077c400 f   nafxcwd:wincore.obj
 0002:000d2480       ?OnCompareItem@CWnd@@IAEHHPAUtagCOMPAREITEMSTRUCT@@@Z 0077c480 f   nafxcwd:wincore.obj
 0002:000d24c0       ?OnDeleteItem@CWnd@@IAEXHPAUtagDELETEITEMSTRUCT@@@Z 0077c4c0 f   nafxcwd:wincore.obj
 0002:000d2500       ?OnCharToItem@CWnd@@IAEHIPAVCListBox@@I@Z 0077c500 f   nafxcwd:wincore.obj
 0002:000d2550       ?OnVKeyToItem@CWnd@@IAEHIPAVCListBox@@I@Z 0077c550 f   nafxcwd:wincore.obj
 0002:000d25a0       ?TrackPopupMenu@CMenu@@QAEHIHHPAVCWnd@@PBUtagRECT@@@Z 0077c5a0 f   nafxcwd:wincore.obj
 0002:000d2670       ?TrackPopupMenuEx@CMenu@@QAEHIHHPAVCWnd@@PAUtagTPMPARAMS@@@Z 0077c670 f   nafxcwd:wincore.obj
 0002:000d2740       ?_AfxFindPopupMenuFromID@@YGPAVCMenu@@PAV1@I@Z 0077c740 f   nafxcwd:wincore.obj
 0002:000d2850       ?OnMeasureItem@CWnd@@IAEXHPAUtagMEASUREITEMSTRUCT@@@Z 0077c850 f   nafxcwd:wincore.obj
 0002:000d29f0       ?AfxRegisterClass@@YGHPAUtagWNDCLASSA@@@Z 0077c9f0 f   nafxcwd:wincore.obj
 0002:000d2bb0       ?AfxRegisterWndClass@@YGPBDIPAUHICON__@@PAUHBRUSH__@@0@Z 0077cbb0 f   nafxcwd:wincore.obj
 0002:000d2da0       ?OnNTCtlColor@CWnd@@IAEJIJ@Z 0077cda0 f   nafxcwd:wincore.obj
 0002:000d2e30       ?RegisterTouchWindow@CWnd@@QAEHHK@Z 0077ce30 f   nafxcwd:wincore.obj
 0002:000d2ff0       ?IsTouchWindow@CWnd@@QBEHXZ 0077cff0 f   nafxcwd:wincore.obj
 0002:000d3130       ?OnTabletQuerySystemGestureStatus@CWnd@@IAEJIJ@Z 0077d130 f   nafxcwd:wincore.obj
 0002:000d31a0       ?GetGestureStatus@CWnd@@MAEKVCPoint@@@Z 0077d1a0 f   nafxcwd:wincore.obj
 0002:000d31c0       ?OnTouchMessage@CWnd@@IAEJIJ@Z 0077d1c0 f   nafxcwd:wincore.obj
 0002:000d3490       ?OnTouchInputs@CWnd@@MAEHIPAUtagTOUCHINPUT@@@Z 0077d490 f   nafxcwd:wincore.obj
 0002:000d3560       ?OnTouchInput@CWnd@@MAEHVCPoint@@HHPAUtagTOUCHINPUT@@@Z 0077d560 f   nafxcwd:wincore.obj
 0002:000d35a0       ?SetGestureConfig@CWnd@@QAEHPAVCGestureConfig@@@Z 0077d5a0 f   nafxcwd:wincore.obj
 0002:000d3730       ?GetGestureConfig@CWnd@@QAEHPAVCGestureConfig@@@Z 0077d730 f   nafxcwd:wincore.obj
 0002:000d3910       ?OnGesture@CWnd@@IAEJIJ@Z  0077d910 f   nafxcwd:wincore.obj
 0002:000d3e60       ?OnGestureZoom@CWnd@@MAEHVCPoint@@J@Z 0077de60 f   nafxcwd:wincore.obj
 0002:000d3e80       ?OnGesturePan@CWnd@@MAEHVCPoint@@0@Z 0077de80 f   nafxcwd:wincore.obj
 0002:000d3ea0       ?OnGestureRotate@CWnd@@MAEHVCPoint@@N@Z 0077dea0 f   nafxcwd:wincore.obj
 0002:000d3ec0       ?OnGestureTwoFingerTap@CWnd@@MAEHVCPoint@@@Z 0077dec0 f   nafxcwd:wincore.obj
 0002:000d3ee0       ?OnGesturePressAndTap@CWnd@@MAEHVCPoint@@J@Z 0077dee0 f   nafxcwd:wincore.obj
 0002:000d3f00       ?WinHelpA@CWnd@@UAEXKI@Z   0077df00 f   nafxcwd:wincore.obj
 0002:000d4080       ?HtmlHelpA@CWnd@@UAEXKI@Z  0077e080 f   nafxcwd:wincore.obj
 0002:000d4200       ?PrepareForHelp@CWnd@@QAEXXZ 0077e200 f   nafxcwd:wincore.obj
 0002:000d42d0       ??1_AFX_HTMLHELP_STATE@@UAE@XZ 0077e2d0 f   nafxcwd:wincore.obj
 0002:000d4320       ??_E_AFX_HTMLHELP_STATE@@UAEPAXI@Z 0077e320 f i nafxcwd:wincore.obj
 0002:000d4320       ??_G_AFX_HTMLHELP_STATE@@UAEPAXI@Z 0077e320 f i nafxcwd:wincore.obj
 0002:000d4360       ?AfxHtmlHelp@@YGPAUHWND__@@PAU1@PBDIK@Z 0077e360 f   nafxcwd:wincore.obj
 0002:000d4460       ?WinHelpInternal@CWnd@@UAEXKI@Z 0077e460 f   nafxcwd:wincore.obj
 0002:000d4550       ?GetMessageMap@CWnd@@MBEPBUAFX_MSGMAP@@XZ 0077e550 f   nafxcwd:wincore.obj
 0002:000d4570       ?GetThisMessageMap@CWnd@@KGPBUAFX_MSGMAP@@XZ 0077e570 f   nafxcwd:wincore.obj
 0002:000d4580       ?AfxFindMessageEntry@@YGPBUAFX_MSGMAP_ENTRY@@PBU1@III@Z 0077e580 f   nafxcwd:wincore.obj
 0002:000d45e0       ?AfxResetMsgCache@@YGXXZ   0077e5e0 f   nafxcwd:wincore.obj
 0002:000d4610       ?WindowProc@CWnd@@MAEJIIJ@Z 0077e610 f   nafxcwd:wincore.obj
 0002:000d4690       ?OnWndMsg@CWnd@@MAEHIIJPAJ@Z 0077e690 f   nafxcwd:wincore.obj
 0002:000d5e70       ??0CTestCmdUI@@QAE@XZ      0077fe70 f   nafxcwd:wincore.obj
 0002:000d5eb0       ?Enable@CTestCmdUI@@UAEXH@Z 0077feb0 f   nafxcwd:wincore.obj
 0002:000d5ee0       ?SetCheck@CTestCmdUI@@UAEXH@Z 0077fee0 f   nafxcwd:wincore.obj
 0002:000d5f00       ?SetRadio@CTestCmdUI@@UAEXH@Z 0077ff00 f   nafxcwd:wincore.obj
 0002:000d5f20       ?SetText@CTestCmdUI@@UAEXPBD@Z 0077ff20 f   nafxcwd:wincore.obj
 0002:000d5f40       ?OnCommand@CWnd@@MAEHIJ@Z  0077ff40 f   nafxcwd:wincore.obj
 0002:000d6120       ?OnNotify@CWnd@@MAEHIJPAJ@Z 00780120 f   nafxcwd:wincore.obj
 0002:000d6260       ?GetParentFrame@CWnd@@QBEPAVCFrameWnd@@XZ 00780260 f   nafxcwd:wincore.obj
 0002:000d62f0       ?AfxGetParentOwner@@YGPAUHWND__@@PAU1@@Z 007802f0 f   nafxcwd:wincore.obj
 0002:000d6370       ?GetTopLevelParent@CWnd@@QBEPAV1@XZ 00780370 f   nafxcwd:wincore.obj
 0002:000d63f0       ?GetTopLevelOwner@CWnd@@QBEPAV1@XZ 007803f0 f   nafxcwd:wincore.obj
 0002:000d6470       ?GetParentOwner@CWnd@@QBEPAV1@XZ 00780470 f   nafxcwd:wincore.obj
 0002:000d6500       ?IsTopParentActive@CWnd@@QBEHXZ 00780500 f   nafxcwd:wincore.obj
 0002:000d6580       ?ActivateTopParent@CWnd@@QAEXXZ 00780580 f   nafxcwd:wincore.obj
 0002:000d65f0       ?GetTopLevelFrame@CWnd@@QBEPAVCFrameWnd@@XZ 007805f0 f   nafxcwd:wincore.obj
 0002:000d6690       ?GetSafeOwner@CWnd@@SGPAV1@PAV1@PAPAUHWND__@@@Z 00780690 f   nafxcwd:wincore.obj
 0002:000d66d0       ?MessageBoxA@CWnd@@QAEHPBD0I@Z 007806d0 f   nafxcwd:wincore.obj
 0002:000d6730       ?GetDescendantWindow@CWnd@@SGPAV1@PAUHWND__@@HH@Z 00780730 f   nafxcwd:wincore.obj
 0002:000d6830       ?GetNextWindow@@YAPAUHWND__@@PAU1@I@Z 00780830 f i nafxcwd:wincore.obj
 0002:000d6850       ?SendMessageToDescendants@CWnd@@SGXPAUHWND__@@IIJHH@Z 00780850 f   nafxcwd:wincore.obj
 0002:000d6940       ?GetScrollBarCtrl@CWnd@@UBEPAVCScrollBar@@H@Z 00780940 f   nafxcwd:wincore.obj
 0002:000d6960       ?SetScrollPos@CWnd@@QAEHHHH@Z 00780960 f   nafxcwd:wincore.obj
 0002:000d69e0       ?GetScrollPos@CWnd@@QBEHH@Z 007809e0 f   nafxcwd:wincore.obj
 0002:000d6a40       ?SetScrollRange@CWnd@@QAEXHHHH@Z 00780a40 f   nafxcwd:wincore.obj
 0002:000d6ac0       ?GetScrollRange@CWnd@@QBEXHPAH0@Z 00780ac0 f   nafxcwd:wincore.obj
 0002:000d6b30       ?EnableScrollBarCtrl@CWnd@@QAEXHH@Z 00780b30 f   nafxcwd:wincore.obj
 0002:000d6bc0       ?SetScrollInfo@CWnd@@QAEHHPAUtagSCROLLINFO@@H@Z 00780bc0 f   nafxcwd:wincore.obj
 0002:000d6c70       ?GetScrollInfo@CWnd@@QAEHHPAUtagSCROLLINFO@@I@Z 00780c70 f   nafxcwd:wincore.obj
 0002:000d6d20       ?GetScrollLimit@CWnd@@QAEHH@Z 00780d20 f   nafxcwd:wincore.obj
 0002:000d6dc0       ?ScrollWindow@CWnd@@QAEXHHPBUtagRECT@@0@Z 00780dc0 f   nafxcwd:wincore.obj
 0002:000d6f30       ?RepositionBars@CWnd@@QAEXIIIIPAUtagRECT@@PBU2@H@Z 00780f30 f   nafxcwd:wincore.obj
 0002:000d7270       ?AfxRepositionWindow@@YGXPAUAFX_SIZEPARENTPARAMS@@PAUHWND__@@PBUtagRECT@@@Z 00781270 f   nafxcwd:wincore.obj
 0002:000d7430       ?CalcWindowRect@CWnd@@UAEXPAUtagRECT@@I@Z 00781430 f   nafxcwd:wincore.obj
 0002:000d7490       ?HandleFloatingSysCommand@CWnd@@QAEHIJ@Z 00781490 f   nafxcwd:wincore.obj
 0002:000d76e0       ?WalkPreTranslateTree@CWnd@@SGHPAUHWND__@@PAUtagMSG@@@Z 007816e0 f   nafxcwd:wincore.obj
 0002:000d77c0       ?SendChildNotifyLastMsg@CWnd@@QAEHPAJ@Z 007817c0 f   nafxcwd:wincore.obj
 0002:000d7820       ?ReflectLastMsg@CWnd@@KGHPAUHWND__@@PAJ@Z 00781820 f   nafxcwd:wincore.obj
 0002:000d79e0       ?OnChildNotify@CWnd@@MAEHIIJPAJ@Z 007819e0 f   nafxcwd:wincore.obj
 0002:000d7a80       ?ReflectChildNotify@CWnd@@IAEHIIJPAJ@Z 00781a80 f   nafxcwd:wincore.obj
 0002:000d7cc0       ?OnParentNotify@CWnd@@IAEXIJ@Z 00781cc0 f   nafxcwd:wincore.obj
 0002:000d7d20       ?OnSetFocus@CWnd@@IAEXPAV1@@Z 00781d20 f   nafxcwd:wincore.obj
 0002:000d7d80       ?OnActivateTopLevel@CWnd@@IAEJIJ@Z 00781d80 f   nafxcwd:wincore.obj
 0002:000d7de0       ?OnSysColorChange@CWnd@@IAEXXZ 00781de0 f   nafxcwd:wincore.obj
 0002:000d7e60       ?OnSettingChange@CWnd@@IAEXIPBD@Z 00781e60 f   nafxcwd:wincore.obj
 0002:000d7ec0       ?OnDevModeChange@CWnd@@IAEXPAD@Z 00781ec0 f   nafxcwd:wincore.obj
 0002:000d7f50       ?OnHelpInfo@CWnd@@IAEHPAUtagHELPINFO@@@Z 00781f50 f   nafxcwd:wincore.obj
 0002:000d8000       ?OnDisplayChange@CWnd@@IAEJIJ@Z 00782000 f   nafxcwd:wincore.obj
 0002:000d8080       ?OnDragList@CWnd@@IAEJIJ@Z 00782080 f   nafxcwd:wincore.obj
 0002:000d80f0       ?OnGetObject@CWnd@@IAEJIJ@Z 007820f0 f   nafxcwd:wincore.obj
 0002:000d8170       ?GetInterfaceMap@CWnd@@MBEPBUAFX_INTERFACEMAP@@XZ 00782170 f   nafxcwd:wincore.obj
 0002:000d8190       ?AddRef@XAccessible@CWnd@@UAGKXZ 00782190 f   nafxcwd:wincore.obj
 0002:000d8230       ?Release@XAccessible@CWnd@@UAGKXZ 00782230 f   nafxcwd:wincore.obj
 0002:000d82d0       ?QueryInterface@XAccessible@CWnd@@UAGJABU_GUID@@PAPAX@Z 007822d0 f   nafxcwd:wincore.obj
 0002:000d8380       ?Invoke@XAccessible@CWnd@@UAGJJABU_GUID@@KGPAUtagDISPPARAMS@@PAUtagVARIANT@@PAUtagEXCEPINFO@@PAI@Z 00782380 f   nafxcwd:wincore.obj
 0002:000d8450       ?AtlIAccessibleInvokeHelper@ATL@@YGJPAUIAccessible@@JABU_GUID@@KGPAUtagDISPPARAMS@@PAUtagVARIANT@@PAUtagEXCEPINFO@@PAI@Z 00782450 f i nafxcwd:wincore.obj
 0002:000d96d0       ?GetIDsOfNames@XAccessible@CWnd@@UAGJABU_GUID@@PAPA_WIKPAJ@Z 007836d0 f   nafxcwd:wincore.obj
 0002:000d9700       ?AtlIAccessibleGetIDsOfNamesHelper@ATL@@YGJABU_GUID@@PAPA_WIKPAJ@Z 00783700 f i nafxcwd:wincore.obj
 0002:000d97c0       ?GetTypeInfoCount@XAccessible@CWnd@@UAGJPAI@Z 007837c0 f   nafxcwd:wincore.obj
 0002:000d97f0       ?GetTypeInfo@XAccessible@CWnd@@UAGJIKPAPAUITypeInfo@@@Z 007837f0 f   nafxcwd:wincore.obj
 0002:000d9810       ?get_accParent@XAccessible@CWnd@@UAGJPAPAUIDispatch@@@Z 00783810 f   nafxcwd:wincore.obj
 0002:000d98c0       ?get_accChildCount@XAccessible@CWnd@@UAGJPAJ@Z 007838c0 f   nafxcwd:wincore.obj
 0002:000d9970       ?get_accChild@XAccessible@CWnd@@UAGJUtagVARIANT@@PAPAUIDispatch@@@Z 00783970 f   nafxcwd:wincore.obj
 0002:000d9a40       ?get_accName@XAccessible@CWnd@@UAGJUtagVARIANT@@PAPA_W@Z 00783a40 f   nafxcwd:wincore.obj
 0002:000d9b10       ?get_accValue@XAccessible@CWnd@@UAGJUtagVARIANT@@PAPA_W@Z 00783b10 f   nafxcwd:wincore.obj
 0002:000d9be0       ?get_accDescription@XAccessible@CWnd@@UAGJUtagVARIANT@@PAPA_W@Z 00783be0 f   nafxcwd:wincore.obj
 0002:000d9cb0       ?get_accRole@XAccessible@CWnd@@UAGJUtagVARIANT@@PAU3@@Z 00783cb0 f   nafxcwd:wincore.obj
 0002:000d9d80       ?get_accState@XAccessible@CWnd@@UAGJUtagVARIANT@@PAU3@@Z 00783d80 f   nafxcwd:wincore.obj
 0002:000d9e50       ?get_accHelp@XAccessible@CWnd@@UAGJUtagVARIANT@@PAPA_W@Z 00783e50 f   nafxcwd:wincore.obj
 0002:000d9f20       ?get_accHelpTopic@XAccessible@CWnd@@UAGJPAPA_WUtagVARIANT@@PAJ@Z 00783f20 f   nafxcwd:wincore.obj
 0002:000d9ff0       ?get_accKeyboardShortcut@XAccessible@CWnd@@UAGJUtagVARIANT@@PAPA_W@Z 00783ff0 f   nafxcwd:wincore.obj
 0002:000da0c0       ?get_accFocus@XAccessible@CWnd@@UAGJPAUtagVARIANT@@@Z 007840c0 f   nafxcwd:wincore.obj
 0002:000da170       ?get_accSelection@XAccessible@CWnd@@UAGJPAUtagVARIANT@@@Z 00784170 f   nafxcwd:wincore.obj
 0002:000da220       ?get_accDefaultAction@XAccessible@CWnd@@UAGJUtagVARIANT@@PAPA_W@Z 00784220 f   nafxcwd:wincore.obj
 0002:000da2f0       ?accSelect@XAccessible@CWnd@@UAGJJUtagVARIANT@@@Z 007842f0 f   nafxcwd:wincore.obj
 0002:000da3c0       ?accLocation@XAccessible@CWnd@@UAGJPAJ000UtagVARIANT@@@Z 007843c0 f   nafxcwd:wincore.obj
 0002:000da4a0       ?accNavigate@XAccessible@CWnd@@UAGJJUtagVARIANT@@PAU3@@Z 007844a0 f   nafxcwd:wincore.obj
 0002:000da570       ?accHitTest@XAccessible@CWnd@@UAGJJJPAUtagVARIANT@@@Z 00784570 f   nafxcwd:wincore.obj
 0002:000da620       ?accDoDefaultAction@XAccessible@CWnd@@UAGJUtagVARIANT@@@Z 00784620 f   nafxcwd:wincore.obj
 0002:000da6f0       ?put_accName@XAccessible@CWnd@@UAGJUtagVARIANT@@PA_W@Z 007846f0 f   nafxcwd:wincore.obj
 0002:000da7c0       ?put_accValue@XAccessible@CWnd@@UAGJUtagVARIANT@@PA_W@Z 007847c0 f   nafxcwd:wincore.obj
 0002:000da890       ?AddRef@XAccessibleServer@CWnd@@UAGKXZ 00784890 f   nafxcwd:wincore.obj
 0002:000da930       ?Release@XAccessibleServer@CWnd@@UAGKXZ 00784930 f   nafxcwd:wincore.obj
 0002:000da9d0       ?QueryInterface@XAccessibleServer@CWnd@@UAGJABU_GUID@@PAPAX@Z 007849d0 f   nafxcwd:wincore.obj
 0002:000daa80       ?SetProxy@XAccessibleServer@CWnd@@UAGJPAUIAccessibleProxy@@@Z 00784a80 f   nafxcwd:wincore.obj
 0002:000dab30       ?GetHWND@XAccessibleServer@CWnd@@UAGJPAPAUHWND__@@@Z 00784b30 f   nafxcwd:wincore.obj
 0002:000daba0       ?GetEnumVariant@XAccessibleServer@CWnd@@UAGJPAPAUIEnumVARIANT@@@Z 00784ba0 f   nafxcwd:wincore.obj
 0002:000dabd0       ?EnsureStdObj@CWnd@@UAEJXZ 00784bd0 f   nafxcwd:wincore.obj
 0002:000dac30       ?get_accParent@CWnd@@UAEJPAPAUIDispatch@@@Z 00784c30 f   nafxcwd:wincore.obj
 0002:000dac90       ?get_accChildCount@CWnd@@UAEJPAJ@Z 00784c90 f   nafxcwd:wincore.obj
 0002:000dacf0       ?get_accChild@CWnd@@UAEJUtagVARIANT@@PAPAUIDispatch@@@Z 00784cf0 f   nafxcwd:wincore.obj
 0002:000dad70       ?get_accName@CWnd@@UAEJUtagVARIANT@@PAPA_W@Z 00784d70 f   nafxcwd:wincore.obj
 0002:000dadf0       ?get_accValue@CWnd@@UAEJUtagVARIANT@@PAPA_W@Z 00784df0 f   nafxcwd:wincore.obj
 0002:000dae50       ?get_accDescription@CWnd@@UAEJUtagVARIANT@@PAPA_W@Z 00784e50 f   nafxcwd:wincore.obj
 0002:000daeb0       ?get_accRole@CWnd@@UAEJUtagVARIANT@@PAU2@@Z 00784eb0 f   nafxcwd:wincore.obj
 0002:000daf30       ?get_accState@CWnd@@UAEJUtagVARIANT@@PAU2@@Z 00784f30 f   nafxcwd:wincore.obj
 0002:000dafb0       ?get_accHelp@CWnd@@UAEJUtagVARIANT@@PAPA_W@Z 00784fb0 f   nafxcwd:wincore.obj
 0002:000db030       ?get_accHelpTopic@CWnd@@UAEJPAPA_WUtagVARIANT@@PAJ@Z 00785030 f   nafxcwd:wincore.obj
 0002:000db0b0       ?get_accKeyboardShortcut@CWnd@@UAEJUtagVARIANT@@PAPA_W@Z 007850b0 f   nafxcwd:wincore.obj
 0002:000db130       ?get_accFocus@CWnd@@UAEJPAUtagVARIANT@@@Z 00785130 f   nafxcwd:wincore.obj
 0002:000db190       ?get_accSelection@CWnd@@UAEJPAUtagVARIANT@@@Z 00785190 f   nafxcwd:wincore.obj
 0002:000db1f0       ?get_accDefaultAction@CWnd@@UAEJUtagVARIANT@@PAPA_W@Z 007851f0 f   nafxcwd:wincore.obj
 0002:000db270       ?accSelect@CWnd@@UAEJJUtagVARIANT@@@Z 00785270 f   nafxcwd:wincore.obj
 0002:000db2f0       ?accLocation@CWnd@@UAEJPAJ000UtagVARIANT@@@Z 007852f0 f   nafxcwd:wincore.obj
 0002:000db380       ?accNavigate@CWnd@@UAEJJUtagVARIANT@@PAU2@@Z 00785380 f   nafxcwd:wincore.obj
 0002:000db400       ?accHitTest@CWnd@@UAEJJJPAUtagVARIANT@@@Z 00785400 f   nafxcwd:wincore.obj
 0002:000db460       ?accDoDefaultAction@CWnd@@UAEJUtagVARIANT@@@Z 00785460 f   nafxcwd:wincore.obj
 0002:000db4e0       ?put_accName@CWnd@@UAEJUtagVARIANT@@PA_W@Z 007854e0 f   nafxcwd:wincore.obj
 0002:000db560       ?put_accValue@CWnd@@UAEJUtagVARIANT@@PA_W@Z 00785560 f   nafxcwd:wincore.obj
 0002:000db5e0       ?SetProxy@CWnd@@UAEJPAUIAccessibleProxy@@@Z 007855e0 f   nafxcwd:wincore.obj
 0002:000db600       ?CreateAccessibleProxy@CWnd@@UAEJIJPAJ@Z 00785600 f   nafxcwd:wincore.obj
 0002:000db7c0       ??1?$CComPtr@UIAccessibleProxy@@@ATL@@QAE@XZ 007857c0 f i nafxcwd:wincore.obj
 0002:000db7e0       ?GetWindowLessChildCount@CWnd@@QAEJXZ 007857e0 f   nafxcwd:wincore.obj
 0002:000db890       ?GetWindowedChildCount@CWnd@@QAEJXZ 00785890 f   nafxcwd:wincore.obj
 0002:000db8f0       ?GetAccessibleChildCount@CWnd@@QAEJXZ 007858f0 f   nafxcwd:wincore.obj
 0002:000db920       ?GetAccessibleChild@CWnd@@QAEJUtagVARIANT@@PAPAUIDispatch@@@Z 00785920 f   nafxcwd:wincore.obj
 0002:000db9e0       ?GetAccessibleName@CWnd@@QAEJUtagVARIANT@@PAPA_W@Z 007859e0 f   nafxcwd:wincore.obj
 0002:000dbbc0       ?GetAccessibilityLocation@CWnd@@QAEJUtagVARIANT@@PAJ111@Z 00785bc0 f   nafxcwd:wincore.obj
 0002:000dbd80       ?GetAccessibilityHitTest@CWnd@@QAEJJJPAUtagVARIANT@@@Z 00785d80 f   nafxcwd:wincore.obj
 0002:000dbee0       ?OnHScroll@CWnd@@IAEXIIPAVCScrollBar@@@Z 00785ee0 f   nafxcwd:wincore.obj
 0002:000dbf20       ?OnVScroll@CWnd@@IAEXIIPAVCScrollBar@@@Z 00785f20 f   nafxcwd:wincore.obj
 0002:000dbf60       ?OnPaint@CWnd@@IAEXXZ      00785f60 f   nafxcwd:wincore.obj
 0002:000dc020       ?OnEnterIdle@CWnd@@IAEXIPAV1@@Z 00786020 f   nafxcwd:wincore.obj
 0002:000dc080       ?OnCtlColor@CWnd@@IAEPAUHBRUSH__@@PAVCDC@@PAV1@I@Z 00786080 f   nafxcwd:wincore.obj
 0002:000dc0f0       ?GrayCtlColor@CWnd@@SGHPAUHDC__@@PAUHWND__@@IPAUHBRUSH__@@K@Z 007860f0 f   nafxcwd:wincore.obj
 0002:000dc220       ?UpdateData@CWnd@@QAEHH@Z  00786220 f   nafxcwd:wincore.obj
 0002:000dc450       ??0CDataExchange@@QAE@PAVCWnd@@H@Z 00786450 f   nafxcwd:wincore.obj
 0002:000dc4a0       ?CenterWindow@CWnd@@QAEXPAV1@@Z 007864a0 f   nafxcwd:wincore.obj
 0002:000dc840       ?CheckAutoCenter@CWnd@@UAEHXZ 00786840 f   nafxcwd:wincore.obj
 0002:000dc860       ?ExecuteDlgInit@CWnd@@QAEHPBD@Z 00786860 f   nafxcwd:wincore.obj
 0002:000dc950       ?ExecuteDlgInit@CWnd@@QAEHPAX@Z 00786950 f   nafxcwd:wincore.obj
 0002:000dcd80       ?UpdateDialogControls@CWnd@@QAEXPAVCCmdTarget@@H@Z 00786d80 f   nafxcwd:wincore.obj
 0002:000dcfd0       ?PreTranslateInput@CWnd@@QAEHPAUtagMSG@@@Z 00786fd0 f   nafxcwd:wincore.obj
 0002:000dd070       ?RunModalLoop@CWnd@@QAEHK@Z 00787070 f   nafxcwd:wincore.obj
 0002:000dd3b0       ?ContinueModal@CWnd@@UAEHXZ 007873b0 f   nafxcwd:wincore.obj
 0002:000dd3d0       ?EndModalLoop@CWnd@@UAEXH@Z 007873d0 f   nafxcwd:wincore.obj
 0002:000dd450       ?OnDrawIconicThumbnailOrLivePreview@CWnd@@UAEXAAVCDC@@VCRect@@VCSize@@HAAH@Z 00787450 f   nafxcwd:wincore.obj
 0002:000dd4a0       ?SetOccDialogInfo@CWnd@@MAEHPAU_AFX_OCC_DIALOG_INFO@@@Z 007874a0 f   nafxcwd:wincore.obj
 0002:000dd4e0       ?GetOccDialogInfo@CWnd@@MAEPAU_AFX_OCC_DIALOG_INFO@@XZ 007874e0 f   nafxcwd:wincore.obj
 0002:000dd500       ?_AfxRegisterWithIcon@@YGHPAUtagWNDCLASSA@@PBDI@Z 00787500 f   nafxcwd:wincore.obj
 0002:000dd580       ?_AfxInitCommonControls@@YGJPAUtagINITCOMMONCONTROLSEX@@J@Z 00787580 f   nafxcwd:wincore.obj
 0002:000dd620       ?AfxEndDeferRegisterClass@@YGHJ@Z 00787620 f   nafxcwd:wincore.obj
 0002:000ddb00       ?AfxInitNetworkAddressControl@@YGHXZ 00787b00 f   nafxcwd:wincore.obj
 0002:000ddc60       ?IsFrameWnd@CWnd@@UBEHXZ   00787c60 f   nafxcwd:wincore.obj
 0002:000ddc80       ?IsFrameWnd@CFrameWnd@@UBEHXZ 00787c80 f   nafxcwd:wincore.obj
 0002:000ddca0       ?IsTracking@CFrameWnd@@QBEHXZ 00787ca0 f   nafxcwd:wincore.obj
 0002:000ddd00       ?SubclassWindow@CWnd@@QAEHPAUHWND__@@@Z 00787d00 f   nafxcwd:wincore.obj
 0002:000ddee0       ?SubclassDlgItem@CWnd@@QAEHIPAV1@@Z 00787ee0 f   nafxcwd:wincore.obj
 0002:000de040       ?UnsubclassWindow@CWnd@@QAEPAUHWND__@@XZ 00788040 f   nafxcwd:wincore.obj
 0002:000de0d0       ?CreateControlContainer@CWnd@@MAEHPAPAVCOleControlContainer@@@Z 007880d0 f   nafxcwd:wincore.obj
 0002:000de140       ?CreateControlSite@CWnd@@MAEHPAVCOleControlContainer@@PAPAVCOleControlSite@@IABU_GUID@@@Z 00788140 f   nafxcwd:wincore.obj
 0002:000de1b0       ?GetControlContainer@CWnd@@QAEPAVCOleControlContainer@@XZ 007881b0 f   nafxcwd:wincore.obj
 0002:000de1d0       ?EnableD2DSupport@CWnd@@QAEXH@Z 007881d0 f   nafxcwd:wincore.obj
 0002:000de3b0       ?IsD2DSupportEnabled@CWnd@@QAEHXZ 007883b0 f   nafxcwd:wincore.obj
 0002:000de3e0       ?GetRenderTarget@CWnd@@QAEPAVCHwndRenderTarget@@XZ 007883e0 f   nafxcwd:wincore.obj
 0002:000de460       ?DoD2DPaint@CWnd@@IAEHXZ   00788460 f   nafxcwd:wincore.obj
 0002:000de570       ?CreateObject@CWnd@@SGPAVCObject@@XZ 00788570 f   nafxcwd:wincore.obj
 0002:000de610       ?GetRuntimeClass@CWnd@@UBEPAUCRuntimeClass@@XZ 00788610 f   nafxcwd:wincore.obj
 0002:000de630       ??0CGestureConfig@@QAE@XZ  00788630 f   nafxcwd:wincore.obj
 0002:000de780       ??_ECGestureConfig@@UAEPAXI@Z 00788780 f i nafxcwd:wincore.obj
 0002:000de780       ??_GCGestureConfig@@UAEPAXI@Z 00788780 f i nafxcwd:wincore.obj
 0002:000de7c0       ??1CGestureConfig@@UAE@XZ  007887c0 f   nafxcwd:wincore.obj
 0002:000de850       ?Dump@CGestureConfig@@UBEXAAVCDumpContext@@@Z 00788850 f   nafxcwd:wincore.obj
 0002:000de930       ?Modify@CGestureConfig@@QAEHKKK@Z 00788930 f   nafxcwd:wincore.obj
 0002:000deab0       ?Get@CGestureConfig@@QBEKKH@Z 00788ab0 f   nafxcwd:wincore.obj
 0002:000deb80       ?EnableZoom@CGestureConfig@@QAEXH@Z 00788b80 f   nafxcwd:wincore.obj
 0002:000debc0       ?EnableRotate@CGestureConfig@@QAEXH@Z 00788bc0 f   nafxcwd:wincore.obj
 0002:000dec00       ?EnableTwoFingerTap@CGestureConfig@@QAEXH@Z 00788c00 f   nafxcwd:wincore.obj
 0002:000dec40       ?EnablePressAndTap@CGestureConfig@@QAEXH@Z 00788c40 f   nafxcwd:wincore.obj
 0002:000dec80       ?EnablePan@CGestureConfig@@QAEXHK@Z 00788c80 f   nafxcwd:wincore.obj
 0002:000ded80       ?AllocSysString@?$CStringT@DV?$StrTraitMFC@DV?$ChTraitsCRT@D@ATL@@@@@ATL@@QBEPA_WXZ 00788d80 f i nafxcwd:wincore.obj
 0002:000dedd0       ?GetData@?$CProcessLocal@V_AFX_HTMLHELP_STATE@@@@QAEPAV_AFX_HTMLHELP_STATE@@XZ 00788dd0 f i nafxcwd:wincore.obj
 0002:000dee40       ??BInitCommonControlsEx_Type@CComCtlWrapper@@QAEP6GHPAUtagINITCOMMONCONTROLSEX@@@ZXZ 00788e40 f i nafxcwd:wincore.obj
 0002:000dee60       ?GetProcAddress_InitCommonControlsEx@CComCtlWrapper@@QAE?AUInitCommonControlsEx_Type@1@XZ 00788e60 f i nafxcwd:wincore.obj
 0002:000deed0       ?GetModuleHandleA@CDllIsolationWrapperBase@@QAEPAUHINSTANCE__@@XZ 00788ed0 f i nafxcwd:wincore.obj
 0002:000def50       ??4InitCommonControlsEx_Type@CComCtlWrapper@@QAEXP6GHPAUtagINITCOMMONCONTROLSEX@@@Z@Z 00788f50 f i nafxcwd:wincore.obj
 0002:000def70       ??7InitCommonControlsEx_Type@CComCtlWrapper@@QBE_NXZ 00788f70 f i nafxcwd:wincore.obj
 0002:000def90       ?Construct@?$ConstructDestruct@VCWnd@@@@SGXPAVCObject@@@Z 00788f90 f i nafxcwd:wincore.obj
 0002:000df030       ?Destruct@?$ConstructDestruct@VCWnd@@@@SGXPAVCObject@@@Z 00789030 f i nafxcwd:wincore.obj
 0002:000df060       ?CreateInstance@?$CMFCComObject@VCAccessibleProxy@ATL@@@@SGJPAPAV1@@Z 00789060 f i nafxcwd:wincore.obj
 0002:000df280       ??0?$CComPtr@UIAccessibleProxy@@@ATL@@QAE@XZ 00789280 f i nafxcwd:wincore.obj
 0002:000df2a0       ??1?$CComPtrBase@UIAccessibleProxy@@@ATL@@QAE@XZ 007892a0 f i nafxcwd:wincore.obj
 0002:000df2d0       ??B?$CComPtrBase@UIAccessibleProxy@@@ATL@@QBEPAUIAccessibleProxy@@XZ 007892d0 f i nafxcwd:wincore.obj
 0002:000df2f0       ??I?$CComPtrBase@UIAccessibleProxy@@@ATL@@QAEPAPAUIAccessibleProxy@@XZ 007892f0 f i nafxcwd:wincore.obj
 0002:000df340       ??C?$CComPtrBase@UIAccessibleProxy@@@ATL@@QBEPAV?$_NoAddRefReleaseOnCComPtr@UIAccessibleProxy@@@1@XZ 00789340 f i nafxcwd:wincore.obj
 0002:000df390       ?CreateObject@?$CProcessLocal@V_AFX_HTMLHELP_STATE@@@@SGPAVCNoTrackObject@@XZ 00789390 f i nafxcwd:wincore.obj
 0002:000df3d0       ?AllocSysString@?$ChTraitsCRT@D@ATL@@SAPA_WPBDH@Z 007893d0 f i nafxcwd:wincore.obj
 0002:000df450       ??0?$CMFCComObject@VCAccessibleProxy@ATL@@@@QAE@PAX@Z 00789450 f i nafxcwd:wincore.obj
 0002:000df4f0       ??0CAccessibleProxy@ATL@@QAE@XZ 007894f0 f i nafxcwd:wincore.obj
 0002:000df570       ??1CAccessibleProxy@ATL@@UAE@XZ 00789570 f i nafxcwd:wincore.obj
 0002:000df590       ?GetWindow@CAccessibleProxy@ATL@@UAGJPAPAUHWND__@@@Z 00789590 f i nafxcwd:wincore.obj
 0002:000df5a0       ?ContextSensitiveHelp@CAccessibleProxy@ATL@@UAGJH@Z 007895a0 f i nafxcwd:wincore.obj
 0002:000df5c0       ??0?$CComObjectRootEx@VCComSingleThreadModel@ATL@@@ATL@@QAE@XZ 007895c0 f i nafxcwd:wincore.obj
 0002:000df5e0       ??0IOleWindow@@QAE@XZ      007895e0 f i nafxcwd:wincore.obj
 0002:000df600       ??0IUnknown@@QAE@XZ        00789600 f i nafxcwd:wincore.obj
 0002:000df620       ??0?$IAccessibleProxyImpl@VCAccessibleProxy@ATL@@@ATL@@QAE@XZ 00789620 f i nafxcwd:wincore.obj
 0002:000df680       ?get_accParent@?$IAccessibleProxyImpl@VCAccessibleProxy@ATL@@@ATL@@UAGJPAPAUIDispatch@@@Z 00789680 f i nafxcwd:wincore.obj
 0002:000df6d0       ?get_accChildCount@?$IAccessibleProxyImpl@VCAccessibleProxy@ATL@@@ATL@@UAGJPAJ@Z 007896d0 f i nafxcwd:wincore.obj
 0002:000df720       ?get_accChild@?$IAccessibleProxyImpl@VCAccessibleProxy@ATL@@@ATL@@UAGJUtagVARIANT@@PAPAUIDispatch@@@Z 00789720 f i nafxcwd:wincore.obj
 0002:000df790       ?get_accName@?$IAccessibleProxyImpl@VCAccessibleProxy@ATL@@@ATL@@UAGJUtagVARIANT@@PAPA_W@Z 00789790 f i nafxcwd:wincore.obj
 0002:000df800       ?get_accValue@?$IAccessibleProxyImpl@VCAccessibleProxy@ATL@@@ATL@@UAGJUtagVARIANT@@PAPA_W@Z 00789800 f i nafxcwd:wincore.obj
 0002:000df870       ?get_accDescription@?$IAccessibleProxyImpl@VCAccessibleProxy@ATL@@@ATL@@UAGJUtagVARIANT@@PAPA_W@Z 00789870 f i nafxcwd:wincore.obj
 0002:000df8e0       ?get_accRole@?$IAccessibleProxyImpl@VCAccessibleProxy@ATL@@@ATL@@UAGJUtagVARIANT@@PAU3@@Z 007898e0 f i nafxcwd:wincore.obj
 0002:000df950       ?get_accState@?$IAccessibleProxyImpl@VCAccessibleProxy@ATL@@@ATL@@UAGJUtagVARIANT@@PAU3@@Z 00789950 f i nafxcwd:wincore.obj
 0002:000df9c0       ?get_accHelp@?$IAccessibleProxyImpl@VCAccessibleProxy@ATL@@@ATL@@UAGJUtagVARIANT@@PAPA_W@Z 007899c0 f i nafxcwd:wincore.obj
 0002:000dfa30       ?get_accHelpTopic@?$IAccessibleProxyImpl@VCAccessibleProxy@ATL@@@ATL@@UAGJPAPA_WUtagVARIANT@@PAJ@Z 00789a30 f i nafxcwd:wincore.obj
 0002:000dfac0       ?get_accKeyboardShortcut@?$IAccessibleProxyImpl@VCAccessibleProxy@ATL@@@ATL@@UAGJUtagVARIANT@@PAPA_W@Z 00789ac0 f i nafxcwd:wincore.obj
 0002:000dfb30       ?get_accFocus@?$IAccessibleProxyImpl@VCAccessibleProxy@ATL@@@ATL@@UAGJPAUtagVARIANT@@@Z 00789b30 f i nafxcwd:wincore.obj
 0002:000dfb80       ?get_accSelection@?$IAccessibleProxyImpl@VCAccessibleProxy@ATL@@@ATL@@UAGJPAUtagVARIANT@@@Z 00789b80 f i nafxcwd:wincore.obj
 0002:000dfbd0       ?get_accDefaultAction@?$IAccessibleProxyImpl@VCAccessibleProxy@ATL@@@ATL@@UAGJUtagVARIANT@@PAPA_W@Z 00789bd0 f i nafxcwd:wincore.obj
 0002:000dfc40       ?accSelect@?$IAccessibleProxyImpl@VCAccessibleProxy@ATL@@@ATL@@UAGJJUtagVARIANT@@@Z 00789c40 f i nafxcwd:wincore.obj
 0002:000dfca0       ?accLocation@?$IAccessibleProxyImpl@VCAccessibleProxy@ATL@@@ATL@@UAGJPAJ000UtagVARIANT@@@Z 00789ca0 f i nafxcwd:wincore.obj
 0002:000dfd50       ?accNavigate@?$IAccessibleProxyImpl@VCAccessibleProxy@ATL@@@ATL@@UAGJJUtagVARIANT@@PAU3@@Z 00789d50 f i nafxcwd:wincore.obj
 0002:000dfdd0       ?accHitTest@?$IAccessibleProxyImpl@VCAccessibleProxy@ATL@@@ATL@@UAGJJJPAUtagVARIANT@@@Z 00789dd0 f i nafxcwd:wincore.obj
 0002:000dfe30       ?accDoDefaultAction@?$IAccessibleProxyImpl@VCAccessibleProxy@ATL@@@ATL@@UAGJUtagVARIANT@@@Z 00789e30 f i nafxcwd:wincore.obj
 0002:000dfe90       ?put_accName@?$IAccessibleProxyImpl@VCAccessibleProxy@ATL@@@ATL@@UAGJUtagVARIANT@@PA_W@Z 00789e90 f i nafxcwd:wincore.obj
 0002:000dfec0       ?put_accValue@?$IAccessibleProxyImpl@VCAccessibleProxy@ATL@@@ATL@@UAGJUtagVARIANT@@PA_W@Z 00789ec0 f i nafxcwd:wincore.obj
 0002:000dfef0       ?SetServer@?$IAccessibleProxyImpl@VCAccessibleProxy@ATL@@@ATL@@UAGJPAUIAccessible@@PAUIAccessibleServer@@@Z 00789ef0 f i nafxcwd:wincore.obj
 0002:000dff20       ?Invoke@?$IAccessibleProxyImpl@VCAccessibleProxy@ATL@@@ATL@@UAGJJABU_GUID@@KGPAUtagDISPPARAMS@@PAUtagVARIANT@@PAUtagEXCEPINFO@@PAI@Z 00789f20 f i nafxcwd:wincore.obj
 0002:000dff90       ?GetIDsOfNames@?$IAccessibleProxyImpl@VCAccessibleProxy@ATL@@@ATL@@UAGJABU_GUID@@PAPA_WIKPAJ@Z 00789f90 f i nafxcwd:wincore.obj
 0002:000dfff0       ?GetTypeInfoCount@?$IAccessibleProxyImpl@VCAccessibleProxy@ATL@@@ATL@@UAGJPAI@Z 00789ff0 f i nafxcwd:wincore.obj
 0002:000e0030       ?GetTypeInfo@?$IAccessibleProxyImpl@VCAccessibleProxy@ATL@@@ATL@@UAGJIKPAPAUITypeInfo@@@Z 0078a030 f i nafxcwd:wincore.obj
 0002:000e0080       ?AddRef@?$CMFCComObject@VCAccessibleProxy@ATL@@@@UAGKXZ 0078a080 f i nafxcwd:wincore.obj
 0002:000e00a0       ?Release@?$CMFCComObject@VCAccessibleProxy@ATL@@@@UAGKXZ 0078a0a0 f i nafxcwd:wincore.obj
 0002:000e0110       ?QueryInterface@?$CMFCComObject@VCAccessibleProxy@ATL@@@@UAGJABU_GUID@@PAPAX@Z 0078a110 f i nafxcwd:wincore.obj
 0002:000e0130       ?_InternalQueryInterface@CAccessibleProxy@ATL@@QAEJABU_GUID@@PAPAX@Z 0078a130 f i nafxcwd:wincore.obj
 0002:000e0160       ?_GetEntries@CAccessibleProxy@ATL@@SGPBU_ATL_INTMAP_ENTRY@2@XZ 0078a160 f i nafxcwd:wincore.obj
 0002:000e0170       ??0IAccessible@@QAE@XZ     0078a170 f i nafxcwd:wincore.obj
 0002:000e0190       ??0IAccessibleProxy@@QAE@XZ 0078a190 f i nafxcwd:wincore.obj
 0002:000e01b0       ??_G?$CMFCComObject@VCAccessibleProxy@ATL@@@@UAEPAXI@Z 0078a1b0 f i nafxcwd:wincore.obj
 0002:000e01b0       ??_E?$CMFCComObject@VCAccessibleProxy@ATL@@@@UAEPAXI@Z 0078a1b0 f i nafxcwd:wincore.obj
 0002:000e01f0       ??1?$CMFCComObject@VCAccessibleProxy@ATL@@@@UAE@XZ 0078a1f0 f i nafxcwd:wincore.obj
 0002:000e02a0       ?FinalRelease@CAccessibleProxy@ATL@@QAEJXZ 0078a2a0 f i nafxcwd:wincore.obj
 0002:000e02e0       ??0IDispatch@@QAE@XZ       0078a2e0 f i nafxcwd:wincore.obj
 0002:000e0300       ??0?$CComPtrBase@UIAccessibleProxy@@@ATL@@IAE@XZ 0078a300 f i nafxcwd:wincore.obj
 0002:000e0320       ??0_AFX_HTMLHELP_STATE@@QAE@XZ 0078a320 f i nafxcwd:wincore.obj
 0002:000e0350       ?Lookup@?$CMap@PAVCWnd@@PAV1@PAVCHwndRenderTarget@@PAV2@@@QBEHPAVCWnd@@AAPAVCHwndRenderTarget@@@Z 0078a350 f i nafxcwd:wincore.obj
 0002:000e03c0       ?SetAt@?$CMap@PAVCWnd@@PAV1@PAVCHwndRenderTarget@@PAV2@@@QAEXPAVCWnd@@PAVCHwndRenderTarget@@@Z 0078a3c0 f i nafxcwd:wincore.obj
 0002:000e03f0       ?RemoveKey@?$CMap@PAVCWnd@@PAV1@PAVCHwndRenderTarget@@PAV2@@@QAEHPAVCWnd@@@Z 0078a3f0 f i nafxcwd:wincore.obj
 0002:000e04e0       ??$QueryInterface@UIAccessibleProxy@@@?$CMFCComObject@VCAccessibleProxy@ATL@@@@QAGJPAPAUIAccessibleProxy@@@Z 0078a4e0 f i nafxcwd:wincore.obj
 0002:000e0510       ??A?$CMap@PAVCWnd@@PAV1@PAVCHwndRenderTarget@@PAV2@@@QAEAAPAVCHwndRenderTarget@@PAVCWnd@@@Z 0078a510 f i nafxcwd:wincore.obj
 0002:000e0620       ?FreeAssoc@?$CMap@PAVCWnd@@PAV1@PAVCHwndRenderTarget@@PAV2@@@IAEXPAVCAssoc@1@@Z 0078a620 f i nafxcwd:wincore.obj
 0002:000e06a0       ?RemoveAll@?$CMap@PAVCWnd@@PAV1@PAVCHwndRenderTarget@@PAV2@@@QAEXXZ 0078a6a0 f i nafxcwd:wincore.obj
 0002:000e0790       ?GetAssocAt@?$CMap@PAVCWnd@@PAV1@PAVCHwndRenderTarget@@PAV2@@@IBEPAVCAssoc@1@PAVCWnd@@AAI1@Z 0078a790 f i nafxcwd:wincore.obj
 0002:000e0840       ??$HashKey@PAVCWnd@@@@YGIPAVCWnd@@@Z 0078a840 f i nafxcwd:wincore.obj
 0002:000e08b0       ??$CompareElements@PAVCWnd@@PAV1@@@YGHPBQAVCWnd@@0@Z 0078a8b0 f i nafxcwd:wincore.obj
 0002:000e09a0       ?InitHashTable@?$CMap@PAVCWnd@@PAV1@PAVCHwndRenderTarget@@PAV2@@@QAEXIH@Z 0078a9a0 f i nafxcwd:wincore.obj
 0002:000e0af0       ?NewAssoc@?$CMap@PAVCWnd@@PAV1@PAVCHwndRenderTarget@@PAV2@@@IAEPAVCAssoc@1@PAVCWnd@@@Z 0078aaf0 f i nafxcwd:wincore.obj
 0002:000e0cf0       ??0CAssoc@?$CMap@PAVCWnd@@PAV1@PAVCHwndRenderTarget@@PAV2@@@QAE@PAVCWnd@@@Z 0078acf0 f i nafxcwd:wincore.obj
 0002:000e0d20       ??0CPair@?$CMap@PAVCWnd@@PAV1@PAVCHwndRenderTarget@@PAV2@@@IAE@PAVCWnd@@@Z 0078ad20 f i nafxcwd:wincore.obj
 0002:000e0d40       ?Release@?$CMFCComObject@VCAccessibleProxy@ATL@@@@WBA@AGKXZ 0078ad40 f i nafxcwd:wincore.obj
 0002:000e0d50       ?QueryInterface@?$CMFCComObject@VCAccessibleProxy@ATL@@@@W3AGJABU_GUID@@PAPAX@Z 0078ad50 f i nafxcwd:wincore.obj
 0002:000e0d60       ?AddRef@?$CMFCComObject@VCAccessibleProxy@ATL@@@@WBA@AGKXZ 0078ad60 f i nafxcwd:wincore.obj
 0002:000e0d70       ?QueryInterface@?$CMFCComObject@VCAccessibleProxy@ATL@@@@WBA@AGJABU_GUID@@PAPAX@Z 0078ad70 f i nafxcwd:wincore.obj
 0002:000e0d80       ?Release@?$CMFCComObject@VCAccessibleProxy@ATL@@@@W3AGKXZ 0078ad80 f i nafxcwd:wincore.obj
 0002:000e0d90       ?AddRef@?$CMFCComObject@VCAccessibleProxy@ATL@@@@W3AGKXZ 0078ad90 f i nafxcwd:wincore.obj
 0002:000e0da0       ?AfxCtxRegisterClassA@@YAGPBUtagWNDCLASSA@@@Z 0078ada0 f i nafxcwd:wincore.obj
 0002:000e0ec0       ?AfxCtxGetClassInfoA@@YAHPAUHINSTANCE__@@PBDPAUtagWNDCLASSA@@@Z 0078aec0 f i nafxcwd:wincore.obj
 0002:000e0ff0       ?AfxCtxGetClassInfoExA@@YAHPAUHINSTANCE__@@PBDPAUtagWNDCLASSEXA@@@Z 0078aff0 f i nafxcwd:wincore.obj
 0002:000e1120       ?AfxCtxCreateWindowExA@@YAPAUHWND__@@KPBD0KHHHHPAU1@PAUHMENU__@@PAUHINSTANCE__@@PAX@Z 0078b120 f i nafxcwd:wincore.obj
 0002:000e1280       ?AfxCtxLoadLibraryW@@YAPAUHINSTANCE__@@PB_W@Z 0078b280 f i nafxcwd:wincore.obj
 0002:000e13a0       ?IsValid@CRenderTarget@@QBEHXZ 0078b3a0 f i nafxcwd:wincore.obj
 0002:000e13d0       ?AfxInitCommonControls@@YGXXZ 0078b3d0 f i nafxcwd:wincore.obj
 0002:000e13f0       ?_InitCommonControls@CComCtlWrapper@@QAEXXZ 0078b3f0 f i nafxcwd:wincore.obj
 0002:000e1510       ??BInitCommonControls_Type@CComCtlWrapper@@QAEP6GXXZXZ 0078b510 f i nafxcwd:wincore.obj
 0002:000e1530       ?GetProcAddress_InitCommonControls@CComCtlWrapper@@QAE?AUInitCommonControls_Type@1@XZ 0078b530 f i nafxcwd:wincore.obj
 0002:000e15a0       ??4InitCommonControls_Type@CComCtlWrapper@@QAEXP6GXXZ@Z 0078b5a0 f i nafxcwd:wincore.obj
 0002:000e15c0       ??7InitCommonControls_Type@CComCtlWrapper@@QBE_NXZ 0078b5c0 f i nafxcwd:wincore.obj
 0002:000e15e0       ?AfxInitCommonControlsEx@@YGHPAUtagINITCOMMONCONTROLSEX@@@Z 0078b5e0 f i nafxcwd:wincore.obj
 0002:000e1610       ?_InitCommonControlsEx@CComCtlWrapper@@QAEHPAUtagINITCOMMONCONTROLSEX@@@Z 0078b610 f i nafxcwd:wincore.obj
 0002:000e17a0       ?AfxCtxInitNetworkAddressControl@@YGHXZ 0078b7a0 f i nafxcwd:wincore.obj
 0002:000e17c0       ?_InitNetworkAddressControl@CShellWrapper@@QAEHXZ 0078b7c0 f i nafxcwd:wincore.obj
 0002:000e1940       ??BInitNetworkAddressControl_Type@CShellWrapper@@QAEP6GHXZXZ 0078b940 f i nafxcwd:wincore.obj
 0002:000e1960       ?GetProcAddress_InitNetworkAddressControl@CShellWrapper@@QAE?AUInitNetworkAddressControl_Type@1@XZ 0078b960 f i nafxcwd:wincore.obj
 0002:000e19d0       ??4InitNetworkAddressControl_Type@CShellWrapper@@QAEXP6GHXZ@Z 0078b9d0 f i nafxcwd:wincore.obj
 0002:000e19f0       ??7InitNetworkAddressControl_Type@CShellWrapper@@QBE_NXZ 0078b9f0 f i nafxcwd:wincore.obj
 0002:000e1a10       ?SetWindowLongPtrA@@YAJPAUHWND__@@HJ@Z 0078ba10 f i nafxcwd:wincore.obj
 0002:000e1a30       ?GetWindowLongPtrA@@YAJPAUHWND__@@H@Z 0078ba30 f i nafxcwd:wincore.obj
 0002:000e1a50       ??0CInternalGlobalLock@@QAE@H@Z 0078ba50 f i nafxcwd:wincore.obj
 0002:000e1a90       ??1CInternalGlobalLock@@QAE@XZ 0078ba90 f i nafxcwd:wincore.obj
 0002:000e1ab0       ?Lock@CInternalGlobalLock@@QAEXH@Z 0078bab0 f i nafxcwd:wincore.obj
 0002:000e1ba0       ?Unlock@CInternalGlobalLock@@QAEXXZ 0078bba0 f i nafxcwd:wincore.obj
 0002:000e1be0       ?LookupPermanent@CHandleMap@@QAEPAVCObject@@PAX@Z 0078bbe0 f i nafxcwd:wincore.obj
 0002:000e1c10       ?LookupTemporary@CHandleMap@@QAEPAVCObject@@PAX@Z 0078bc10 f i nafxcwd:wincore.obj
 0002:000e1c40       ??0CComObjectRootBase@ATL@@QAE@XZ 0078bc40 f i nafxcwd:wincore.obj
 0002:000e1c60       ?FinalConstruct@CComObjectRootBase@ATL@@QAEJXZ 0078bc60 f i nafxcwd:wincore.obj
 0002:000e1c80       ?_AtlFinalConstruct@CComObjectRootBase@ATL@@QAEJXZ 0078bc80 f i nafxcwd:wincore.obj
 0002:000e1ca0       ?InternalQueryInterface@CComObjectRootBase@ATL@@SGJPAXPBU_ATL_INTMAP_ENTRY@2@ABU_GUID@@PAPAX@Z 0078bca0 f i nafxcwd:wincore.obj
 0002:000e1d70       ?SetVoid@CComObjectRootBase@ATL@@QAEXPAX@Z 0078bd70 f i nafxcwd:wincore.obj
 0002:000e1d90       ?InternalFinalConstructAddRef@CComObjectRootBase@ATL@@QAEXXZ 0078bd90 f i nafxcwd:wincore.obj
 0002:000e1da0       ?InternalFinalConstructRelease@CComObjectRootBase@ATL@@QAEXXZ 0078bda0 f i nafxcwd:wincore.obj
 0002:000e1df0       ??1?$CComObjectRootEx@VCComSingleThreadModel@ATL@@@ATL@@QAE@XZ 0078bdf0 f i nafxcwd:wincore.obj
 0002:000e1e10       ??1CComObjectRootBase@ATL@@QAE@XZ 0078be10 f i nafxcwd:wincore.obj
 0002:000e1e20       ?InternalAddRef@?$CComObjectRootEx@VCComSingleThreadModel@ATL@@@ATL@@QAEKXZ 0078be20 f i nafxcwd:wincore.obj
 0002:000e1e80       ?Increment@CComSingleThreadModel@ATL@@SGKPAJ@Z 0078be80 f i nafxcwd:wincore.obj
 0002:000e1eb0       ?InternalRelease@?$CComObjectRootEx@VCComSingleThreadModel@ATL@@@ATL@@QAEKXZ 0078beb0 f i nafxcwd:wincore.obj
 0002:000e1f10       ?Decrement@CComSingleThreadModel@ATL@@SGKPAJ@Z 0078bf10 f i nafxcwd:wincore.obj
 0002:000e1f40       ?_AtlInitialConstruct@?$CComObjectRootEx@VCComSingleThreadModel@ATL@@@ATL@@QAEJXZ 0078bf40 f i nafxcwd:wincore.obj
 0002:000e1f60       ??0?$CMap@PAVCWnd@@PAV1@PAVCHwndRenderTarget@@PAV2@@@QAE@H@Z 0078bf60 f i nafxcwd:wincore.obj
 0002:000e2040       ?Serialize@?$CMap@PAVCWnd@@PAV1@PAVCHwndRenderTarget@@PAV2@@@UAEXAAVCArchive@@@Z 0078c040 f i nafxcwd:wincore.obj
 0002:000e21d0       ?Dump@?$CMap@PAVCWnd@@PAV1@PAVCHwndRenderTarget@@PAV2@@@UBEXAAVCDumpContext@@@Z 0078c1d0 f i nafxcwd:wincore.obj
 0002:000e22c0       ?AssertValid@?$CMap@PAVCWnd@@PAV1@PAVCHwndRenderTarget@@PAV2@@@UBEXXZ 0078c2c0 f i nafxcwd:wincore.obj
 0002:000e2330       ??_G?$CMap@PAVCWnd@@PAV1@PAVCHwndRenderTarget@@PAV2@@@UAEPAXI@Z 0078c330 f i nafxcwd:wincore.obj
 0002:000e2330       ??_E?$CMap@PAVCWnd@@PAV1@PAVCHwndRenderTarget@@PAV2@@@UAEPAXI@Z 0078c330 f i nafxcwd:wincore.obj
 0002:000e2370       ??1?$CMap@PAVCWnd@@PAV1@PAVCHwndRenderTarget@@PAV2@@@UAE@XZ 0078c370 f i nafxcwd:wincore.obj
 0002:000e2410       ?GetStartPosition@?$CMap@PAVCWnd@@PAV1@PAVCHwndRenderTarget@@PAV2@@@QBEPAU__POSITION@@XZ 0078c410 f i nafxcwd:wincore.obj
 0002:000e2430       ?GetNextAssoc@?$CMap@PAVCWnd@@PAV1@PAVCHwndRenderTarget@@PAV2@@@QBEXAAPAU__POSITION@@AAPAVCWnd@@AAPAVCHwndRenderTarget@@@Z 0078c430 f i nafxcwd:wincore.obj
 0002:000e2640       ??$SerializeElements@PAVCWnd@@@@YGXAAVCArchive@@PAPAVCWnd@@H@Z 0078c640 f i nafxcwd:wincore.obj
 0002:000e27e0       ??$SerializeElements@PAVCHwndRenderTarget@@@@YGXAAVCArchive@@PAPAVCHwndRenderTarget@@H@Z 0078c7e0 f i nafxcwd:wincore.obj
 0002:000e2980       ??$DumpElements@PAVCWnd@@@@YGXAAVCDumpContext@@PBQAVCWnd@@H@Z 0078c980 f i nafxcwd:wincore.obj
 0002:000e2a30       ??$DumpElements@PAVCHwndRenderTarget@@@@YGXAAVCDumpContext@@PBQAVCHwndRenderTarget@@H@Z 0078ca30 f i nafxcwd:wincore.obj
 0002:000e2ae0       ??1?$CProcessLocal@V_AFX_HTMLHELP_STATE@@@@QAE@XZ 0078cae0 f i nafxcwd:wincore.obj
 0002:000e2b00       ??BCWnd@@QBEPAUHWND__@@XZ  0078cb00 f   nafxcwd:afxinl3.obj
 0002:000e2b40       ??8CWnd@@QBEHABV0@@Z       0078cb40 f   nafxcwd:afxinl3.obj
 0002:000e2b70       ??9CWnd@@QBEHABV0@@Z       0078cb70 f   nafxcwd:afxinl3.obj
 0002:000e2ba0       ?GetSafeHwnd@CWnd@@QBEPAUHWND__@@XZ 0078cba0 f   nafxcwd:afxinl3.obj
 0002:000e2be0       ?GetOwner@CWnd@@QBEPAV1@XZ 0078cbe0 f   nafxcwd:afxinl3.obj
 0002:000e2c30       ?SetOwner@CWnd@@QAEXPAV1@@Z 0078cc30 f   nafxcwd:afxinl3.obj
 0002:000e2c70       ?SendMessageA@CWnd@@QBEJIIJ@Z 0078cc70 f   nafxcwd:afxinl3.obj
 0002:000e2cd0       ?SendMessage@CWnd@@QBEJIIJ@Z 0078ccd0 f   nafxcwd:afxinl3.obj
 0002:000e2d00       ?PostMessageA@CWnd@@QAEHIIJ@Z 0078cd00 f   nafxcwd:afxinl3.obj
 0002:000e2d60       ?DragDetect@CWnd@@QBEHUtagPOINT@@@Z 0078cd60 f   nafxcwd:afxinl3.obj
 0002:000e2dc0       ?SetFont@CWnd@@QAEXPAVCFont@@H@Z 0078cdc0 f   nafxcwd:afxinl3.obj
 0002:000e2e20       ?GetFont@CWnd@@QBEPAVCFont@@XZ 0078ce20 f   nafxcwd:afxinl3.obj
 0002:000e2e80       ?DragAcceptFiles@CWnd@@QAEXH@Z 0078ce80 f   nafxcwd:afxinl3.obj
 0002:000e2ee0       ?DrawMenuBar@CWnd@@QAEXXZ  0078cee0 f   nafxcwd:afxinl3.obj
 0002:000e2f30       ?GetSystemMenu@CWnd@@QBEPAVCMenu@@H@Z 0078cf30 f   nafxcwd:afxinl3.obj
 0002:000e2f90       ?HiliteMenuItem@CWnd@@QAEHPAVCMenu@@II@Z 0078cf90 f   nafxcwd:afxinl3.obj
 0002:000e2ff0       ?EnsureParentFrame@CWnd@@QBEPAVCFrameWnd@@XZ 0078cff0 f   nafxcwd:afxinl3.obj
 0002:000e3040       ?EnsureTopLevelParent@CWnd@@QBEPAV1@XZ 0078d040 f   nafxcwd:afxinl3.obj
 0002:000e3090       ?IsIconic@CWnd@@QBEHXZ     0078d090 f   nafxcwd:afxinl3.obj
 0002:000e30e0       ?IsZoomed@CWnd@@QBEHXZ     0078d0e0 f   nafxcwd:afxinl3.obj
 0002:000e3130       ?MoveWindow@CWnd@@QAEXPBUtagRECT@@H@Z 0078d130 f   nafxcwd:afxinl3.obj
 0002:000e3190       ?ArrangeIconicWindows@CWnd@@QAEIXZ 0078d190 f   nafxcwd:afxinl3.obj
 0002:000e31e0       ?SetWindowRgn@CWnd@@QAEHPAUHRGN__@@H@Z 0078d1e0 f   nafxcwd:afxinl3.obj
 0002:000e3240       ?GetWindowRgn@CWnd@@QBEHPAUHRGN__@@@Z 0078d240 f   nafxcwd:afxinl3.obj
 0002:000e32a0       ?BringWindowToTop@CWnd@@QAEXXZ 0078d2a0 f   nafxcwd:afxinl3.obj
 0002:000e32f0       ?GetWindowRect@CWnd@@QBEXPAUtagRECT@@@Z 0078d2f0 f   nafxcwd:afxinl3.obj
 0002:000e3350       ?GetClientRect@CWnd@@QBEXPAUtagRECT@@@Z 0078d350 f   nafxcwd:afxinl3.obj
 0002:000e33b0       ?MapWindowPoints@CWnd@@QBEXPAV1@PAUtagPOINT@@I@Z 0078d3b0 f   nafxcwd:afxinl3.obj
 0002:000e3420       ?MapWindowPoints@CWnd@@QBEXPAV1@PAUtagRECT@@@Z 0078d420 f   nafxcwd:afxinl3.obj
 0002:000e3480       ?ClientToScreen@CWnd@@QBEXPAUtagPOINT@@@Z 0078d480 f   nafxcwd:afxinl3.obj
 0002:000e34e0       ?ScreenToClient@CWnd@@QBEXPAUtagPOINT@@@Z 0078d4e0 f   nafxcwd:afxinl3.obj
 0002:000e3540       ?BeginPaint@CWnd@@QAEPAVCDC@@PAUtagPAINTSTRUCT@@@Z 0078d540 f   nafxcwd:afxinl3.obj
 0002:000e35a0       ?EndPaint@CWnd@@QAEXPAUtagPAINTSTRUCT@@@Z 0078d5a0 f   nafxcwd:afxinl3.obj
 0002:000e3600       ?GetDC@CWnd@@QAEPAVCDC@@XZ 0078d600 f   nafxcwd:afxinl3.obj
 0002:000e3660       ?GetWindowDC@CWnd@@QAEPAVCDC@@XZ 0078d660 f   nafxcwd:afxinl3.obj
 0002:000e36c0       ?ReleaseDC@CWnd@@QAEHPAVCDC@@@Z 0078d6c0 f   nafxcwd:afxinl3.obj
 0002:000e3720       ?UpdateWindow@CWnd@@QAEXXZ 0078d720 f   nafxcwd:afxinl3.obj
 0002:000e3770       ?SetRedraw@CWnd@@QAEXH@Z   0078d770 f   nafxcwd:afxinl3.obj
 0002:000e37d0       ?GetUpdateRect@CWnd@@QAEHPAUtagRECT@@H@Z 0078d7d0 f   nafxcwd:afxinl3.obj
 0002:000e3830       ?GetUpdateRgn@CWnd@@QAEHPAVCRgn@@H@Z 0078d830 f   nafxcwd:afxinl3.obj
 0002:000e38a0       ?Invalidate@CWnd@@QAEXH@Z  0078d8a0 f   nafxcwd:afxinl3.obj
 0002:000e3900       ?InvalidateRect@CWnd@@QAEXPBUtagRECT@@H@Z 0078d900 f   nafxcwd:afxinl3.obj
 0002:000e3960       ?InvalidateRgn@CWnd@@QAEXPAVCRgn@@H@Z 0078d960 f   nafxcwd:afxinl3.obj
 0002:000e39d0       ?ValidateRect@CWnd@@QAEXPBUtagRECT@@@Z 0078d9d0 f   nafxcwd:afxinl3.obj
 0002:000e3a30       ?ValidateRgn@CWnd@@QAEXPAVCRgn@@@Z 0078da30 f   nafxcwd:afxinl3.obj
 0002:000e3a90       ?IsWindowVisible@CWnd@@QBEHXZ 0078da90 f   nafxcwd:afxinl3.obj
 0002:000e3ae0       ?ShowOwnedPopups@CWnd@@QAEXH@Z 0078dae0 f   nafxcwd:afxinl3.obj
 0002:000e3b40       ?SendMessageToDescendants@CWnd@@QAEXIIJHH@Z 0078db40 f   nafxcwd:afxinl3.obj
 0002:000e3bb0       ?GetDescendantWindow@CWnd@@QBEPAV1@HH@Z 0078dbb0 f   nafxcwd:afxinl3.obj
 0002:000e3c10       ?GetDCEx@CWnd@@QAEPAVCDC@@PAVCRgn@@K@Z 0078dc10 f   nafxcwd:afxinl3.obj
 0002:000e3c80       ?LockWindowUpdate@CWnd@@QAEHXZ 0078dc80 f   nafxcwd:afxinl3.obj
 0002:000e3cd0       ?UnlockWindowUpdate@CWnd@@QAEXXZ 0078dcd0 f   nafxcwd:afxinl3.obj
 0002:000e3d20       ?RedrawWindow@CWnd@@QAEHPBUtagRECT@@PAVCRgn@@I@Z 0078dd20 f   nafxcwd:afxinl3.obj
 0002:000e3d90       ?EnableScrollBar@CWnd@@QAEHHI@Z 0078dd90 f   nafxcwd:afxinl3.obj
 0002:000e3df0       ?DrawAnimatedRects@CWnd@@QAEHHPBUtagRECT@@0@Z 0078ddf0 f   nafxcwd:afxinl3.obj
 0002:000e3e50       ?DrawCaption@CWnd@@QAEHPAVCDC@@PBUtagRECT@@I@Z 0078de50 f   nafxcwd:afxinl3.obj
 0002:000e3ec0       ?SetTimer@CWnd@@QAEIIIP6GXPAUHWND__@@IIK@Z@Z 0078dec0 f   nafxcwd:afxinl3.obj
 0002:000e3f20       ?KillTimer@CWnd@@QAEHI@Z   0078df20 f   nafxcwd:afxinl3.obj
 0002:000e3f80       ?GetActiveWindow@CWnd@@SGPAV1@XZ 0078df80 f   nafxcwd:afxinl3.obj
 0002:000e3fa0       ?SetActiveWindow@CWnd@@QAEPAV1@XZ 0078dfa0 f   nafxcwd:afxinl3.obj
 0002:000e4000       ?GetCapture@CWnd@@SGPAV1@XZ 0078e000 f   nafxcwd:afxinl3.obj
 0002:000e4020       ?SetCapture@CWnd@@QAEPAV1@XZ 0078e020 f   nafxcwd:afxinl3.obj
 0002:000e4080       ?GetFocus@CWnd@@SGPAV1@XZ  0078e080 f   nafxcwd:afxinl3.obj
 0002:000e40a0       ?GetDesktopWindow@CWnd@@SGPAV1@XZ 0078e0a0 f   nafxcwd:afxinl3.obj
 0002:000e40c0       ?DlgDirListA@CWnd@@QAEHPADHHI@Z 0078e0c0 f   nafxcwd:afxinl3.obj
 0002:000e4130       ?DlgDirListComboBoxA@CWnd@@QAEHPADHHI@Z 0078e130 f   nafxcwd:afxinl3.obj
 0002:000e41a0       ?DlgDirSelect@CWnd@@QAEHPADH@Z 0078e1a0 f   nafxcwd:afxinl3.obj
 0002:000e4210       ?DlgDirSelect@CWnd@@QAEHPADHH@Z 0078e210 f   nafxcwd:afxinl3.obj
 0002:000e4270       ?DlgDirSelectComboBox@CWnd@@QAEHPADH@Z 0078e270 f   nafxcwd:afxinl3.obj
 0002:000e42e0       ?DlgDirSelectComboBox@CWnd@@QAEHPADHH@Z 0078e2e0 f   nafxcwd:afxinl3.obj
 0002:000e4340       ?GetNextDlgGroupItem@CWnd@@QBEPAV1@PAV1@H@Z 0078e340 f   nafxcwd:afxinl3.obj
 0002:000e43b0       ?GetNextDlgTabItem@CWnd@@QBEPAV1@PAV1@H@Z 0078e3b0 f   nafxcwd:afxinl3.obj
 0002:000e4420       ?ShowScrollBar@CWnd@@QAEXIH@Z 0078e420 f   nafxcwd:afxinl3.obj
 0002:000e4480       ?ChildWindowFromPoint@CWnd@@QBEPAV1@UtagPOINT@@@Z 0078e480 f   nafxcwd:afxinl3.obj
 0002:000e44f0       ?ChildWindowFromPoint@CWnd@@QBEPAV1@UtagPOINT@@I@Z 0078e4f0 f   nafxcwd:afxinl3.obj
 0002:000e4560       ?FindWindowA@CWnd@@SGPAV1@PBD0@Z 0078e560 f   nafxcwd:afxinl3.obj
 0002:000e4590       ?FindWindowExA@CWnd@@SAPAV1@PAUHWND__@@0PBD1@Z 0078e590 f   nafxcwd:afxinl3.obj
 0002:000e45c0       ?GetNextWindow@CWnd@@QBEPAV1@I@Z 0078e5c0 f   nafxcwd:afxinl3.obj
 0002:000e4620       ?GetTopWindow@CWnd@@QBEPAV1@XZ 0078e620 f   nafxcwd:afxinl3.obj
 0002:000e4680       ?GetWindow@CWnd@@QBEPAV1@I@Z 0078e680 f   nafxcwd:afxinl3.obj
 0002:000e46e0       ?GetLastActivePopup@CWnd@@QBEPAV1@XZ 0078e6e0 f   nafxcwd:afxinl3.obj
 0002:000e4740       ?IsChild@CWnd@@QBEHPBV1@@Z 0078e740 f   nafxcwd:afxinl3.obj
 0002:000e47a0       ?GetParent@CWnd@@QBEPAV1@XZ 0078e7a0 f   nafxcwd:afxinl3.obj
 0002:000e4800       ?SetParent@CWnd@@QAEPAV1@PAV1@@Z 0078e800 f   nafxcwd:afxinl3.obj
 0002:000e4870       ?WindowFromPoint@CWnd@@SGPAV1@UtagPOINT@@@Z 0078e870 f   nafxcwd:afxinl3.obj
 0002:000e48a0       ?MessageBox@CWnd@@QAEHPBD0I@Z 0078e8a0 f   nafxcwd:afxinl3.obj
 0002:000e48d0       ?FlashWindow@CWnd@@QAEHH@Z 0078e8d0 f   nafxcwd:afxinl3.obj
 0002:000e4930       ?ChangeClipboardChain@CWnd@@QAEHPAUHWND__@@@Z 0078e930 f   nafxcwd:afxinl3.obj
 0002:000e4990       ?SetClipboardViewer@CWnd@@QAEPAUHWND__@@XZ 0078e990 f   nafxcwd:afxinl3.obj
 0002:000e49e0       ?OpenClipboard@CWnd@@QAEHXZ 0078e9e0 f   nafxcwd:afxinl3.obj
 0002:000e4a30       ?GetOpenClipboardWindow@CWnd@@SGPAV1@XZ 0078ea30 f   nafxcwd:afxinl3.obj
 0002:000e4a50       ?GetClipboardOwner@CWnd@@SGPAV1@XZ 0078ea50 f   nafxcwd:afxinl3.obj
 0002:000e4a70       ?GetClipboardViewer@CWnd@@SGPAV1@XZ 0078ea70 f   nafxcwd:afxinl3.obj
 0002:000e4a90       ?CreateCaret@CWnd@@QAEXPAVCBitmap@@@Z 0078ea90 f   nafxcwd:afxinl3.obj
 0002:000e4b00       ?CreateSolidCaret@CWnd@@QAEXHH@Z 0078eb00 f   nafxcwd:afxinl3.obj
 0002:000e4b60       ?CreateGrayCaret@CWnd@@QAEXHH@Z 0078eb60 f   nafxcwd:afxinl3.obj
 0002:000e4bc0       ?GetCaretPos@CWnd@@SG?AVCPoint@@XZ 0078ebc0 f   nafxcwd:afxinl3.obj
 0002:000e4c00       ?SetCaretPos@CWnd@@SGXUtagPOINT@@@Z 0078ec00 f   nafxcwd:afxinl3.obj
 0002:000e4c20       ?HideCaret@CWnd@@QAEXXZ    0078ec20 f   nafxcwd:afxinl3.obj
 0002:000e4c70       ?ShowCaret@CWnd@@QAEXXZ    0078ec70 f   nafxcwd:afxinl3.obj
 0002:000e4cc0       ?SetForegroundWindow@CWnd@@QAEHXZ 0078ecc0 f   nafxcwd:afxinl3.obj
 0002:000e4d10       ?GetForegroundWindow@CWnd@@SGPAV1@XZ 0078ed10 f   nafxcwd:afxinl3.obj
 0002:000e4d30       ?SendNotifyMessageA@CWnd@@QAEHIIJ@Z 0078ed30 f   nafxcwd:afxinl3.obj
 0002:000e4d90       ?SetIcon@CWnd@@QAEPAUHICON__@@PAU2@H@Z 0078ed90 f   nafxcwd:afxinl3.obj
 0002:000e4e00       ?GetIcon@CWnd@@QBEPAUHICON__@@H@Z 0078ee00 f   nafxcwd:afxinl3.obj
 0002:000e4e60       ?Print@CWnd@@QBEXPAVCDC@@K@Z 0078ee60 f   nafxcwd:afxinl3.obj
 0002:000e4ed0       ?PrintClient@CWnd@@QBEXPAVCDC@@K@Z 0078eed0 f   nafxcwd:afxinl3.obj
 0002:000e4f40       ?SetWindowContextHelpId@CWnd@@QAEHK@Z 0078ef40 f   nafxcwd:afxinl3.obj
 0002:000e4fa0       ?GetWindowContextHelpId@CWnd@@QBEKXZ 0078efa0 f   nafxcwd:afxinl3.obj
 0002:000e4ff0       ?EnableActiveAccessibility@CWnd@@QAEXXZ 0078eff0 f   nafxcwd:afxinl3.obj
 0002:000e5010       ?NotifyWinEvent@CWnd@@QAEXKJJ@Z 0078f010 f   nafxcwd:afxinl3.obj
 0002:000e5070       ?OnActivateApp@CWnd@@IAEXHK@Z 0078f070 f   nafxcwd:afxinl3.obj
 0002:000e5090       ?OnActivate@CWnd@@IAEXIPAV1@H@Z 0078f090 f   nafxcwd:afxinl3.obj
 0002:000e50b0       ?OnCancelMode@CWnd@@IAEXXZ 0078f0b0 f   nafxcwd:afxinl3.obj
 0002:000e50d0       ?OnChildActivate@CWnd@@IAEXXZ 0078f0d0 f   nafxcwd:afxinl3.obj
 0002:000e50f0       ?OnClose@CWnd@@IAEXXZ      0078f0f0 f   nafxcwd:afxinl3.obj
 0002:000e5110       ?OnContextMenu@CWnd@@IAEXPAV1@VCPoint@@@Z 0078f110 f   nafxcwd:afxinl3.obj
 0002:000e5130       ?OnCopyData@CWnd@@IAEHPAV1@PAUtagCOPYDATASTRUCT@@@Z 0078f130 f   nafxcwd:afxinl3.obj
 0002:000e5150       ?OnCreate@CWnd@@IAEHPAUtagCREATESTRUCTA@@@Z 0078f150 f   nafxcwd:afxinl3.obj
 0002:000e5170       ?OnEnable@CWnd@@IAEXH@Z    0078f170 f   nafxcwd:afxinl3.obj
 0002:000e5190       ?OnEndSession@CWnd@@IAEXH@Z 0078f190 f   nafxcwd:afxinl3.obj
 0002:000e51b0       ?OnEraseBkgnd@CWnd@@IAEHPAVCDC@@@Z 0078f1b0 f   nafxcwd:afxinl3.obj
 0002:000e51d0       ?OnGetMinMaxInfo@CWnd@@IAEXPAUtagMINMAXINFO@@@Z 0078f1d0 f   nafxcwd:afxinl3.obj
 0002:000e51f0       ?OnIconEraseBkgnd@CWnd@@IAEXPAVCDC@@@Z 0078f1f0 f   nafxcwd:afxinl3.obj
 0002:000e5210       ?OnKillFocus@CWnd@@IAEXPAV1@@Z 0078f210 f   nafxcwd:afxinl3.obj
 0002:000e5230       ?OnMenuChar@CWnd@@IAEJIIPAVCMenu@@@Z 0078f230 f   nafxcwd:afxinl3.obj
 0002:000e5250       ?OnMenuSelect@CWnd@@IAEXIIPAUHMENU__@@@Z 0078f250 f   nafxcwd:afxinl3.obj
 0002:000e5270       ?OnMove@CWnd@@IAEXHH@Z     0078f270 f   nafxcwd:afxinl3.obj
 0002:000e5290       ?OnSyncPaint@CWnd@@IAEXXZ  0078f290 f   nafxcwd:afxinl3.obj
 0002:000e52b0       ?OnQueryDragIcon@CWnd@@IAEPAUHICON__@@XZ 0078f2b0 f   nafxcwd:afxinl3.obj
 0002:000e52d0       ?OnQueryEndSession@CWnd@@IAEHXZ 0078f2d0 f   nafxcwd:afxinl3.obj
 0002:000e52f0       ?OnQueryNewPalette@CWnd@@IAEHXZ 0078f2f0 f   nafxcwd:afxinl3.obj
 0002:000e5310       ?OnQueryOpen@CWnd@@IAEHXZ  0078f310 f   nafxcwd:afxinl3.obj
 0002:000e5330       ?OnSetCursor@CWnd@@IAEHPAV1@II@Z 0078f330 f   nafxcwd:afxinl3.obj
 0002:000e5350       ?OnShowWindow@CWnd@@IAEXHI@Z 0078f350 f   nafxcwd:afxinl3.obj
 0002:000e5370       ?OnSize@CWnd@@IAEXIHH@Z    0078f370 f   nafxcwd:afxinl3.obj
 0002:000e5390       ?OnTCard@CWnd@@IAEXIK@Z    0078f390 f   nafxcwd:afxinl3.obj
 0002:000e53b0       ?OnWindowPosChanging@CWnd@@IAEXPAUtagWINDOWPOS@@@Z 0078f3b0 f   nafxcwd:afxinl3.obj
 0002:000e53d0       ?OnWindowPosChanged@CWnd@@IAEXPAUtagWINDOWPOS@@@Z 0078f3d0 f   nafxcwd:afxinl3.obj
 0002:000e53f0       ?OnSessionChange@CWnd@@IAEXII@Z 0078f3f0 f   nafxcwd:afxinl3.obj
 0002:000e5410       ?OnDropFiles@CWnd@@IAEXPAUHDROP__@@@Z 0078f410 f   nafxcwd:afxinl3.obj
 0002:000e5430       ?OnPaletteIsChanging@CWnd@@IAEXPAV1@@Z 0078f430 f   nafxcwd:afxinl3.obj
 0002:000e5450       ?OnNcActivate@CWnd@@IAEHH@Z 0078f450 f   nafxcwd:afxinl3.obj
 0002:000e5470       ?OnNcCalcSize@CWnd@@IAEXHPAUtagNCCALCSIZE_PARAMS@@@Z 0078f470 f   nafxcwd:afxinl3.obj
 0002:000e5490       ?OnNcCreate@CWnd@@IAEHPAUtagCREATESTRUCTA@@@Z 0078f490 f   nafxcwd:afxinl3.obj
 0002:000e54b0       ?OnNcHitTest@CWnd@@IAEJVCPoint@@@Z 0078f4b0 f   nafxcwd:afxinl3.obj
 0002:000e54d0       ?OnNcLButtonDblClk@CWnd@@IAEXIVCPoint@@@Z 0078f4d0 f   nafxcwd:afxinl3.obj
 0002:000e54f0       ?OnNcLButtonDown@CWnd@@IAEXIVCPoint@@@Z 0078f4f0 f   nafxcwd:afxinl3.obj
 0002:000e5510       ?OnNcLButtonUp@CWnd@@IAEXIVCPoint@@@Z 0078f510 f   nafxcwd:afxinl3.obj
 0002:000e5530       ?OnNcMButtonDblClk@CWnd@@IAEXIVCPoint@@@Z 0078f530 f   nafxcwd:afxinl3.obj
 0002:000e5550       ?OnNcMButtonDown@CWnd@@IAEXIVCPoint@@@Z 0078f550 f   nafxcwd:afxinl3.obj
 0002:000e5570       ?OnNcMButtonUp@CWnd@@IAEXIVCPoint@@@Z 0078f570 f   nafxcwd:afxinl3.obj
 0002:000e5590       ?OnNcMouseHover@CWnd@@IAEXIVCPoint@@@Z 0078f590 f   nafxcwd:afxinl3.obj
 0002:000e55b0       ?OnNcMouseLeave@CWnd@@IAEXXZ 0078f5b0 f   nafxcwd:afxinl3.obj
 0002:000e55d0       ?OnNcMouseMove@CWnd@@IAEXIVCPoint@@@Z 0078f5d0 f   nafxcwd:afxinl3.obj
 0002:000e55f0       ?OnNcPaint@CWnd@@IAEXXZ    0078f5f0 f   nafxcwd:afxinl3.obj
 0002:000e5610       ?OnNcRButtonDblClk@CWnd@@IAEXIVCPoint@@@Z 0078f610 f   nafxcwd:afxinl3.obj
 0002:000e5630       ?OnNcRButtonDown@CWnd@@IAEXIVCPoint@@@Z 0078f630 f   nafxcwd:afxinl3.obj
 0002:000e5650       ?OnNcRButtonUp@CWnd@@IAEXIVCPoint@@@Z 0078f650 f   nafxcwd:afxinl3.obj
 0002:000e5670       ?OnNcXButtonDown@CWnd@@IAEXFIVCPoint@@@Z 0078f670 f   nafxcwd:afxinl3.obj
 0002:000e5690       ?OnNcXButtonUp@CWnd@@IAEXFIVCPoint@@@Z 0078f690 f   nafxcwd:afxinl3.obj
 0002:000e56b0       ?OnNcXButtonDblClk@CWnd@@IAEXFIVCPoint@@@Z 0078f6b0 f   nafxcwd:afxinl3.obj
 0002:000e56d0       ?OnSysChar@CWnd@@IAEXIII@Z 0078f6d0 f   nafxcwd:afxinl3.obj
 0002:000e56f0       ?OnSysCommand@CWnd@@IAEXIJ@Z 0078f6f0 f   nafxcwd:afxinl3.obj
 0002:000e5710       ?OnSysDeadChar@CWnd@@IAEXIII@Z 0078f710 f   nafxcwd:afxinl3.obj
 0002:000e5730       ?OnSysKeyDown@CWnd@@IAEXIII@Z 0078f730 f   nafxcwd:afxinl3.obj
 0002:000e5750       ?OnSysKeyUp@CWnd@@IAEXIII@Z 0078f750 f   nafxcwd:afxinl3.obj
 0002:000e5770       ?OnAppCommand@CWnd@@IAEHPAV1@III@Z 0078f770 f   nafxcwd:afxinl3.obj
 0002:000e5790       ?OnRawInput@CWnd@@IAEXIPAUHRAWINPUT__@@@Z 0078f790 f   nafxcwd:afxinl3.obj
 0002:000e57b0       ?OnCompacting@CWnd@@IAEXI@Z 0078f7b0 f   nafxcwd:afxinl3.obj
 0002:000e57d0       ?OnFontChange@CWnd@@IAEXXZ 0078f7d0 f   nafxcwd:afxinl3.obj
 0002:000e57f0       ?OnPaletteChanged@CWnd@@IAEXPAV1@@Z 0078f7f0 f   nafxcwd:afxinl3.obj
 0002:000e5810       ?OnSpoolerStatus@CWnd@@IAEXII@Z 0078f810 f   nafxcwd:afxinl3.obj
 0002:000e5830       ?OnTimeChange@CWnd@@IAEXXZ 0078f830 f   nafxcwd:afxinl3.obj
 0002:000e5850       ?OnPowerBroadcast@CWnd@@IAEIII@Z 0078f850 f   nafxcwd:afxinl3.obj
 0002:000e5870       ?OnUserChanged@CWnd@@IAEXXZ 0078f870 f   nafxcwd:afxinl3.obj
 0002:000e5890       ?OnInputLangChange@CWnd@@IAEXII@Z 0078f890 f   nafxcwd:afxinl3.obj
 0002:000e58b0       ?OnInputLangChangeRequest@CWnd@@IAEXII@Z 0078f8b0 f   nafxcwd:afxinl3.obj
 0002:000e58d0       ?OnInputDeviceChange@CWnd@@IAEXGPAX@Z 0078f8d0 f   nafxcwd:afxinl3.obj
 0002:000e58f0       ?OnChar@CWnd@@IAEXIII@Z    0078f8f0 f   nafxcwd:afxinl3.obj
 0002:000e5910       ?OnDeadChar@CWnd@@IAEXIII@Z 0078f910 f   nafxcwd:afxinl3.obj
 0002:000e5930       ?OnUniChar@CWnd@@IAEXIII@Z 0078f930 f   nafxcwd:afxinl3.obj
 0002:000e5950       ?OnKeyDown@CWnd@@IAEXIII@Z 0078f950 f   nafxcwd:afxinl3.obj
 0002:000e5970       ?OnKeyUp@CWnd@@IAEXIII@Z   0078f970 f   nafxcwd:afxinl3.obj
 0002:000e5990       ?OnHotKey@CWnd@@IAEXIII@Z  0078f990 f   nafxcwd:afxinl3.obj
 0002:000e59b0       ?OnLButtonDblClk@CWnd@@IAEXIVCPoint@@@Z 0078f9b0 f   nafxcwd:afxinl3.obj
 0002:000e59d0       ?OnLButtonDown@CWnd@@IAEXIVCPoint@@@Z 0078f9d0 f   nafxcwd:afxinl3.obj
 0002:000e59f0       ?OnLButtonUp@CWnd@@IAEXIVCPoint@@@Z 0078f9f0 f   nafxcwd:afxinl3.obj
 0002:000e5a10       ?OnMButtonDblClk@CWnd@@IAEXIVCPoint@@@Z 0078fa10 f   nafxcwd:afxinl3.obj
 0002:000e5a30       ?OnMButtonDown@CWnd@@IAEXIVCPoint@@@Z 0078fa30 f   nafxcwd:afxinl3.obj
 0002:000e5a50       ?OnMButtonUp@CWnd@@IAEXIVCPoint@@@Z 0078fa50 f   nafxcwd:afxinl3.obj
 0002:000e5a70       ?OnXButtonDblClk@CWnd@@IAEXIIVCPoint@@@Z 0078fa70 f   nafxcwd:afxinl3.obj
 0002:000e5a90       ?OnXButtonDown@CWnd@@IAEXIIVCPoint@@@Z 0078fa90 f   nafxcwd:afxinl3.obj
 0002:000e5ab0       ?OnXButtonUp@CWnd@@IAEXIIVCPoint@@@Z 0078fab0 f   nafxcwd:afxinl3.obj
 0002:000e5ad0       ?OnMouseActivate@CWnd@@IAEHPAV1@II@Z 0078fad0 f   nafxcwd:afxinl3.obj
 0002:000e5af0       ?OnMouseHover@CWnd@@IAEXIVCPoint@@@Z 0078faf0 f   nafxcwd:afxinl3.obj
 0002:000e5b10       ?OnMouseLeave@CWnd@@IAEXXZ 0078fb10 f   nafxcwd:afxinl3.obj
 0002:000e5b30       ?OnMouseMove@CWnd@@IAEXIVCPoint@@@Z 0078fb30 f   nafxcwd:afxinl3.obj
 0002:000e5b50       ?OnMouseHWheel@CWnd@@IAEXIFVCPoint@@@Z 0078fb50 f   nafxcwd:afxinl3.obj
 0002:000e5b70       ?OnMouseWheel@CWnd@@IAEHIFVCPoint@@@Z 0078fb70 f   nafxcwd:afxinl3.obj
 0002:000e5b90       ?OnRButtonDblClk@CWnd@@IAEXIVCPoint@@@Z 0078fb90 f   nafxcwd:afxinl3.obj
 0002:000e5bb0       ?OnRButtonDown@CWnd@@IAEXIVCPoint@@@Z 0078fbb0 f   nafxcwd:afxinl3.obj
 0002:000e5bd0       ?OnRButtonUp@CWnd@@IAEXIVCPoint@@@Z 0078fbd0 f   nafxcwd:afxinl3.obj
 0002:000e5bf0       ?OnTimer@CWnd@@IAEXI@Z     0078fbf0 f   nafxcwd:afxinl3.obj
 0002:000e5c10       ?OnInitMenu@CWnd@@IAEXPAVCMenu@@@Z 0078fc10 f   nafxcwd:afxinl3.obj
 0002:000e5c30       ?OnInitMenuPopup@CWnd@@IAEXPAVCMenu@@IH@Z 0078fc30 f   nafxcwd:afxinl3.obj
 0002:000e5c50       ?OnUnInitMenuPopup@CWnd@@IAEXPAVCMenu@@I@Z 0078fc50 f   nafxcwd:afxinl3.obj
 0002:000e5c70       ?OnAskCbFormatName@CWnd@@IAEXIPAD@Z 0078fc70 f   nafxcwd:afxinl3.obj
 0002:000e5ca0       ?OnChangeCbChain@CWnd@@IAEXPAUHWND__@@0@Z 0078fca0 f   nafxcwd:afxinl3.obj
 0002:000e5cc0       ?OnDestroyClipboard@CWnd@@IAEXXZ 0078fcc0 f   nafxcwd:afxinl3.obj
 0002:000e5ce0       ?OnDrawClipboard@CWnd@@IAEXXZ 0078fce0 f   nafxcwd:afxinl3.obj
 0002:000e5d00       ?OnHScrollClipboard@CWnd@@IAEXPAV1@II@Z 0078fd00 f   nafxcwd:afxinl3.obj
 0002:000e5d20       ?OnPaintClipboard@CWnd@@IAEXPAV1@PAX@Z 0078fd20 f   nafxcwd:afxinl3.obj
 0002:000e5d40       ?OnRenderAllFormats@CWnd@@IAEXXZ 0078fd40 f   nafxcwd:afxinl3.obj
 0002:000e5d60       ?OnRenderFormat@CWnd@@IAEXI@Z 0078fd60 f   nafxcwd:afxinl3.obj
 0002:000e5d80       ?OnSizeClipboard@CWnd@@IAEXPAV1@PAX@Z 0078fd80 f   nafxcwd:afxinl3.obj
 0002:000e5da0       ?OnVScrollClipboard@CWnd@@IAEXPAV1@II@Z 0078fda0 f   nafxcwd:afxinl3.obj
 0002:000e5dc0       ?OnClipboardUpdate@CWnd@@IAEXXZ 0078fdc0 f   nafxcwd:afxinl3.obj
 0002:000e5de0       ?OnGetDlgCode@CWnd@@IAEIXZ 0078fde0 f   nafxcwd:afxinl3.obj
 0002:000e5e00       ?OnMDIActivate@CWnd@@IAEXHPAV1@0@Z 0078fe00 f   nafxcwd:afxinl3.obj
 0002:000e5e20       ?OnEnterMenuLoop@CWnd@@IAEXH@Z 0078fe20 f   nafxcwd:afxinl3.obj
 0002:000e5e40       ?OnExitMenuLoop@CWnd@@IAEXH@Z 0078fe40 f   nafxcwd:afxinl3.obj
 0002:000e5e60       ?OnMenuRButtonUp@CWnd@@IAEXIPAVCMenu@@@Z 0078fe60 f   nafxcwd:afxinl3.obj
 0002:000e5e80       ?OnMenuDrag@CWnd@@IAEIIPAVCMenu@@@Z 0078fe80 f   nafxcwd:afxinl3.obj
 0002:000e5ea0       ?OnMenuGetObject@CWnd@@IAEIPAUtagMENUGETOBJECTINFO@@@Z 0078fea0 f   nafxcwd:afxinl3.obj
 0002:000e5ec0       ?OnMenuCommand@CWnd@@IAEXIPAVCMenu@@@Z 0078fec0 f   nafxcwd:afxinl3.obj
 0002:000e5ee0       ?OnNextMenu@CWnd@@IAEXIPAUtagMDINEXTMENU@@@Z 0078fee0 f   nafxcwd:afxinl3.obj
 0002:000e5f00       ?OnNotifyFormat@CWnd@@IAEIPAV1@I@Z 0078ff00 f   nafxcwd:afxinl3.obj
 0002:000e5f20       ?OnStyleChanged@CWnd@@IAEXHPAUtagSTYLESTRUCT@@@Z 0078ff20 f   nafxcwd:afxinl3.obj
 0002:000e5f40       ?OnStyleChanging@CWnd@@IAEXHPAUtagSTYLESTRUCT@@@Z 0078ff40 f   nafxcwd:afxinl3.obj
 0002:000e5f60       ?OnSizing@CWnd@@IAEXIPAUtagRECT@@@Z 0078ff60 f   nafxcwd:afxinl3.obj
 0002:000e5f80       ?OnMoving@CWnd@@IAEXIPAUtagRECT@@@Z 0078ff80 f   nafxcwd:afxinl3.obj
 0002:000e5fa0       ?OnEnterSizeMove@CWnd@@IAEXXZ 0078ffa0 f   nafxcwd:afxinl3.obj
 0002:000e5fc0       ?OnExitSizeMove@CWnd@@IAEXXZ 0078ffc0 f   nafxcwd:afxinl3.obj
 0002:000e5fe0       ?OnCaptureChanged@CWnd@@IAEXPAV1@@Z 0078ffe0 f   nafxcwd:afxinl3.obj
 0002:000e6000       ?OnDeviceChange@CWnd@@IAEHIK@Z 00790000 f   nafxcwd:afxinl3.obj
 0002:000e6020       ?OnWinIniChange@CWnd@@IAEXPBD@Z 00790020 f   nafxcwd:afxinl3.obj
 0002:000e6040       ?OnChangeUIState@CWnd@@IAEXII@Z 00790040 f   nafxcwd:afxinl3.obj
 0002:000e6060       ?OnUpdateUIState@CWnd@@IAEXII@Z 00790060 f   nafxcwd:afxinl3.obj
 0002:000e6080       ?OnQueryUIState@CWnd@@IAEIXZ 00790080 f   nafxcwd:afxinl3.obj
 0002:000e60a0       ?OnCompositionChanged@CWnd@@IAEXXZ 007900a0 f   nafxcwd:afxinl3.obj
 0002:000e60c0       ?OnNcRenderingChanged@CWnd@@IAEXH@Z 007900c0 f   nafxcwd:afxinl3.obj
 0002:000e60e0       ?OnColorizationColorChanged@CWnd@@IAEXKH@Z 007900e0 f   nafxcwd:afxinl3.obj
 0002:000e6100       ?OnWindowMaximizedChange@CWnd@@IAEXH@Z 00790100 f   nafxcwd:afxinl3.obj
 0002:000e6120       ?DoDataExchange@CWnd@@MAEXPAVCDataExchange@@@Z 00790120 f   nafxcwd:afxinl3.obj
 0002:000e6140       ?BeginModalState@CWnd@@UAEXXZ 00790140 f   nafxcwd:afxinl3.obj
 0002:000e6170       ?EndModalState@CWnd@@UAEXXZ 00790170 f   nafxcwd:afxinl3.obj
 0002:000e61a0       ?DelayUpdateFrameTitle@CFrameWnd@@QAEXXZ 007901a0 f   nafxcwd:afxinl3.obj
 0002:000e61d0       ?DelayRecalcLayout@CFrameWnd@@QAEXH@Z 007901d0 f   nafxcwd:afxinl3.obj
 0002:000e6210       ?InModalState@CFrameWnd@@QBEHXZ 00790210 f   nafxcwd:afxinl3.obj
 0002:000e6240       ?AddControlBar@CFrameWnd@@QAEXPAVCControlBar@@@Z 00790240 f   nafxcwd:afxinl3.obj
 0002:000e6270       ?SetTitle@CFrameWnd@@QAEXPBD@Z 00790270 f   nafxcwd:afxinl3.obj
 0002:000e62a0       ?GetTitle@CFrameWnd@@QBE?AV?$CStringT@DV?$StrTraitMFC@DV?$ChTraitsCRT@D@ATL@@@@@ATL@@XZ 007902a0 f   nafxcwd:afxinl3.obj
 0002:000e62f0       ?Create@CDialog@@UAEHIPAVCWnd@@@Z 007902f0 f   nafxcwd:afxinl3.obj
 0002:000e6320       ?MapDialogRect@CDialog@@QBEXPAUtagRECT@@@Z 00790320 f   nafxcwd:afxinl3.obj
 0002:000e6380       ?SetHelpID@CDialog@@QAEXI@Z 00790380 f   nafxcwd:afxinl3.obj
 0002:000e63a0       ?NextDlgCtrl@CDialog@@QBEXXZ 007903a0 f   nafxcwd:afxinl3.obj
 0002:000e6400       ?PrevDlgCtrl@CDialog@@QBEXXZ 00790400 f   nafxcwd:afxinl3.obj
 0002:000e6460       ?GotoDlgCtrl@CDialog@@QAEXPAVCWnd@@@Z 00790460 f   nafxcwd:afxinl3.obj
 0002:000e64c0       ?SetDefID@CDialog@@QAEXI@Z 007904c0 f   nafxcwd:afxinl3.obj
 0002:000e6520       ?GetDefID@CDialog@@QBEKXZ  00790520 f   nafxcwd:afxinl3.obj
 0002:000e6580       ??0CStatic@@QAE@XZ         00790580 f   nafxcwd:afxinl3.obj
 0002:000e65b0       ??_ECStatic@@UAEPAXI@Z     007905b0 f i nafxcwd:afxinl3.obj
 0002:000e65b0       ??_GCStatic@@UAEPAXI@Z     007905b0 f i nafxcwd:afxinl3.obj
 0002:000e65f0       ?SetIcon@CStatic@@QAEPAUHICON__@@PAU2@@Z 007905f0 f   nafxcwd:afxinl3.obj
 0002:000e6650       ?GetIcon@CStatic@@QBEPAUHICON__@@XZ 00790650 f   nafxcwd:afxinl3.obj
 0002:000e66b0       ?SetEnhMetaFile@CStatic@@QAEPAUHENHMETAFILE__@@PAU2@@Z 007906b0 f   nafxcwd:afxinl3.obj
 0002:000e6710       ?GetEnhMetaFileA@CStatic@@QBEPAUHENHMETAFILE__@@XZ 00790710 f   nafxcwd:afxinl3.obj
 0002:000e6770       ?SetBitmap@CStatic@@QAEPAUHBITMAP__@@PAU2@@Z 00790770 f   nafxcwd:afxinl3.obj
 0002:000e67d0       ?GetBitmap@CStatic@@QBEPAUHBITMAP__@@XZ 007907d0 f   nafxcwd:afxinl3.obj
 0002:000e6830       ?SetCursor@CStatic@@QAEPAUHICON__@@PAU2@@Z 00790830 f   nafxcwd:afxinl3.obj
 0002:000e6890       ?GetCursor@CStatic@@QAEPAUHICON__@@XZ 00790890 f   nafxcwd:afxinl3.obj
 0002:000e68f0       ??0CButton@@QAE@XZ         007908f0 f   nafxcwd:afxinl3.obj
 0002:000e6920       ??_GCButton@@UAEPAXI@Z     00790920 f i nafxcwd:afxinl3.obj
 0002:000e6920       ??_ECButton@@UAEPAXI@Z     00790920 f i nafxcwd:afxinl3.obj
 0002:000e6960       ?GetState@CButton@@QBEIXZ  00790960 f   nafxcwd:afxinl3.obj
 0002:000e69c0       ?SetState@CButton@@QAEXH@Z 007909c0 f   nafxcwd:afxinl3.obj
 0002:000e69f0       ?GetCheck@CButton@@QBEHXZ  007909f0 f   nafxcwd:afxinl3.obj
 0002:000e6a50       ?SetCheck@CButton@@QAEXH@Z 00790a50 f   nafxcwd:afxinl3.obj
 0002:000e6ab0       ?GetButtonStyle@CButton@@QBEIXZ 00790ab0 f   nafxcwd:afxinl3.obj
 0002:000e6b10       ?SetButtonStyle@CButton@@QAEXIH@Z 00790b10 f   nafxcwd:afxinl3.obj
 0002:000e6b80       ?SetIcon@CButton@@QAEPAUHICON__@@PAU2@@Z 00790b80 f   nafxcwd:afxinl3.obj
 0002:000e6be0       ?GetIcon@CButton@@QBEPAUHICON__@@XZ 00790be0 f   nafxcwd:afxinl3.obj
 0002:000e6c40       ?SetBitmap@CButton@@QAEPAUHBITMAP__@@PAU2@@Z 00790c40 f   nafxcwd:afxinl3.obj
 0002:000e6ca0       ?GetBitmap@CButton@@QBEPAUHBITMAP__@@XZ 00790ca0 f   nafxcwd:afxinl3.obj
 0002:000e6d00       ?SetCursor@CButton@@QAEPAUHICON__@@PAU2@@Z 00790d00 f   nafxcwd:afxinl3.obj
 0002:000e6d60       ?GetCursor@CButton@@QAEPAUHICON__@@XZ 00790d60 f   nafxcwd:afxinl3.obj
 0002:000e6dc0       ??0CListBox@@QAE@XZ        00790dc0 f   nafxcwd:afxinl3.obj
 0002:000e6df0       ??_GCListBox@@UAEPAXI@Z    00790df0 f i nafxcwd:afxinl3.obj
 0002:000e6df0       ??_ECListBox@@UAEPAXI@Z    00790df0 f i nafxcwd:afxinl3.obj
 0002:000e6e30       ?GetCount@CListBox@@QBEHXZ 00790e30 f   nafxcwd:afxinl3.obj
 0002:000e6e90       ?GetCurSel@CListBox@@QBEHXZ 00790e90 f   nafxcwd:afxinl3.obj
 0002:000e6ef0       ?SetCurSel@CListBox@@QAEHH@Z 00790ef0 f   nafxcwd:afxinl3.obj
 0002:000e6f50       ?GetHorizontalExtent@CListBox@@QBEHXZ 00790f50 f   nafxcwd:afxinl3.obj
 0002:000e6fb0       ?SetHorizontalExtent@CListBox@@QAEXH@Z 00790fb0 f   nafxcwd:afxinl3.obj
 0002:000e7010       ?GetSelCount@CListBox@@QBEHXZ 00791010 f   nafxcwd:afxinl3.obj
 0002:000e7070       ?GetSelItems@CListBox@@QBEHHPAH@Z 00791070 f   nafxcwd:afxinl3.obj
 0002:000e70e0       ?GetTopIndex@CListBox@@QBEHXZ 007910e0 f   nafxcwd:afxinl3.obj
 0002:000e7140       ?SetTopIndex@CListBox@@QAEHH@Z 00791140 f   nafxcwd:afxinl3.obj
 0002:000e71a0       ?GetItemData@CListBox@@QBEKH@Z 007911a0 f   nafxcwd:afxinl3.obj
 0002:000e7200       ?SetItemData@CListBox@@QAEHHK@Z 00791200 f   nafxcwd:afxinl3.obj
 0002:000e7270       ?GetItemDataPtr@CListBox@@QBEPAXH@Z 00791270 f   nafxcwd:afxinl3.obj
 0002:000e72d0       ?SetItemDataPtr@CListBox@@QAEHHPAX@Z 007912d0 f   nafxcwd:afxinl3.obj
 0002:000e7330       ?GetItemRect@CListBox@@QBEHHPAUtagRECT@@@Z 00791330 f   nafxcwd:afxinl3.obj
 0002:000e73a0       ?GetSel@CListBox@@QBEHH@Z  007913a0 f   nafxcwd:afxinl3.obj
 0002:000e7400       ?SetSel@CListBox@@QAEHHH@Z 00791400 f   nafxcwd:afxinl3.obj
 0002:000e7470       ?GetText@CListBox@@QBEHHPAD@Z 00791470 f   nafxcwd:afxinl3.obj
 0002:000e74e0       ?GetTextLen@CListBox@@QBEHH@Z 007914e0 f   nafxcwd:afxinl3.obj
 0002:000e7540       ?SetColumnWidth@CListBox@@QAEXH@Z 00791540 f   nafxcwd:afxinl3.obj
 0002:000e75a0       ?SetTabStops@CListBox@@QAEHHPAH@Z 007915a0 f   nafxcwd:afxinl3.obj
 0002:000e7610       ?SetTabStops@CListBox@@QAEXXZ 00791610 f   nafxcwd:afxinl3.obj
 0002:000e7690       ?SetTabStops@CListBox@@QAEHABH@Z 00791690 f   nafxcwd:afxinl3.obj
 0002:000e76f0       ?SetItemHeight@CListBox@@QAEHHI@Z 007916f0 f   nafxcwd:afxinl3.obj
 0002:000e7760       ?GetItemHeight@CListBox@@QBEHH@Z 00791760 f   nafxcwd:afxinl3.obj
 0002:000e77c0       ?FindStringExact@CListBox@@QBEHHPBD@Z 007917c0 f   nafxcwd:afxinl3.obj
 0002:000e7830       ?GetCaretIndex@CListBox@@QBEHXZ 00791830 f   nafxcwd:afxinl3.obj
 0002:000e7890       ?SetCaretIndex@CListBox@@QAEHHH@Z 00791890 f   nafxcwd:afxinl3.obj
 0002:000e7900       ?AddString@CListBox@@QAEHPBD@Z 00791900 f   nafxcwd:afxinl3.obj
 0002:000e7960       ?DeleteString@CListBox@@QAEHI@Z 00791960 f   nafxcwd:afxinl3.obj
 0002:000e79c0       ?InsertString@CListBox@@QAEHHPBD@Z 007919c0 f   nafxcwd:afxinl3.obj
 0002:000e7a30       ?ResetContent@CListBox@@QAEXXZ 00791a30 f   nafxcwd:afxinl3.obj
 0002:000e7a90       ?Dir@CListBox@@QAEHIPBD@Z  00791a90 f   nafxcwd:afxinl3.obj
 0002:000e7b00       ?FindString@CListBox@@QBEHHPBD@Z 00791b00 f   nafxcwd:afxinl3.obj
 0002:000e7b70       ?SelectString@CListBox@@QAEHHPBD@Z 00791b70 f   nafxcwd:afxinl3.obj
 0002:000e7be0       ?SelItemRange@CListBox@@QAEHHHH@Z 00791be0 f   nafxcwd:afxinl3.obj
 0002:000e7c80       ?SetAnchorIndex@CListBox@@QAEXH@Z 00791c80 f   nafxcwd:afxinl3.obj
 0002:000e7ce0       ?GetAnchorIndex@CListBox@@QBEHXZ 00791ce0 f   nafxcwd:afxinl3.obj
 0002:000e7d40       ?GetLocale@CListBox@@QBEKXZ 00791d40 f   nafxcwd:afxinl3.obj
 0002:000e7da0       ?SetLocale@CListBox@@QAEKK@Z 00791da0 f   nafxcwd:afxinl3.obj
 0002:000e7e00       ?InitStorage@CListBox@@QAEHHI@Z 00791e00 f   nafxcwd:afxinl3.obj
 0002:000e7e70       ??0CCheckListBox@@QAE@XZ   00791e70 f   nafxcwd:afxinl3.obj
 0002:000e7f10       ??_GCCheckListBox@@UAEPAXI@Z 00791f10 f i nafxcwd:afxinl3.obj
 0002:000e7f10       ??_ECCheckListBox@@UAEPAXI@Z 00791f10 f i nafxcwd:afxinl3.obj
 0002:000e7f50       ??1CCheckListBox@@UAE@XZ   00791f50 f i nafxcwd:afxinl3.obj
 0002:000e7f70       ?GetCheckStyle@CCheckListBox@@QAEIXZ 00791f70 f   nafxcwd:afxinl3.obj
 0002:000e7f90       ??0CComboBox@@QAE@XZ       00791f90 f   nafxcwd:afxinl3.obj
 0002:000e7fc0       ??_ECComboBox@@UAEPAXI@Z   00791fc0 f i nafxcwd:afxinl3.obj
 0002:000e7fc0       ??_GCComboBox@@UAEPAXI@Z   00791fc0 f i nafxcwd:afxinl3.obj
 0002:000e8000       ?GetCount@CComboBox@@QBEHXZ 00792000 f   nafxcwd:afxinl3.obj
 0002:000e8060       ?GetCurSel@CComboBox@@QBEHXZ 00792060 f   nafxcwd:afxinl3.obj
 0002:000e80c0       ?SetCurSel@CComboBox@@QAEHH@Z 007920c0 f   nafxcwd:afxinl3.obj
 0002:000e8120       ?GetEditSel@CComboBox@@QBEKXZ 00792120 f   nafxcwd:afxinl3.obj
 0002:000e8180       ?LimitText@CComboBox@@QAEHH@Z 00792180 f   nafxcwd:afxinl3.obj
 0002:000e81e0       ?SetEditSel@CComboBox@@QAEHHH@Z 007921e0 f   nafxcwd:afxinl3.obj
 0002:000e8260       ?GetItemData@CComboBox@@QBEKH@Z 00792260 f   nafxcwd:afxinl3.obj
 0002:000e82c0       ?SetItemData@CComboBox@@QAEHHK@Z 007922c0 f   nafxcwd:afxinl3.obj
 0002:000e8330       ?GetItemDataPtr@CComboBox@@QBEPAXH@Z 00792330 f   nafxcwd:afxinl3.obj
 0002:000e8380       ?SetItemDataPtr@CComboBox@@QAEHHPAX@Z 00792380 f   nafxcwd:afxinl3.obj
 0002:000e83e0       ?GetLBText@CComboBox@@QBEHHPAD@Z 007923e0 f   nafxcwd:afxinl3.obj
 0002:000e8450       ?GetLBTextLen@CComboBox@@QBEHH@Z 00792450 f   nafxcwd:afxinl3.obj
 0002:000e84b0       ?ShowDropDown@CComboBox@@QAEXH@Z 007924b0 f   nafxcwd:afxinl3.obj
 0002:000e8510       ?AddString@CComboBox@@QAEHPBD@Z 00792510 f   nafxcwd:afxinl3.obj
 0002:000e8570       ?DeleteString@CComboBox@@QAEHI@Z 00792570 f   nafxcwd:afxinl3.obj
 0002:000e85d0       ?InsertString@CComboBox@@QAEHHPBD@Z 007925d0 f   nafxcwd:afxinl3.obj
 0002:000e8640       ?ResetContent@CComboBox@@QAEXXZ 00792640 f   nafxcwd:afxinl3.obj
 0002:000e86a0       ?Dir@CComboBox@@QAEHIPBD@Z 007926a0 f   nafxcwd:afxinl3.obj
 0002:000e8710       ?FindString@CComboBox@@QBEHHPBD@Z 00792710 f   nafxcwd:afxinl3.obj
 0002:000e8780       ?SelectString@CComboBox@@QAEHHPBD@Z 00792780 f   nafxcwd:afxinl3.obj
 0002:000e87f0       ?Clear@CComboBox@@QAEXXZ   007927f0 f   nafxcwd:afxinl3.obj
 0002:000e8850       ?Copy@CComboBox@@QAEXXZ    00792850 f   nafxcwd:afxinl3.obj
 0002:000e88b0       ?Cut@CComboBox@@QAEXXZ     007928b0 f   nafxcwd:afxinl3.obj
 0002:000e8910       ?Paste@CComboBox@@QAEXXZ   00792910 f   nafxcwd:afxinl3.obj
 0002:000e8970       ?SetItemHeight@CComboBox@@QAEHHI@Z 00792970 f   nafxcwd:afxinl3.obj
 0002:000e89e0       ?GetItemHeight@CComboBox@@QBEHH@Z 007929e0 f   nafxcwd:afxinl3.obj
 0002:000e8a40       ?FindStringExact@CComboBox@@QBEHHPBD@Z 00792a40 f   nafxcwd:afxinl3.obj
 0002:000e8ab0       ?SetExtendedUI@CComboBox@@QAEHH@Z 00792ab0 f   nafxcwd:afxinl3.obj
 0002:000e8b10       ?GetExtendedUI@CComboBox@@QBEHXZ 00792b10 f   nafxcwd:afxinl3.obj
 0002:000e8b70       ?GetDroppedControlRect@CComboBox@@QBEXPAUtagRECT@@@Z 00792b70 f   nafxcwd:afxinl3.obj
 0002:000e8bd0       ?GetDroppedState@CComboBox@@QBEHXZ 00792bd0 f   nafxcwd:afxinl3.obj
 0002:000e8c30       ?GetLocale@CComboBox@@QBEKXZ 00792c30 f   nafxcwd:afxinl3.obj
 0002:000e8c90       ?SetLocale@CComboBox@@QAEKK@Z 00792c90 f   nafxcwd:afxinl3.obj
 0002:000e8cf0       ?GetTopIndex@CComboBox@@QBEHXZ 00792cf0 f   nafxcwd:afxinl3.obj
 0002:000e8d50       ?SetTopIndex@CComboBox@@QAEHH@Z 00792d50 f   nafxcwd:afxinl3.obj
 0002:000e8db0       ?InitStorage@CComboBox@@QAEHHI@Z 00792db0 f   nafxcwd:afxinl3.obj
 0002:000e8e20       ?SetHorizontalExtent@CComboBox@@QAEXI@Z 00792e20 f   nafxcwd:afxinl3.obj
 0002:000e8e80       ?GetHorizontalExtent@CComboBox@@QBEIXZ 00792e80 f   nafxcwd:afxinl3.obj
 0002:000e8ee0       ?SetDroppedWidth@CComboBox@@QAEHI@Z 00792ee0 f   nafxcwd:afxinl3.obj
 0002:000e8f40       ?GetDroppedWidth@CComboBox@@QBEHXZ 00792f40 f   nafxcwd:afxinl3.obj
 0002:000e8fa0       ??0CEdit@@QAE@XZ           00792fa0 f   nafxcwd:afxinl3.obj
 0002:000e8fd0       ??_ECEdit@@UAEPAXI@Z       00792fd0 f i nafxcwd:afxinl3.obj
 0002:000e8fd0       ??_GCEdit@@UAEPAXI@Z       00792fd0 f i nafxcwd:afxinl3.obj
 0002:000e9010       ?CanUndo@CEdit@@QBEHXZ     00793010 f   nafxcwd:afxinl3.obj
 0002:000e9070       ?GetLineCount@CEdit@@QBEHXZ 00793070 f   nafxcwd:afxinl3.obj
 0002:000e90d0       ?GetModify@CEdit@@QBEHXZ   007930d0 f   nafxcwd:afxinl3.obj
 0002:000e9130       ?SetModify@CEdit@@QAEXH@Z  00793130 f   nafxcwd:afxinl3.obj
 0002:000e9190       ?GetRect@CEdit@@QBEXPAUtagRECT@@@Z 00793190 f   nafxcwd:afxinl3.obj
 0002:000e91f0       ?GetSel@CEdit@@QBEXAAH0@Z  007931f0 f   nafxcwd:afxinl3.obj
 0002:000e9260       ?GetSel@CEdit@@QBEKXZ      00793260 f   nafxcwd:afxinl3.obj
 0002:000e92c0       ?GetHandle@CEdit@@QBEPAXXZ 007932c0 f   nafxcwd:afxinl3.obj
 0002:000e9320       ?SetHandle@CEdit@@QAEXPAX@Z 00793320 f   nafxcwd:afxinl3.obj
 0002:000e9380       ?GetLine@CEdit@@QBEHHPAD@Z 00793380 f   nafxcwd:afxinl3.obj
 0002:000e93f0       ?GetLine@CEdit@@QBEHHPADH@Z 007933f0 f   nafxcwd:afxinl3.obj
 0002:000e9460       ?EmptyUndoBuffer@CEdit@@QAEXXZ 00793460 f   nafxcwd:afxinl3.obj
 0002:000e94c0       ?FmtLines@CEdit@@QAEHH@Z   007934c0 f   nafxcwd:afxinl3.obj
 0002:000e9520       ?LimitText@CEdit@@QAEXH@Z  00793520 f   nafxcwd:afxinl3.obj
 0002:000e9580       ?LineFromChar@CEdit@@QBEHH@Z 00793580 f   nafxcwd:afxinl3.obj
 0002:000e95e0       ?LineIndex@CEdit@@QBEHH@Z  007935e0 f   nafxcwd:afxinl3.obj
 0002:000e9640       ?LineLength@CEdit@@QBEHH@Z 00793640 f   nafxcwd:afxinl3.obj
 0002:000e96a0       ?LineScroll@CEdit@@QAEXHH@Z 007936a0 f   nafxcwd:afxinl3.obj
 0002:000e9710       ?ReplaceSel@CEdit@@QAEXPBDH@Z 00793710 f   nafxcwd:afxinl3.obj
 0002:000e9780       ?SetPasswordChar@CEdit@@QAEXD@Z 00793780 f   nafxcwd:afxinl3.obj
 0002:000e97e0       ?SetRect@CEdit@@QAEXPBUtagRECT@@@Z 007937e0 f   nafxcwd:afxinl3.obj
 0002:000e9840       ?SetRectNP@CEdit@@QAEXPBUtagRECT@@@Z 00793840 f   nafxcwd:afxinl3.obj
 0002:000e98a0       ?SetSel@CEdit@@QAEXKH@Z    007938a0 f   nafxcwd:afxinl3.obj
 0002:000e9940       ?SetSel@CEdit@@QAEXHHH@Z   00793940 f   nafxcwd:afxinl3.obj
 0002:000e99d0       ?SetTabStops@CEdit@@QAEHHPAH@Z 007939d0 f   nafxcwd:afxinl3.obj
 0002:000e9a40       ?SetTabStops@CEdit@@QAEXXZ 00793a40 f   nafxcwd:afxinl3.obj
 0002:000e9ac0       ?SetTabStops@CEdit@@QAEHABH@Z 00793ac0 f   nafxcwd:afxinl3.obj
 0002:000e9b20       ?Undo@CEdit@@QAEHXZ        00793b20 f   nafxcwd:afxinl3.obj
 0002:000e9b80       ?Clear@CEdit@@QAEXXZ       00793b80 f   nafxcwd:afxinl3.obj
 0002:000e9be0       ?Copy@CEdit@@QAEXXZ        00793be0 f   nafxcwd:afxinl3.obj
 0002:000e9c40       ?Cut@CEdit@@QAEXXZ         00793c40 f   nafxcwd:afxinl3.obj
 0002:000e9ca0       ?Paste@CEdit@@QAEXXZ       00793ca0 f   nafxcwd:afxinl3.obj
 0002:000e9d00       ?SetReadOnly@CEdit@@QAEHH@Z 00793d00 f   nafxcwd:afxinl3.obj
 0002:000e9d60       ?GetFirstVisibleLine@CEdit@@QBEHXZ 00793d60 f   nafxcwd:afxinl3.obj
 0002:000e9dc0       ?GetPasswordChar@CEdit@@QBEDXZ 00793dc0 f   nafxcwd:afxinl3.obj
 0002:000e9e20       ?SetMargins@CEdit@@QAEXII@Z 00793e20 f   nafxcwd:afxinl3.obj
 0002:000e9ea0       ?GetMargins@CEdit@@QBEKXZ  00793ea0 f   nafxcwd:afxinl3.obj
 0002:000e9f00       ?SetLimitText@CEdit@@QAEXI@Z 00793f00 f   nafxcwd:afxinl3.obj
 0002:000e9f60       ?GetLimitText@CEdit@@QBEIXZ 00793f60 f   nafxcwd:afxinl3.obj
 0002:000e9fc0       ?PosFromChar@CEdit@@QBE?AVCPoint@@I@Z 00793fc0 f   nafxcwd:afxinl3.obj
 0002:000ea030       ?CharFromPos@CEdit@@QBEHVCPoint@@@Z 00794030 f   nafxcwd:afxinl3.obj
 0002:000ea0b0       ??0CScrollBar@@QAE@XZ      007940b0 f   nafxcwd:afxinl3.obj
 0002:000ea0e0       ??_ECScrollBar@@UAEPAXI@Z  007940e0 f i nafxcwd:afxinl3.obj
 0002:000ea0e0       ??_GCScrollBar@@UAEPAXI@Z  007940e0 f i nafxcwd:afxinl3.obj
 0002:000ea120       ?GetScrollPos@CScrollBar@@QBEHXZ 00794120 f   nafxcwd:afxinl3.obj
 0002:000ea180       ?SetScrollPos@CScrollBar@@QAEHHH@Z 00794180 f   nafxcwd:afxinl3.obj
 0002:000ea1e0       ?GetScrollRange@CScrollBar@@QBEXPAH0@Z 007941e0 f   nafxcwd:afxinl3.obj
 0002:000ea240       ?SetScrollRange@CScrollBar@@QAEXHHH@Z 00794240 f   nafxcwd:afxinl3.obj
 0002:000ea2b0       ?ShowScrollBar@CScrollBar@@QAEXH@Z 007942b0 f   nafxcwd:afxinl3.obj
 0002:000ea310       ?EnableScrollBar@CScrollBar@@QAEHI@Z 00794310 f   nafxcwd:afxinl3.obj
 0002:000ea370       ?SetScrollInfo@CScrollBar@@QAEHPAUtagSCROLLINFO@@H@Z 00794370 f   nafxcwd:afxinl3.obj
 0002:000ea3a0       ?GetScrollInfo@CScrollBar@@QAEHPAUtagSCROLLINFO@@I@Z 007943a0 f   nafxcwd:afxinl3.obj
 0002:000ea3d0       ?GetScrollLimit@CScrollBar@@QAEHXZ 007943d0 f   nafxcwd:afxinl3.obj
 0002:000ea3f0       ?MDIActivate@CMDIFrameWnd@@QAEXPAVCWnd@@@Z 007943f0 f   nafxcwd:afxinl3.obj
 0002:000ea460       ?MDIIconArrange@CMDIFrameWnd@@QAEXXZ 00794460 f   nafxcwd:afxinl3.obj
 0002:000ea4c0       ?MDIMaximize@CMDIFrameWnd@@QAEXPAVCWnd@@@Z 007944c0 f   nafxcwd:afxinl3.obj
 0002:000ea530       ?MDIPrev@CMDIFrameWnd@@QAEXXZ 00794530 f   nafxcwd:afxinl3.obj
 0002:000ea590       ?MDINext@CMDIFrameWnd@@QAEXXZ 00794590 f   nafxcwd:afxinl3.obj
 0002:000ea5f0       ?MDIRestore@CMDIFrameWnd@@QAEXPAVCWnd@@@Z 007945f0 f   nafxcwd:afxinl3.obj
 0002:000ea660       ?MDISetMenu@CMDIFrameWnd@@QAEPAVCMenu@@PAV2@0@Z 00794660 f   nafxcwd:afxinl3.obj
 0002:000ea6e0       ?MDITile@CMDIFrameWnd@@QAEXXZ 007946e0 f   nafxcwd:afxinl3.obj
 0002:000ea740       ?MDICascade@CMDIFrameWnd@@QAEXXZ 00794740 f   nafxcwd:afxinl3.obj
 0002:000ea7a0       ?MDICascade@CMDIFrameWnd@@QAEXH@Z 007947a0 f   nafxcwd:afxinl3.obj
 0002:000ea810       ?MDITile@CMDIFrameWnd@@QAEXH@Z 00794810 f   nafxcwd:afxinl3.obj
 0002:000ea880       ?MDIDestroy@CMDIChildWnd@@QAEXXZ 00794880 f   nafxcwd:afxinl3.obj
 0002:000ea8f0       ?MDIActivate@CMDIChildWnd@@QAEXXZ 007948f0 f   nafxcwd:afxinl3.obj
 0002:000ea960       ?MDIMaximize@CMDIChildWnd@@QAEXXZ 00794960 f   nafxcwd:afxinl3.obj
 0002:000ea9d0       ?MDIRestore@CMDIChildWnd@@QAEXXZ 007949d0 f   nafxcwd:afxinl3.obj
 0002:000eaa40       ?GetDocument@CView@@QBEPAVCDocument@@XZ 00794a40 f   nafxcwd:afxinl3.obj
 0002:000eaa80       ?GetTotalSize@CScrollView@@QBE?AVCSize@@XZ 00794a80 f   nafxcwd:afxinl3.obj
 0002:000eaae0       ?GetTitle@CDocument@@QBEABV?$CStringT@DV?$StrTraitMFC@DV?$ChTraitsCRT@D@ATL@@@@@ATL@@XZ 00794ae0 f   nafxcwd:afxinl3.obj
 0002:000eab20       ?GetPathName@CDocument@@QBEABV?$CStringT@DV?$StrTraitMFC@DV?$ChTraitsCRT@D@ATL@@@@@ATL@@XZ 00794b20 f   nafxcwd:afxinl3.obj
 0002:000eab60       ?GetDocTemplate@CDocument@@QBEPAVCDocTemplate@@XZ 00794b60 f   nafxcwd:afxinl3.obj
 0002:000eaba0       ?IsModified@CDocument@@UAEHXZ 00794ba0 f   nafxcwd:afxinl3.obj
 0002:000eabe0       ?SetModifiedFlag@CDocument@@UAEXH@Z 00794be0 f   nafxcwd:afxinl3.obj
 0002:000eac20       ??BCWinThread@@QBEPAXXZ    00794c20 f   nafxcwd:afxinl3.obj
 0002:000eac60       ?SetThreadPriority@CWinThread@@QAEHH@Z 00794c60 f   nafxcwd:afxinl3.obj
 0002:000eacb0       ?GetThreadPriority@CWinThread@@QAEHXZ 00794cb0 f   nafxcwd:afxinl3.obj
 0002:000ead00       ?ResumeThread@CWinThread@@QAEKXZ 00794d00 f   nafxcwd:afxinl3.obj
 0002:000ead50       ?SuspendThread@CWinThread@@QAEKXZ 00794d50 f   nafxcwd:afxinl3.obj
 0002:000eada0       ?PostThreadMessageA@CWinThread@@QAEHIIJ@Z 00794da0 f   nafxcwd:afxinl3.obj
 0002:000eae00       ?LoadCursorA@CWinApp@@QBEPAUHICON__@@PBD@Z 00794e00 f   nafxcwd:afxinl3.obj
 0002:000eae30       ?LoadCursorA@CWinApp@@QBEPAUHICON__@@I@Z 00794e30 f   nafxcwd:afxinl3.obj
 0002:000eae60       ?LoadStandardCursor@CWinApp@@QBEPAUHICON__@@PBD@Z 00794e60 f   nafxcwd:afxinl3.obj
 0002:000eae90       ?LoadOEMCursor@CWinApp@@QBEPAUHICON__@@I@Z 00794e90 f   nafxcwd:afxinl3.obj
 0002:000eaec0       ?LoadIconA@CWinApp@@QBEPAUHICON__@@PBD@Z 00794ec0 f   nafxcwd:afxinl3.obj
 0002:000eaef0       ?LoadIconA@CWinApp@@QBEPAUHICON__@@I@Z 00794ef0 f   nafxcwd:afxinl3.obj
 0002:000eaf20       ?LoadStandardIcon@CWinApp@@QBEPAUHICON__@@PBD@Z 00794f20 f   nafxcwd:afxinl3.obj
 0002:000eaf50       ?LoadOEMIcon@CWinApp@@QBEPAUHICON__@@I@Z 00794f50 f   nafxcwd:afxinl3.obj
 0002:000eaf80       ?EnableHtmlHelp@CWinApp@@QAEXXZ 00794f80 f   nafxcwd:afxinl3.obj
 0002:000eafa0       ?GetHelpMode@CWinApp@@QAE?AW4AFX_HELP_TYPE@@XZ 00794fa0 f   nafxcwd:afxinl3.obj
 0002:000eafc0       ?SetHelpMode@CWinApp@@QAEXW4AFX_HELP_TYPE@@@Z 00794fc0 f   nafxcwd:afxinl3.obj
 0002:000eb010       ?Enable3dControls@CWinApp@@IAEHXZ 00795010 f   nafxcwd:afxinl3.obj
 0002:000eb030       ?Enable3dControlsStatic@CWinApp@@IAEHXZ 00795030 f   nafxcwd:afxinl3.obj
 0002:000eb050       ?SetDialogBkColor@CWinApp@@IAEXKK@Z 00795050 f   nafxcwd:afxinl3.obj
 0002:000eb070       ??0CWaitCursor@@QAE@XZ     00795070 f   nafxcwd:afxinl3.obj
 0002:000eb0a0       ??1CWaitCursor@@QAE@XZ     007950a0 f   nafxcwd:afxinl3.obj
 0002:000eb2b0       ?Restore@CWaitCursor@@QAEXXZ 007952b0 f   nafxcwd:afxinl3.obj
 0002:000eb2d0       ?CloseWindow@CWnd@@QAEXXZ  007952d0 f   nafxcwd:afxinl3.obj
 0002:000eb320       ?OpenIcon@CWnd@@QAEHXZ     00795320 f   nafxcwd:afxinl3.obj
 0002:000eb370       ?OnAmbientProperty@CWnd@@UAEHPAVCOleControlSite@@JPAUtagVARIANT@@@Z 00795370 f   nafxcwd:winocc.obj
 0002:000eb3d0       ?GetControlUnknown@CWnd@@QAEPAUIUnknown@@XZ 007953d0 f   nafxcwd:winocc.obj
 0002:000eb400       ?PaintWindowlessControls@CWnd@@QAEHPAVCDC@@@Z 00795400 f   nafxcwd:winocc.obj
 0002:000eb450       ?GetOleControlSite@CWnd@@QBEPAVCOleControlSite@@I@Z 00795450 f   nafxcwd:winocc.obj
 0002:000eb4a0       ?CheckDlgButton@CWnd@@QAEXHI@Z 007954a0 f   nafxcwd:winocc.obj
 0002:000eb530       ?CheckRadioButton@CWnd@@QAEXHHH@Z 00795530 f   nafxcwd:winocc.obj
 0002:000eb5d0       ?GetDlgItem@CWnd@@QBEPAV1@H@Z 007955d0 f   nafxcwd:winocc.obj
 0002:000eb660       ?GetDlgItem@CWnd@@QBEXHPAPAUHWND__@@@Z 00795660 f   nafxcwd:winocc.obj
 0002:000eb710       ?GetDlgItemInt@CWnd@@QBEIHPAHH@Z 00795710 f   nafxcwd:winocc.obj
 0002:000eb7b0       ?GetDlgItemTextA@CWnd@@QBEHHPADH@Z 007957b0 f   nafxcwd:winocc.obj
 0002:000eb850       ?SendDlgItemMessageA@CWnd@@QAEJHIIJ@Z 00795850 f   nafxcwd:winocc.obj
 0002:000eb900       ?SetDlgItemInt@CWnd@@QAEXHIH@Z 00795900 f   nafxcwd:winocc.obj
 0002:000eb9a0       ?SetDlgItemTextA@CWnd@@QAEXHPBD@Z 007959a0 f   nafxcwd:winocc.obj
 0002:000eba30       ?IsDlgButtonChecked@CWnd@@QBEIH@Z 00795a30 f   nafxcwd:winocc.obj
 0002:000ebac0       ?ScrollWindowEx@CWnd@@QAEHHHPBUtagRECT@@0PAVCRgn@@PAU2@I@Z 00795ac0 f   nafxcwd:winocc.obj
 0002:000ebb90       ?IsDialogMessageA@CWnd@@QAEHPAUtagMSG@@@Z 00795b90 f   nafxcwd:winocc.obj
 0002:000ebc30       ?GetStyle@CWnd@@QBEKXZ     00795c30 f   nafxcwd:winocc.obj
 0002:000ebcc0       ?GetExStyle@CWnd@@QBEKXZ   00795cc0 f   nafxcwd:winocc.obj
 0002:000ebd50       ?ModifyStyle@CWnd@@QAEHKKI@Z 00795d50 f   nafxcwd:winocc.obj
 0002:000ebe00       ?ModifyStyleEx@CWnd@@QAEHKKI@Z 00795e00 f   nafxcwd:winocc.obj
 0002:000ebeb0       ?SetWindowTextA@CWnd@@QAEXPBD@Z 00795eb0 f   nafxcwd:winocc.obj
 0002:000ebfc0       ?GetWindowTextA@CWnd@@QBEHPADH@Z 00795fc0 f   nafxcwd:winocc.obj
 0002:000ec0f0       ?GetWindowTextLengthA@CWnd@@QBEHXZ 007960f0 f   nafxcwd:winocc.obj
 0002:000ec1f0       ?GetDlgCtrlID@CWnd@@QBEHXZ 007961f0 f   nafxcwd:winocc.obj
 0002:000ec280       ?SetDlgCtrlID@CWnd@@QAEHH@Z 00796280 f   nafxcwd:winocc.obj
 0002:000ec320       ?MoveWindow@CWnd@@QAEXHHHHH@Z 00796320 f   nafxcwd:winocc.obj
 0002:000ec3e0       ?SetWindowPos@CWnd@@QAEHPBV1@HHHHI@Z 007963e0 f   nafxcwd:winocc.obj
 0002:000ec4b0       ?ShowWindow@CWnd@@QAEHH@Z  007964b0 f   nafxcwd:winocc.obj
 0002:000ec550       ?IsWindowEnabled@CWnd@@QBEHXZ 00796550 f   nafxcwd:winocc.obj
 0002:000ec5e0       ?EnableWindow@CWnd@@QAEHH@Z 007965e0 f   nafxcwd:winocc.obj
 0002:000ec680       ?SetFocus@CWnd@@QAEPAV1@XZ 00796680 f   nafxcwd:winocc.obj
 0002:000ec750       ?InvokeHelper@CWnd@@QAAXJGGPAXPBEZZ 00796750 f   nafxcwd:winocc.obj
 0002:000ec7e0       ?GetProperty@CWnd@@QBEXJGPAX@Z 007967e0 f   nafxcwd:winocc.obj
 0002:000ec850       ?SetProperty@CWnd@@QAAXJGZZ 00796850 f   nafxcwd:winocc.obj
 0002:000ec8d0       ?GetDSCCursor@CWnd@@QAEPAUIUnknown@@XZ 007968d0 f   nafxcwd:winocc.obj
 0002:000ec990       ?BindDefaultProperty@CWnd@@QAEXJGPBDPAV1@@Z 00796990 f   nafxcwd:winocc.obj
 0002:000eca00       ?BindProperty@CWnd@@QAEXJPAV1@@Z 00796a00 f   nafxcwd:winocc.obj
 0002:000eca60       ?AttachControlSite@CWnd@@IAEXPAVCHandleMap@@@Z 00796a60 f   nafxcwd:winocc.obj
 0002:000ecae0       ?AttachControlSite@CWnd@@QAEXPAV1@I@Z 00796ae0 f   nafxcwd:winocc.obj
 0002:000ecb80       ?GetStyle@COleControlSiteOrWnd@@QBEKXZ 00796b80 f   nafxcwd:winocc.obj
 0002:000ecbd0       ?GetNextDlgTabItem@CWnd@@QBEPAUCOleControlSiteOrWnd@@PAU2@H@Z 00796bd0 f   nafxcwd:winocc.obj
 0002:000ece30       ?FindSiteOrWnd@CWnd@@QBEPAU__POSITION@@PBUCOleControlSiteOrWnd@@@Z 00796e30 f   nafxcwd:winocc.obj
 0002:000eceb0       ??0CDlgControlIterator@@QAE@ABVCOleControlContainer@@@Z 00796eb0 f i nafxcwd:winocc.obj
 0002:000ecee0       ?FindSiteOrWndWithFocus@CWnd@@QBEPAU__POSITION@@XZ 00796ee0 f   nafxcwd:winocc.obj
 0002:000ecfc0       ?GetPrevDlgGroupItem@CWnd@@QBEPAUCOleControlSiteOrWnd@@PAU2@@Z 00796fc0 f   nafxcwd:winocc.obj
 0002:000ed070       ??0CDlgGroupRadioButtonIterator@@QAE@AAVCOleControlContainer@@PAU__POSITION@@@Z 00797070 f i nafxcwd:winocc.obj
 0002:000ed0a0       ??0CDlgControlIterator@@QAE@ABVCOleControlContainer@@PAU__POSITION@@@Z 007970a0 f i nafxcwd:winocc.obj
 0002:000ed0d0       ?IsEnd@CDlgGroupRadioButtonIterator@@QBE_NXZ 007970d0 f i nafxcwd:winocc.obj
 0002:000ed0f0       ?MovePrev@CDlgGroupRadioButtonIterator@@QAEXXZ 007970f0 f i nafxcwd:winocc.obj
 0002:000ed1f0       ??0CDlgControlIterator@@QAE@ABV0@@Z 007971f0 f i nafxcwd:winocc.obj
 0002:000ed220       ??BCDlgGroupRadioButtonIterator@@QBEPAUCOleControlSiteOrWnd@@XZ 00797220 f i nafxcwd:winocc.obj
 0002:000ed290       ?IsDisabled@CDlgGroupRadioButtonIterator@@SA_NPBUCOleControlSiteOrWnd@@@Z 00797290 f i nafxcwd:winocc.obj
 0002:000ed310       ?IsGroup@CDlgGroupRadioButtonIterator@@SA_NPBUCOleControlSiteOrWnd@@@Z 00797310 f i nafxcwd:winocc.obj
 0002:000ed330       ?GetLastButton@CDlgGroupRadioButtonIterator@@QBE?AVCDlgControlIterator@@XZ 00797330 f i nafxcwd:winocc.obj
 0002:000ed3c0       ?Skip@CDlgControlIterator@@QBE?AV1@H@Z 007973c0 f i nafxcwd:winocc.obj
 0002:000ed400       ??0CDlgControlIterator@@IAE@ABV?$CTypedPtrListIterator@VCPtrList@@PAUCOleControlSiteOrWnd@@@@@Z 00797400 f i nafxcwd:winocc.obj
 0002:000ed430       ??4CDlgControlIterator@@QAEAAV0@ABV0@@Z 00797430 f i nafxcwd:winocc.obj
 0002:000ed460       ?GetNextDlgGroupItem@CWnd@@QBEPAUCOleControlSiteOrWnd@@PAU2@@Z 00797460 f   nafxcwd:winocc.obj
 0002:000ed510       ?MoveNext@CDlgGroupRadioButtonIterator@@QAEXXZ 00797510 f i nafxcwd:winocc.obj
 0002:000ed600       ?GetFirstButton@CDlgGroupRadioButtonIterator@@QBE?AVCDlgControlIterator@@XZ 00797600 f i nafxcwd:winocc.obj
 0002:000ed6c0       ?RemoveRadioCheckFromGroup@CWnd@@QBEXPBUCOleControlSiteOrWnd@@@Z 007976c0 f   nafxcwd:winocc.obj
 0002:000ed8a0       ?AttachControlSite@COleControlContainer@@UAEXPAVCWnd@@I@Z 007978a0 f   nafxcwd:winocc.obj
 0002:000ed980       ?GetPrev@?$_CTypedPtrList@VCPtrList@@PAUCOleControlSiteOrWnd@@@@QAEAAPAUCOleControlSiteOrWnd@@AAPAU__POSITION@@@Z 00797980 f i nafxcwd:winocc.obj
 0002:000ed9b0       ??0?$CTypedPtrListIterator@VCPtrList@@PAUCOleControlSiteOrWnd@@@@QAE@ABV?$CTypedPtrList@VCPtrList@@PAUCOleControlSiteOrWnd@@@@@Z 007979b0 f i nafxcwd:winocc.obj
 0002:000ed9f0       ??0?$CTypedPtrListIterator@VCPtrList@@PAUCOleControlSiteOrWnd@@@@QAE@ABV?$CTypedPtrList@VCPtrList@@PAUCOleControlSiteOrWnd@@@@PAU__POSITION@@@Z 007979f0 f i nafxcwd:winocc.obj
 0002:000eda20       ??0?$CTypedPtrListIterator@VCPtrList@@PAUCOleControlSiteOrWnd@@@@QAE@ABV0@@Z 00797a20 f i nafxcwd:winocc.obj
 0002:000edaa0       ??4?$CTypedPtrListIterator@VCPtrList@@PAUCOleControlSiteOrWnd@@@@QAEAAV0@ABV0@@Z 00797aa0 f i nafxcwd:winocc.obj
 0002:000edb20       ?GetPosition@?$CTypedPtrListIterator@VCPtrList@@PAUCOleControlSiteOrWnd@@@@QBEPAU__POSITION@@XZ 00797b20 f i nafxcwd:winocc.obj
 0002:000edb40       ?IsEnd@?$CTypedPtrListIterator@VCPtrList@@PAUCOleControlSiteOrWnd@@@@QBE_NXZ 00797b40 f i nafxcwd:winocc.obj
 0002:000edb70       ??7?$CTypedPtrListIterator@VCPtrList@@PAUCOleControlSiteOrWnd@@@@QBE_NXZ 00797b70 f i nafxcwd:winocc.obj
 0002:000edb90       ?MoveNext@?$CTypedPtrListIterator@VCPtrList@@PAUCOleControlSiteOrWnd@@@@QAEXXZ 00797b90 f i nafxcwd:winocc.obj
 0002:000edbc0       ?MovePrev@?$CTypedPtrListIterator@VCPtrList@@PAUCOleControlSiteOrWnd@@@@QAEXXZ 00797bc0 f i nafxcwd:winocc.obj
 0002:000edbf0       ?Skip@?$CTypedPtrListIterator@VCPtrList@@PAUCOleControlSiteOrWnd@@@@QBE?AV1@H@Z 00797bf0 f i nafxcwd:winocc.obj
 0002:000edca0       ??D?$CTypedPtrListIterator@VCPtrList@@PAUCOleControlSiteOrWnd@@@@QAEPAUCOleControlSiteOrWnd@@XZ 00797ca0 f i nafxcwd:winocc.obj
 0002:000edd10       ??D?$CTypedPtrListIterator@VCPtrList@@PAUCOleControlSiteOrWnd@@@@QBEQAUCOleControlSiteOrWnd@@XZ 00797d10 f i nafxcwd:winocc.obj
 0002:000edd30       ?GetNext@?$_CTypedPtrList@VCPtrList@@PAUCOleControlSiteOrWnd@@@@QBEPAUCOleControlSiteOrWnd@@AAPAU__POSITION@@@Z 00797d30 f i nafxcwd:winocc.obj
 0002:000edd60       ?GetPrev@?$_CTypedPtrList@VCPtrList@@PAUCOleControlSiteOrWnd@@@@QBEPAUCOleControlSiteOrWnd@@AAPAU__POSITION@@@Z 00797d60 f i nafxcwd:winocc.obj
 0002:000edd90       ?GetAt@?$_CTypedPtrList@VCPtrList@@PAUCOleControlSiteOrWnd@@@@QBEPAUCOleControlSiteOrWnd@@PAU__POSITION@@@Z 00797d90 f i nafxcwd:winocc.obj
 0002:000eddc0       ?AfxGetApp@@YGPAVCWinApp@@XZ 00797dc0 f   nafxcwd:afxinl2.obj
 0002:000edde0       ?AfxGetInstanceHandle@@YGPAUHINSTANCE__@@XZ 00797de0 f   nafxcwd:afxinl2.obj
 0002:000ede20       ?AfxGetResourceHandle@@YGPAUHINSTANCE__@@XZ 00797e20 f   nafxcwd:afxinl2.obj
 0002:000ede60       ?AfxSetResourceHandle@@YGXPAUHINSTANCE__@@@Z 00797e60 f   nafxcwd:afxinl2.obj
 0002:000edea0       ?AfxGetAppName@@YGPBDXZ    00797ea0 f   nafxcwd:afxinl2.obj
 0002:000edee0       ?AfxOleGetMessageFilter@@YGPAVCOleMessageFilter@@XZ 00797ee0 f   nafxcwd:afxinl2.obj
 0002:000edf10       ?AfxGetMainWnd@@YGPAVCWnd@@XZ 00797f10 f   nafxcwd:afxinl2.obj
 0002:000edf60       ?AfxGetAmbientActCtx@@YGHXZ 00797f60 f   nafxcwd:afxinl2.obj
 0002:000edf80       ?AfxSetAmbientActCtx@@YGXH@Z 00797f80 f   nafxcwd:afxinl2.obj
 0002:000edfa0       ??6@YGAAVCArchive@@AAV0@UtagSIZE@@@Z 00797fa0 f   nafxcwd:afxinl2.obj
 0002:000edfc0       ??6@YGAAVCArchive@@AAV0@UtagPOINT@@@Z 00797fc0 f   nafxcwd:afxinl2.obj
 0002:000edfe0       ??6@YGAAVCArchive@@AAV0@ABUtagRECT@@@Z 00797fe0 f   nafxcwd:afxinl2.obj
 0002:000ee000       ??5@YGAAVCArchive@@AAV0@AAUtagSIZE@@@Z 00798000 f   nafxcwd:afxinl2.obj
 0002:000ee020       ??5@YGAAVCArchive@@AAV0@AAUtagPOINT@@@Z 00798020 f   nafxcwd:afxinl2.obj
 0002:000ee040       ??5@YGAAVCArchive@@AAV0@AAUtagRECT@@@Z 00798040 f   nafxcwd:afxinl2.obj
 0002:000ee060       ??0CResourceException@@QAE@XZ 00798060 f   nafxcwd:afxinl2.obj
 0002:000ee090       ??_ECResourceException@@UAEPAXI@Z 00798090 f i nafxcwd:afxinl2.obj
 0002:000ee090       ??_GCResourceException@@UAEPAXI@Z 00798090 f i nafxcwd:afxinl2.obj
 0002:000ee0d0       ??0CResourceException@@QAE@HI@Z 007980d0 f   nafxcwd:afxinl2.obj
 0002:000ee110       ??1CResourceException@@UAE@XZ 00798110 f   nafxcwd:afxinl2.obj
 0002:000ee140       ??0CUserException@@QAE@XZ  00798140 f   nafxcwd:afxinl2.obj
 0002:000ee170       ??_GCUserException@@UAEPAXI@Z 00798170 f i nafxcwd:afxinl2.obj
 0002:000ee170       ??_ECUserException@@UAEPAXI@Z 00798170 f i nafxcwd:afxinl2.obj
 0002:000ee1b0       ??0CUserException@@QAE@HI@Z 007981b0 f   nafxcwd:afxinl2.obj
 0002:000ee1f0       ??1CUserException@@UAE@XZ  007981f0 f   nafxcwd:afxinl2.obj
 0002:000ee220       ??BCGdiObject@@QBEPAXXZ    00798220 f   nafxcwd:afxinl2.obj
 0002:000ee260       ?GetSafeHandle@CGdiObject@@QBEPAXXZ 00798260 f   nafxcwd:afxinl2.obj
 0002:000ee2a0       ??0CGdiObject@@QAE@XZ      007982a0 f   nafxcwd:afxinl2.obj
 0002:000ee2e0       ??_ECGdiObject@@UAEPAXI@Z  007982e0 f i nafxcwd:afxinl2.obj
 0002:000ee2e0       ??_GCGdiObject@@UAEPAXI@Z  007982e0 f i nafxcwd:afxinl2.obj
 0002:000ee320       ??1CGdiObject@@UAE@XZ      00798320 f   nafxcwd:afxinl2.obj
 0002:000ee530       ?GetObjectA@CGdiObject@@QBEHHPAX@Z 00798530 f   nafxcwd:afxinl2.obj
 0002:000ee580       ?GetObject@CGdiObject@@QBEHHPAX@Z 00798580 f   nafxcwd:afxinl2.obj
 0002:000ee5b0       ?CreateStockObject@CGdiObject@@QAEHH@Z 007985b0 f   nafxcwd:afxinl2.obj
 0002:000ee5f0       ?UnrealizeObject@CGdiObject@@QAEHXZ 007985f0 f   nafxcwd:afxinl2.obj
 0002:000ee640       ?GetObjectType@CGdiObject@@QBEIXZ 00798640 f   nafxcwd:afxinl2.obj
 0002:000ee660       ??8CGdiObject@@QBEHABV0@@Z 00798660 f   nafxcwd:afxinl2.obj
 0002:000ee690       ??9CGdiObject@@QBEHABV0@@Z 00798690 f   nafxcwd:afxinl2.obj
 0002:000ee6c0       ??BCPen@@QBEPAUHPEN__@@XZ  007986c0 f   nafxcwd:afxinl2.obj
 0002:000ee700       ?FromHandle@CPen@@SGPAV1@PAUHPEN__@@@Z 00798700 f   nafxcwd:afxinl2.obj
 0002:000ee720       ??0CPen@@QAE@XZ            00798720 f   nafxcwd:afxinl2.obj
 0002:000ee750       ??_GCPen@@UAEPAXI@Z        00798750 f i nafxcwd:afxinl2.obj
 0002:000ee750       ??_ECPen@@UAEPAXI@Z        00798750 f i nafxcwd:afxinl2.obj
 0002:000ee790       ??1CPen@@UAE@XZ            00798790 f   nafxcwd:afxinl2.obj
 0002:000ee7c0       ?CreatePen@CPen@@QAEHHHK@Z 007987c0 f   nafxcwd:afxinl2.obj
 0002:000ee800       ?CreatePenIndirect@CPen@@QAEHPAUtagLOGPEN@@@Z 00798800 f   nafxcwd:afxinl2.obj
 0002:000ee830       ?CreatePen@CPen@@QAEHHHPBUtagLOGBRUSH@@HPBK@Z 00798830 f   nafxcwd:afxinl2.obj
 0002:000ee870       ?GetExtLogPen@CPen@@QAEHPAUtagEXTLOGPEN@@@Z 00798870 f   nafxcwd:afxinl2.obj
 0002:000ee8c0       ?GetLogPen@CPen@@QAEHPAUtagLOGPEN@@@Z 007988c0 f   nafxcwd:afxinl2.obj
 0002:000ee910       ??BCBrush@@QBEPAUHBRUSH__@@XZ 00798910 f   nafxcwd:afxinl2.obj
 0002:000ee950       ?FromHandle@CBrush@@SGPAV1@PAUHBRUSH__@@@Z 00798950 f   nafxcwd:afxinl2.obj
 0002:000ee970       ??0CBrush@@QAE@XZ          00798970 f   nafxcwd:afxinl2.obj
 0002:000ee9a0       ??_GCBrush@@UAEPAXI@Z      007989a0 f i nafxcwd:afxinl2.obj
 0002:000ee9a0       ??_ECBrush@@UAEPAXI@Z      007989a0 f i nafxcwd:afxinl2.obj
 0002:000ee9e0       ??1CBrush@@UAE@XZ          007989e0 f   nafxcwd:afxinl2.obj
 0002:000eea10       ?CreateSolidBrush@CBrush@@QAEHK@Z 00798a10 f   nafxcwd:afxinl2.obj
 0002:000eea40       ?CreateHatchBrush@CBrush@@QAEHHK@Z 00798a40 f   nafxcwd:afxinl2.obj
 0002:000eea70       ?CreateBrushIndirect@CBrush@@QAEHPBUtagLOGBRUSH@@@Z 00798a70 f   nafxcwd:afxinl2.obj
 0002:000eeaa0       ?CreatePatternBrush@CBrush@@QAEHPAVCBitmap@@@Z 00798aa0 f   nafxcwd:afxinl2.obj
 0002:000eead0       ?CreateDIBPatternBrush@CBrush@@QAEHPBXI@Z 00798ad0 f   nafxcwd:afxinl2.obj
 0002:000eeb00       ?CreateSysColorBrush@CBrush@@QAEHH@Z 00798b00 f   nafxcwd:afxinl2.obj
 0002:000eeb30       ?GetLogBrush@CBrush@@QAEHPAUtagLOGBRUSH@@@Z 00798b30 f   nafxcwd:afxinl2.obj
 0002:000eeb80       ??BCFont@@QBEPAUHFONT__@@XZ 00798b80 f   nafxcwd:afxinl2.obj
 0002:000eebc0       ?FromHandle@CFont@@SGPAV1@PAUHFONT__@@@Z 00798bc0 f   nafxcwd:afxinl2.obj
 0002:000eebe0       ??0CFont@@QAE@XZ           00798be0 f   nafxcwd:afxinl2.obj
 0002:000eec10       ??_ECFont@@UAEPAXI@Z       00798c10 f i nafxcwd:afxinl2.obj
 0002:000eec10       ??_GCFont@@UAEPAXI@Z       00798c10 f i nafxcwd:afxinl2.obj
 0002:000eec50       ??1CFont@@UAE@XZ           00798c50 f   nafxcwd:afxinl2.obj
 0002:000eec80       ?CreateFontIndirectA@CFont@@QAEHPBUtagLOGFONTA@@@Z 00798c80 f   nafxcwd:afxinl2.obj
 0002:000eecb0       ?CreateFontA@CFont@@QAEHHHHHHEEEEEEEEPBD@Z 00798cb0 f   nafxcwd:afxinl2.obj
 0002:000eed30       ?GetLogFont@CFont@@QAEHPAUtagLOGFONTA@@@Z 00798d30 f   nafxcwd:afxinl2.obj
 0002:000eed80       ??BCBitmap@@QBEPAUHBITMAP__@@XZ 00798d80 f   nafxcwd:afxinl2.obj
 0002:000eedc0       ?FromHandle@CBitmap@@SGPAV1@PAUHBITMAP__@@@Z 00798dc0 f   nafxcwd:afxinl2.obj
 0002:000eede0       ??0CBitmap@@QAE@XZ         00798de0 f   nafxcwd:afxinl2.obj
 0002:000eee10       ??_ECBitmap@@UAEPAXI@Z     00798e10 f i nafxcwd:afxinl2.obj
 0002:000eee10       ??_GCBitmap@@UAEPAXI@Z     00798e10 f i nafxcwd:afxinl2.obj
 0002:000eee50       ??1CBitmap@@UAE@XZ         00798e50 f   nafxcwd:afxinl2.obj
 0002:000eee80       ?CreateBitmap@CBitmap@@QAEHHHIIPBX@Z 00798e80 f   nafxcwd:afxinl2.obj
 0002:000eeec0       ?CreateBitmapIndirect@CBitmap@@QAEHPAUtagBITMAP@@@Z 00798ec0 f   nafxcwd:afxinl2.obj
 0002:000eeef0       ?SetBitmapBits@CBitmap@@QAEKKPBX@Z 00798ef0 f   nafxcwd:afxinl2.obj
 0002:000eef20       ?GetBitmapBits@CBitmap@@QBEKKPAX@Z 00798f20 f   nafxcwd:afxinl2.obj
 0002:000eef50       ?LoadBitmapA@CBitmap@@QAEHPBD@Z 00798f50 f   nafxcwd:afxinl2.obj
 0002:000eef90       ?LoadMappedBitmap@CBitmap@@QAEHIIPAU_COLORMAP@@H@Z 00798f90 f   nafxcwd:afxinl2.obj
 0002:000eefe0       ?SetBitmapDimension@CBitmap@@QAE?AVCSize@@HH@Z 00798fe0 f   nafxcwd:afxinl2.obj
 0002:000ef050       ?GetBitmapDimension@CBitmap@@QBE?AVCSize@@XZ 00799050 f   nafxcwd:afxinl2.obj
 0002:000ef0b0       ?LoadBitmapA@CBitmap@@QAEHI@Z 007990b0 f   nafxcwd:afxinl2.obj
 0002:000ef0f0       ?LoadOEMBitmap@CBitmap@@QAEHI@Z 007990f0 f   nafxcwd:afxinl2.obj
 0002:000ef120       ?CreateCompatibleBitmap@CBitmap@@QAEHPAVCDC@@HH@Z 00799120 f   nafxcwd:afxinl2.obj
 0002:000ef160       ?CreateDiscardableBitmap@CBitmap@@QAEHPAVCDC@@HH@Z 00799160 f   nafxcwd:afxinl2.obj
 0002:000ef1a0       ?GetBitmap@CBitmap@@QAEHPAUtagBITMAP@@@Z 007991a0 f   nafxcwd:afxinl2.obj
 0002:000ef1f0       ??BCPalette@@QBEPAUHPALETTE__@@XZ 007991f0 f   nafxcwd:afxinl2.obj
 0002:000ef230       ?FromHandle@CPalette@@SGPAV1@PAUHPALETTE__@@@Z 00799230 f   nafxcwd:afxinl2.obj
 0002:000ef250       ??0CPalette@@QAE@XZ        00799250 f   nafxcwd:afxinl2.obj
 0002:000ef280       ??_ECPalette@@UAEPAXI@Z    00799280 f i nafxcwd:afxinl2.obj
 0002:000ef280       ??_GCPalette@@UAEPAXI@Z    00799280 f i nafxcwd:afxinl2.obj
 0002:000ef2c0       ??1CPalette@@UAE@XZ        007992c0 f   nafxcwd:afxinl2.obj
 0002:000ef2f0       ?CreatePalette@CPalette@@QAEHPAUtagLOGPALETTE@@@Z 007992f0 f   nafxcwd:afxinl2.obj
 0002:000ef320       ?CreateHalftonePalette@CPalette@@QAEHPAVCDC@@@Z 00799320 f   nafxcwd:afxinl2.obj
 0002:000ef380       ?GetPaletteEntries@CPalette@@QBEIIIPAUtagPALETTEENTRY@@@Z 00799380 f   nafxcwd:afxinl2.obj
 0002:000ef3e0       ?SetPaletteEntries@CPalette@@QAEIIIPAUtagPALETTEENTRY@@@Z 007993e0 f   nafxcwd:afxinl2.obj
 0002:000ef440       ?AnimatePalette@CPalette@@QAEXIIPAUtagPALETTEENTRY@@@Z 00799440 f   nafxcwd:afxinl2.obj
 0002:000ef4a0       ?GetNearestPaletteIndex@CPalette@@QBEIK@Z 007994a0 f   nafxcwd:afxinl2.obj
 0002:000ef4f0       ?ResizePalette@CPalette@@QAEHI@Z 007994f0 f   nafxcwd:afxinl2.obj
 0002:000ef540       ?GetEntryCount@CPalette@@QAEHXZ 00799540 f   nafxcwd:afxinl2.obj
 0002:000ef5a0       ??BCRgn@@QBEPAUHRGN__@@XZ  007995a0 f   nafxcwd:afxinl2.obj
 0002:000ef5e0       ?FromHandle@CRgn@@SGPAV1@PAUHRGN__@@@Z 007995e0 f   nafxcwd:afxinl2.obj
 0002:000ef600       ??0CRgn@@QAE@XZ            00799600 f   nafxcwd:afxinl2.obj
 0002:000ef630       ??_ECRgn@@UAEPAXI@Z        00799630 f i nafxcwd:afxinl2.obj
 0002:000ef630       ??_GCRgn@@UAEPAXI@Z        00799630 f i nafxcwd:afxinl2.obj
 0002:000ef670       ??1CRgn@@UAE@XZ            00799670 f   nafxcwd:afxinl2.obj
 0002:000ef6a0       ?CreateRectRgn@CRgn@@QAEHHHHH@Z 007996a0 f   nafxcwd:afxinl2.obj
 0002:000ef6e0       ?CreateRectRgnIndirect@CRgn@@QAEHPBUtagRECT@@@Z 007996e0 f   nafxcwd:afxinl2.obj
 0002:000ef710       ?CreateEllipticRgn@CRgn@@QAEHHHHH@Z 00799710 f   nafxcwd:afxinl2.obj
 0002:000ef750       ?CreateEllipticRgnIndirect@CRgn@@QAEHPBUtagRECT@@@Z 00799750 f   nafxcwd:afxinl2.obj
 0002:000ef780       ?CreatePolygonRgn@CRgn@@QAEHPAUtagPOINT@@HH@Z 00799780 f   nafxcwd:afxinl2.obj
 0002:000ef7c0       ?CreatePolyPolygonRgn@CRgn@@QAEHPAUtagPOINT@@PAHHH@Z 007997c0 f   nafxcwd:afxinl2.obj
 0002:000ef800       ?CreateRoundRectRgn@CRgn@@QAEHHHHHHH@Z 00799800 f   nafxcwd:afxinl2.obj
 0002:000ef850       ?CreateFromPath@CRgn@@QAEHPAVCDC@@@Z 00799850 f   nafxcwd:afxinl2.obj
 0002:000ef8a0       ?CreateFromData@CRgn@@QAEHPBUtagXFORM@@HPBU_RGNDATA@@@Z 007998a0 f   nafxcwd:afxinl2.obj
 0002:000ef8e0       ?GetRegionData@CRgn@@QBEHPAU_RGNDATA@@H@Z 007998e0 f   nafxcwd:afxinl2.obj
 0002:000ef940       ?SetRectRgn@CRgn@@QAEXHHHH@Z 00799940 f   nafxcwd:afxinl2.obj
 0002:000ef9a0       ?SetRectRgn@CRgn@@QAEXPBUtagRECT@@@Z 007999a0 f   nafxcwd:afxinl2.obj
 0002:000efa10       ?CombineRgn@CRgn@@QAEHPBV1@0H@Z 00799a10 f   nafxcwd:afxinl2.obj
 0002:000efa80       ?CopyRgn@CRgn@@QAEHPBV1@@Z 00799a80 f   nafxcwd:afxinl2.obj
 0002:000efae0       ?EqualRgn@CRgn@@QBEHPBV1@@Z 00799ae0 f   nafxcwd:afxinl2.obj
 0002:000efb40       ?OffsetRgn@CRgn@@QAEHHH@Z  00799b40 f   nafxcwd:afxinl2.obj
 0002:000efba0       ?OffsetRgn@CRgn@@QAEHUtagPOINT@@@Z 00799ba0 f   nafxcwd:afxinl2.obj
 0002:000efc00       ?GetRgnBox@CRgn@@QBEHPAUtagRECT@@@Z 00799c00 f   nafxcwd:afxinl2.obj
 0002:000efc50       ?PtInRegion@CRgn@@QBEHHH@Z 00799c50 f   nafxcwd:afxinl2.obj
 0002:000efcb0       ?PtInRegion@CRgn@@QBEHUtagPOINT@@@Z 00799cb0 f   nafxcwd:afxinl2.obj
 0002:000efd10       ?RectInRegion@CRgn@@QBEHPBUtagRECT@@@Z 00799d10 f   nafxcwd:afxinl2.obj
 0002:000efd60       ??BCDC@@QBEPAUHDC__@@XZ    00799d60 f   nafxcwd:afxinl2.obj
 0002:000efda0       ?GetSafeHdc@CDC@@QBEPAUHDC__@@XZ 00799da0 f   nafxcwd:afxinl2.obj
 0002:000efde0       ?GetWindow@CDC@@QBEPAVCWnd@@XZ 00799de0 f   nafxcwd:afxinl2.obj
 0002:000efe30       ?IsPrinting@CDC@@QBEHXZ    00799e30 f   nafxcwd:afxinl2.obj
 0002:000efe50       ?CreateDCA@CDC@@QAEHPBD00PBX@Z 00799e50 f   nafxcwd:afxinl2.obj
 0002:000efe90       ?CreateICA@CDC@@QAEHPBD00PBX@Z 00799e90 f   nafxcwd:afxinl2.obj
 0002:000efed0       ?CreateCompatibleDC@CDC@@QAEHPAV1@@Z 00799ed0 f   nafxcwd:afxinl2.obj
 0002:000eff00       ?ExcludeUpdateRgn@CDC@@QAEHPAVCWnd@@@Z 00799f00 f   nafxcwd:afxinl2.obj
 0002:000eff50       ?GetDeviceCaps@CDC@@QBEHH@Z 00799f50 f   nafxcwd:afxinl2.obj
 0002:000effa0       ?GetBrushOrg@CDC@@QBE?AVCPoint@@XZ 00799fa0 f   nafxcwd:afxinl2.obj
 0002:000f0030       ?SetBrushOrg@CDC@@QAE?AVCPoint@@HH@Z 0079a030 f   nafxcwd:afxinl2.obj
 0002:000f00c0       ?SetBrushOrg@CDC@@QAE?AVCPoint@@UtagPOINT@@@Z 0079a0c0 f   nafxcwd:afxinl2.obj
 0002:000f0150       ?EnumObjects@CDC@@QAEHHP6GHPAXJ@ZJ@Z 0079a150 f   nafxcwd:afxinl2.obj
 0002:000f01b0       ?SelectObject@CDC@@QAEPAVCBitmap@@PAV2@@Z 0079a1b0 f   nafxcwd:afxinl2.obj
 0002:000f0210       ?SelectObject@CDC@@QAEPAVCGdiObject@@PAV2@@Z 0079a210 f   nafxcwd:afxinl2.obj
 0002:000f0270       ?SelectObject@CDC@@QAEPAXPAX@Z 0079a270 f   nafxcwd:afxinl2.obj
 0002:000f02e0       ?GetNearestColor@CDC@@QBEKK@Z 0079a2e0 f   nafxcwd:afxinl2.obj
 0002:000f0330       ?RealizePalette@CDC@@QAEIXZ 0079a330 f   nafxcwd:afxinl2.obj
 0002:000f0380       ?UpdateColors@CDC@@QAEXXZ  0079a380 f   nafxcwd:afxinl2.obj
 0002:000f03d0       ?GetBkColor@CDC@@QBEKXZ    0079a3d0 f   nafxcwd:afxinl2.obj
 0002:000f0420       ?GetBkMode@CDC@@QBEHXZ     0079a420 f   nafxcwd:afxinl2.obj
 0002:000f0470       ?GetPolyFillMode@CDC@@QBEHXZ 0079a470 f   nafxcwd:afxinl2.obj
 0002:000f04c0       ?GetROP2@CDC@@QBEHXZ       0079a4c0 f   nafxcwd:afxinl2.obj
 0002:000f0510       ?GetStretchBltMode@CDC@@QBEHXZ 0079a510 f   nafxcwd:afxinl2.obj
 0002:000f0560       ?GetTextColor@CDC@@QBEKXZ  0079a560 f   nafxcwd:afxinl2.obj
 0002:000f05b0       ?GetMapMode@CDC@@QBEHXZ    0079a5b0 f   nafxcwd:afxinl2.obj
 0002:000f0600       ?GetGraphicsMode@CDC@@QBEHXZ 0079a600 f   nafxcwd:afxinl2.obj
 0002:000f0650       ?GetWorldTransform@CDC@@QBEHPAUtagXFORM@@@Z 0079a650 f   nafxcwd:afxinl2.obj
 0002:000f06a0       ?GetViewportOrg@CDC@@QBE?AVCPoint@@XZ 0079a6a0 f   nafxcwd:afxinl2.obj
 0002:000f0730       ?GetViewportExt@CDC@@QBE?AVCSize@@XZ 0079a730 f   nafxcwd:afxinl2.obj
 0002:000f07c0       ?GetWindowOrg@CDC@@QBE?AVCPoint@@XZ 0079a7c0 f   nafxcwd:afxinl2.obj
 0002:000f0850       ?GetWindowExt@CDC@@QBE?AVCSize@@XZ 0079a850 f   nafxcwd:afxinl2.obj
 0002:000f08e0       ?SetViewportOrg@CDC@@QAE?AVCPoint@@UtagPOINT@@@Z 0079a8e0 f   nafxcwd:afxinl2.obj
 0002:000f0940       ?SetViewportExt@CDC@@QAE?AVCSize@@UtagSIZE@@@Z 0079a940 f   nafxcwd:afxinl2.obj
 0002:000f09a0       ?SetWindowOrg@CDC@@QAE?AVCPoint@@UtagPOINT@@@Z 0079a9a0 f   nafxcwd:afxinl2.obj
 0002:000f0a00       ?SetWindowExt@CDC@@QAE?AVCSize@@UtagSIZE@@@Z 0079aa00 f   nafxcwd:afxinl2.obj
 0002:000f0a60       ?DPtoLP@CDC@@QBEXPAUtagPOINT@@H@Z 0079aa60 f   nafxcwd:afxinl2.obj
 0002:000f0ad0       ?DPtoLP@CDC@@QBEXPAUtagRECT@@@Z 0079aad0 f   nafxcwd:afxinl2.obj
 0002:000f0b40       ?LPtoDP@CDC@@QBEXPAUtagPOINT@@H@Z 0079ab40 f   nafxcwd:afxinl2.obj
 0002:000f0bb0       ?LPtoDP@CDC@@QBEXPAUtagRECT@@@Z 0079abb0 f   nafxcwd:afxinl2.obj
 0002:000f0c20       ?FillRgn@CDC@@QAEHPAVCRgn@@PAVCBrush@@@Z 0079ac20 f   nafxcwd:afxinl2.obj
 0002:000f0c80       ?FrameRgn@CDC@@QAEHPAVCRgn@@PAVCBrush@@HH@Z 0079ac80 f   nafxcwd:afxinl2.obj
 0002:000f0cf0       ?InvertRgn@CDC@@QAEHPAVCRgn@@@Z 0079acf0 f   nafxcwd:afxinl2.obj
 0002:000f0d50       ?PaintRgn@CDC@@QAEHPAVCRgn@@@Z 0079ad50 f   nafxcwd:afxinl2.obj
 0002:000f0db0       ?PtVisible@CDC@@UBEHHH@Z   0079adb0 f   nafxcwd:afxinl2.obj
 0002:000f0e10       ?PtVisible@CDC@@QBEHUtagPOINT@@@Z 0079ae10 f   nafxcwd:afxinl2.obj
 0002:000f0e70       ?RectVisible@CDC@@UBEHPBUtagRECT@@@Z 0079ae70 f   nafxcwd:afxinl2.obj
 0002:000f0ec0       ?GetCurrentPosition@CDC@@QBE?AVCPoint@@XZ 0079aec0 f   nafxcwd:afxinl2.obj
 0002:000f0f50       ?MoveTo@CDC@@QAE?AVCPoint@@UtagPOINT@@@Z 0079af50 f   nafxcwd:afxinl2.obj
 0002:000f0fb0       ?LineTo@CDC@@QAEHUtagPOINT@@@Z 0079afb0 f   nafxcwd:afxinl2.obj
 0002:000f1000       ?Arc@CDC@@QAEHHHHHHHHH@Z   0079b000 f   nafxcwd:afxinl2.obj
 0002:000f1070       ?Arc@CDC@@QAEHPBUtagRECT@@UtagPOINT@@1@Z 0079b070 f   nafxcwd:afxinl2.obj
 0002:000f10f0       ?Polyline@CDC@@QAEHPBUtagPOINT@@H@Z 0079b0f0 f   nafxcwd:afxinl2.obj
 0002:000f1150       ?FillRect@CDC@@QAEXPBUtagRECT@@PAVCBrush@@@Z 0079b150 f   nafxcwd:afxinl2.obj
 0002:000f11b0       ?FrameRect@CDC@@QAEXPBUtagRECT@@PAVCBrush@@@Z 0079b1b0 f   nafxcwd:afxinl2.obj
 0002:000f1210       ?InvertRect@CDC@@QAEXPBUtagRECT@@@Z 0079b210 f   nafxcwd:afxinl2.obj
 0002:000f1260       ?DrawIcon@CDC@@QAEHHHPAUHICON__@@@Z 0079b260 f   nafxcwd:afxinl2.obj
 0002:000f12c0       ?DrawIcon@CDC@@QAEHUtagPOINT@@PAUHICON__@@@Z 0079b2c0 f   nafxcwd:afxinl2.obj
 0002:000f1320       ?DrawState@CDC@@QAEHVCPoint@@VCSize@@PAUHBITMAP__@@IPAUHBRUSH__@@@Z 0079b320 f   nafxcwd:afxinl2.obj
 0002:000f13a0       ?DrawState@@YGHPAUHDC__@@PAUHBRUSH__@@P6GH0JIHH@ZJIHHHHI@Z 0079b3a0 f i nafxcwd:afxinl2.obj
 0002:000f13f0       ?DrawState@CDC@@QAEHVCPoint@@VCSize@@PAVCBitmap@@IPAVCBrush@@@Z 0079b3f0 f   nafxcwd:afxinl2.obj
 0002:000f1470       ?DrawState@CDC@@QAEHVCPoint@@VCSize@@PAUHICON__@@IPAUHBRUSH__@@@Z 0079b470 f   nafxcwd:afxinl2.obj
 0002:000f14f0       ?DrawState@CDC@@QAEHVCPoint@@VCSize@@PAUHICON__@@IPAVCBrush@@@Z 0079b4f0 f   nafxcwd:afxinl2.obj
 0002:000f1570       ?DrawState@CDC@@QAEHVCPoint@@VCSize@@PBDIHHPAUHBRUSH__@@@Z 0079b570 f   nafxcwd:afxinl2.obj
 0002:000f15f0       ?DrawState@CDC@@QAEHVCPoint@@VCSize@@PBDIHHPAVCBrush@@@Z 0079b5f0 f   nafxcwd:afxinl2.obj
 0002:000f1680       ?DrawState@CDC@@QAEHVCPoint@@VCSize@@P6GHPAUHDC__@@JIHH@ZJIPAUHBRUSH__@@@Z 0079b680 f   nafxcwd:afxinl2.obj
 0002:000f16f0       ?DrawState@CDC@@QAEHVCPoint@@VCSize@@P6GHPAUHDC__@@JIHH@ZJIPAVCBrush@@@Z 0079b6f0 f   nafxcwd:afxinl2.obj
 0002:000f1770       ?DrawEdge@CDC@@QAEHPAUtagRECT@@II@Z 0079b770 f   nafxcwd:afxinl2.obj
 0002:000f17d0       ?DrawFrameControl@CDC@@QAEHPAUtagRECT@@II@Z 0079b7d0 f   nafxcwd:afxinl2.obj
 0002:000f1830       ?Chord@CDC@@QAEHHHHHHHHH@Z 0079b830 f   nafxcwd:afxinl2.obj
 0002:000f18a0       ?Chord@CDC@@QAEHPBUtagRECT@@UtagPOINT@@1@Z 0079b8a0 f   nafxcwd:afxinl2.obj
 0002:000f1920       ?DrawFocusRect@CDC@@QAEXPBUtagRECT@@@Z 0079b920 f   nafxcwd:afxinl2.obj
 0002:000f1970       ?Ellipse@CDC@@QAEHHHHH@Z   0079b970 f   nafxcwd:afxinl2.obj
 0002:000f19d0       ?Ellipse@CDC@@QAEHPBUtagRECT@@@Z 0079b9d0 f   nafxcwd:afxinl2.obj
 0002:000f1a40       ?Pie@CDC@@QAEHHHHHHHHH@Z   0079ba40 f   nafxcwd:afxinl2.obj
 0002:000f1ab0       ?Pie@CDC@@QAEHPBUtagRECT@@UtagPOINT@@1@Z 0079bab0 f   nafxcwd:afxinl2.obj
 0002:000f1b30       ?Polygon@CDC@@QAEHPBUtagPOINT@@H@Z 0079bb30 f   nafxcwd:afxinl2.obj
 0002:000f1b90       ?PolyPolygon@CDC@@QAEHPBUtagPOINT@@PBHH@Z 0079bb90 f   nafxcwd:afxinl2.obj
 0002:000f1bf0       ?Rectangle@CDC@@QAEHHHHH@Z 0079bbf0 f   nafxcwd:afxinl2.obj
 0002:000f1c50       ?Rectangle@CDC@@QAEHPBUtagRECT@@@Z 0079bc50 f   nafxcwd:afxinl2.obj
 0002:000f1cc0       ?RoundRect@CDC@@QAEHHHHHHH@Z 0079bcc0 f   nafxcwd:afxinl2.obj
 0002:000f1d30       ?RoundRect@CDC@@QAEHPBUtagRECT@@UtagPOINT@@@Z 0079bd30 f   nafxcwd:afxinl2.obj
 0002:000f1db0       ?PatBlt@CDC@@QAEHHHHHK@Z   0079bdb0 f   nafxcwd:afxinl2.obj
 0002:000f1e10       ?BitBlt@CDC@@QAEHHHHHPAV1@HHK@Z 0079be10 f   nafxcwd:afxinl2.obj
 0002:000f1e90       ?StretchBlt@CDC@@QAEHHHHHPAV1@HHHHK@Z 0079be90 f   nafxcwd:afxinl2.obj
 0002:000f1f10       ?GetPixel@CDC@@QBEKHH@Z    0079bf10 f   nafxcwd:afxinl2.obj
 0002:000f1f70       ?GetPixel@CDC@@QBEKUtagPOINT@@@Z 0079bf70 f   nafxcwd:afxinl2.obj
 0002:000f1fd0       ?SetPixel@CDC@@QAEKHHK@Z   0079bfd0 f   nafxcwd:afxinl2.obj
 0002:000f2030       ?SetPixel@CDC@@QAEKUtagPOINT@@K@Z 0079c030 f   nafxcwd:afxinl2.obj
 0002:000f2090       ?FloodFill@CDC@@QAEHHHK@Z  0079c090 f   nafxcwd:afxinl2.obj
 0002:000f20f0       ?ExtFloodFill@CDC@@QAEHHHKI@Z 0079c0f0 f   nafxcwd:afxinl2.obj
 0002:000f2150       ?TextOutA@CDC@@UAEHHHPBDH@Z 0079c150 f   nafxcwd:afxinl2.obj
 0002:000f21b0       ?TextOutA@CDC@@QAEHHHABV?$CStringT@DV?$StrTraitMFC@DV?$ChTraitsCRT@D@ATL@@@@@ATL@@@Z 0079c1b0 f   nafxcwd:afxinl2.obj
 0002:000f2220       ?ExtTextOutA@CDC@@UAEHHHIPBUtagRECT@@PBDIPAH@Z 0079c220 f   nafxcwd:afxinl2.obj
 0002:000f2290       ?ExtTextOutA@CDC@@QAEHHHIPBUtagRECT@@ABV?$CStringT@DV?$StrTraitMFC@DV?$ChTraitsCRT@D@ATL@@@@@ATL@@PAH@Z 0079c290 f   nafxcwd:afxinl2.obj
 0002:000f2310       ?TabbedTextOutA@CDC@@UAE?AVCSize@@HHPBDHHPAHH@Z 0079c310 f   nafxcwd:afxinl2.obj
 0002:000f2390       ?TabbedTextOutA@CDC@@QAE?AVCSize@@HHABV?$CStringT@DV?$StrTraitMFC@DV?$ChTraitsCRT@D@ATL@@@@@ATL@@HPAHH@Z 0079c390 f   nafxcwd:afxinl2.obj
 0002:000f2420       ?DrawTextA@CDC@@UAEHPBDHPAUtagRECT@@I@Z 0079c420 f   nafxcwd:afxinl2.obj
 0002:000f2480       ?DrawTextA@CDC@@QAEHABV?$CStringT@DV?$StrTraitMFC@DV?$ChTraitsCRT@D@ATL@@@@@ATL@@PAUtagRECT@@I@Z 0079c480 f   nafxcwd:afxinl2.obj
 0002:000f2550       ?DrawTextExA@CDC@@UAEHPADHPAUtagRECT@@IPAUtagDRAWTEXTPARAMS@@@Z 0079c550 f   nafxcwd:afxinl2.obj
 0002:000f25b0       ?DrawTextExA@CDC@@QAEHABV?$CStringT@DV?$StrTraitMFC@DV?$ChTraitsCRT@D@ATL@@@@@ATL@@PAUtagRECT@@IPAUtagDRAWTEXTPARAMS@@@Z 0079c5b0 f   nafxcwd:afxinl2.obj
 0002:000f2680       ?DrawText@CDC@@QAEHPBDHPAUtagRECT@@I@Z 0079c680 f   nafxcwd:afxinl2.obj
 0002:000f26c0       ?DrawText@CDC@@QAEHABV?$CStringT@DV?$StrTraitMFC@DV?$ChTraitsCRT@D@ATL@@@@@ATL@@PAUtagRECT@@I@Z 0079c6c0 f   nafxcwd:afxinl2.obj
 0002:000f26f0       ?DrawTextEx@CDC@@QAEHPADHPAUtagRECT@@IPAUtagDRAWTEXTPARAMS@@@Z 0079c6f0 f   nafxcwd:afxinl2.obj
 0002:000f2730       ?DrawTextEx@CDC@@QAEHABV?$CStringT@DV?$StrTraitMFC@DV?$ChTraitsCRT@D@ATL@@@@@ATL@@PAUtagRECT@@IPAUtagDRAWTEXTPARAMS@@@Z 0079c730 f   nafxcwd:afxinl2.obj
 0002:000f2760       ?GetTextExtent@CDC@@QBE?AVCSize@@PBDH@Z 0079c760 f   nafxcwd:afxinl2.obj
 0002:000f27f0       ?GetTextExtent@CDC@@QBE?AVCSize@@ABV?$CStringT@DV?$StrTraitMFC@DV?$ChTraitsCRT@D@ATL@@@@@ATL@@@Z 0079c7f0 f   nafxcwd:afxinl2.obj
 0002:000f2890       ?GetOutputTextExtent@CDC@@QBE?AVCSize@@PBDH@Z 0079c890 f   nafxcwd:afxinl2.obj
 0002:000f2920       ?GetOutputTextExtent@CDC@@QBE?AVCSize@@ABV?$CStringT@DV?$StrTraitMFC@DV?$ChTraitsCRT@D@ATL@@@@@ATL@@@Z 0079c920 f   nafxcwd:afxinl2.obj
 0002:000f29c0       ?GetTabbedTextExtentA@CDC@@QBE?AVCSize@@PBDHHPAH@Z 0079c9c0 f   nafxcwd:afxinl2.obj
 0002:000f2a30       ?GetTabbedTextExtentA@CDC@@QBE?AVCSize@@ABV?$CStringT@DV?$StrTraitMFC@DV?$ChTraitsCRT@D@ATL@@@@@ATL@@HPAH@Z 0079ca30 f   nafxcwd:afxinl2.obj
 0002:000f2ab0       ?GetOutputTabbedTextExtent@CDC@@QBE?AVCSize@@PBDHHPAH@Z 0079cab0 f   nafxcwd:afxinl2.obj
 0002:000f2b20       ?GetOutputTabbedTextExtent@CDC@@QBE?AVCSize@@ABV?$CStringT@DV?$StrTraitMFC@DV?$ChTraitsCRT@D@ATL@@@@@ATL@@HPAH@Z 0079cb20 f   nafxcwd:afxinl2.obj
 0002:000f2ba0       ?GrayStringA@CDC@@UAEHPAVCBrush@@P6GHPAUHDC__@@JH@ZJHHHHH@Z 0079cba0 f   nafxcwd:afxinl2.obj
 0002:000f2c20       ?GetTextAlign@CDC@@QBEIXZ  0079cc20 f   nafxcwd:afxinl2.obj
 0002:000f2c70       ?GetTextFaceA@CDC@@QBEHHPAD@Z 0079cc70 f   nafxcwd:afxinl2.obj
 0002:000f2cd0       ?GetTextFaceA@CDC@@QBEHAAV?$CStringT@DV?$StrTraitMFC@DV?$ChTraitsCRT@D@ATL@@@@@ATL@@@Z 0079ccd0 f   nafxcwd:afxinl2.obj
 0002:000f2d50       ?GetTextMetricsA@CDC@@QBEHPAUtagTEXTMETRICA@@@Z 0079cd50 f   nafxcwd:afxinl2.obj
 0002:000f2da0       ?GetTextMetrics@CDC@@QBEHPAUtagTEXTMETRICA@@@Z 0079cda0 f   nafxcwd:afxinl2.obj
 0002:000f2dd0       ?GetOutputTextMetrics@CDC@@QBEHPAUtagTEXTMETRICA@@@Z 0079cdd0 f   nafxcwd:afxinl2.obj
 0002:000f2e20       ?GetTextCharacterExtra@CDC@@QBEHXZ 0079ce20 f   nafxcwd:afxinl2.obj
 0002:000f2e70       ?GetCharWidthA@CDC@@QBEHIIPAH@Z 0079ce70 f   nafxcwd:afxinl2.obj
 0002:000f2ed0       ?GetOutputCharWidth@CDC@@QBEHIIPAH@Z 0079ced0 f   nafxcwd:afxinl2.obj
 0002:000f2f30       ?GetFontLanguageInfo@CDC@@QBEKXZ 0079cf30 f   nafxcwd:afxinl2.obj
 0002:000f2f80       ?GetCharacterPlacementA@CDC@@QBEKPBDHHPAUtagGCP_RESULTSA@@K@Z 0079cf80 f   nafxcwd:afxinl2.obj
 0002:000f2fe0       ?GetCharacterPlacementA@CDC@@QBEKAAV?$CStringT@DV?$StrTraitMFC@DV?$ChTraitsCRT@D@ATL@@@@@ATL@@HPAUtagGCP_RESULTSA@@K@Z 0079cfe0 f   nafxcwd:afxinl2.obj
 0002:000f3050       ?GetAspectRatioFilter@CDC@@QBE?AVCSize@@XZ 0079d050 f   nafxcwd:afxinl2.obj
 0002:000f30e0       ?ScrollDC@CDC@@QAEHHHPBUtagRECT@@0PAVCRgn@@PAU2@@Z 0079d0e0 f   nafxcwd:afxinl2.obj
 0002:000f3150       ?Escape@CDC@@UAEHHHPBDPAX@Z 0079d150 f   nafxcwd:afxinl2.obj
 0002:000f31b0       ?SetBoundsRect@CDC@@QAEIPBUtagRECT@@I@Z 0079d1b0 f   nafxcwd:afxinl2.obj
 0002:000f3210       ?GetBoundsRect@CDC@@QAEIPAUtagRECT@@I@Z 0079d210 f   nafxcwd:afxinl2.obj
 0002:000f3270       ?ResetDCA@CDC@@QAEHPBU_devicemodeA@@@Z 0079d270 f   nafxcwd:afxinl2.obj
 0002:000f32d0       ?GetOutlineTextMetricsA@CDC@@QBEIIPAU_OUTLINETEXTMETRICA@@@Z 0079d2d0 f   nafxcwd:afxinl2.obj
 0002:000f3330       ?GetCharABCWidthsA@CDC@@QBEHIIPAU_ABC@@@Z 0079d330 f   nafxcwd:afxinl2.obj
 0002:000f3390       ?GetFontData@CDC@@QBEKKKPAXK@Z 0079d390 f   nafxcwd:afxinl2.obj
 0002:000f33f0       ?GetKerningPairsA@CDC@@QBEHHPAUtagKERNINGPAIR@@@Z 0079d3f0 f   nafxcwd:afxinl2.obj
 0002:000f3450       ?GetGlyphOutlineA@CDC@@QBEKIIPAU_GLYPHMETRICS@@KPAXPBU_MAT2@@@Z 0079d450 f   nafxcwd:afxinl2.obj
 0002:000f34c0       ?StartDocA@CDC@@QAEHPAU_DOCINFOA@@@Z 0079d4c0 f   nafxcwd:afxinl2.obj
 0002:000f3510       ?StartPage@CDC@@QAEHXZ     0079d510 f   nafxcwd:afxinl2.obj
 0002:000f3560       ?EndPage@CDC@@QAEHXZ       0079d560 f   nafxcwd:afxinl2.obj
 0002:000f35b0       ?SetAbortProc@CDC@@QAEHP6GHPAUHDC__@@H@Z@Z 0079d5b0 f   nafxcwd:afxinl2.obj
 0002:000f3600       ?AbortDoc@CDC@@QAEHXZ      0079d600 f   nafxcwd:afxinl2.obj
 0002:000f3650       ?EndDoc@CDC@@QAEHXZ        0079d650 f   nafxcwd:afxinl2.obj
 0002:000f36a0       ?MaskBlt@CDC@@QAEHHHHHPAV1@HHAAVCBitmap@@HHK@Z 0079d6a0 f   nafxcwd:afxinl2.obj
 0002:000f3730       ?PlgBlt@CDC@@QAEHPAUtagPOINT@@PAV1@HHHHAAVCBitmap@@HH@Z 0079d730 f   nafxcwd:afxinl2.obj
 0002:000f37b0       ?SetPixelV@CDC@@QAEHHHK@Z  0079d7b0 f   nafxcwd:afxinl2.obj
 0002:000f3810       ?SetPixelV@CDC@@QAEHUtagPOINT@@K@Z 0079d810 f   nafxcwd:afxinl2.obj
 0002:000f3870       ?AngleArc@CDC@@QAEHHHHMM@Z 0079d870 f   nafxcwd:afxinl2.obj
 0002:000f38e0       ?ArcTo@CDC@@QAEHPBUtagRECT@@UtagPOINT@@1@Z 0079d8e0 f   nafxcwd:afxinl2.obj
 0002:000f3960       ?GetArcDirection@CDC@@QBEHXZ 0079d960 f   nafxcwd:afxinl2.obj
 0002:000f39b0       ?PolyPolyline@CDC@@QAEHPBUtagPOINT@@PBKH@Z 0079d9b0 f   nafxcwd:afxinl2.obj
 0002:000f3a10       ?GetColorAdjustment@CDC@@QBEHPAUtagCOLORADJUSTMENT@@@Z 0079da10 f   nafxcwd:afxinl2.obj
 0002:000f3a60       ?GetCurrentPen@CDC@@QBEPAVCPen@@XZ 0079da60 f   nafxcwd:afxinl2.obj
 0002:000f3ab0       ?GetCurrentBrush@CDC@@QBEPAVCBrush@@XZ 0079dab0 f   nafxcwd:afxinl2.obj
 0002:000f3b00       ?GetCurrentPalette@CDC@@QBEPAVCPalette@@XZ 0079db00 f   nafxcwd:afxinl2.obj
 0002:000f3b50       ?GetCurrentFont@CDC@@QBEPAVCFont@@XZ 0079db50 f   nafxcwd:afxinl2.obj
 0002:000f3ba0       ?GetCurrentBitmap@CDC@@QBEPAVCBitmap@@XZ 0079dba0 f   nafxcwd:afxinl2.obj
 0002:000f3bf0       ?PolyBezier@CDC@@QAEHPBUtagPOINT@@H@Z 0079dbf0 f   nafxcwd:afxinl2.obj
 0002:000f3c50       ?DrawEscape@CDC@@QAEHHHPBD@Z 0079dc50 f   nafxcwd:afxinl2.obj
 0002:000f3cb0       ?Escape@CDC@@QAEHHHPBDHPAD@Z 0079dcb0 f   nafxcwd:afxinl2.obj
 0002:000f3d10       ?GetCharABCWidthsA@CDC@@QBEHIIPAU_ABCFLOAT@@@Z 0079dd10 f   nafxcwd:afxinl2.obj
 0002:000f3d70       ?GetCharWidthA@CDC@@QBEHIIPAM@Z 0079dd70 f   nafxcwd:afxinl2.obj
 0002:000f3dd0       ?AbortPath@CDC@@QAEHXZ     0079ddd0 f   nafxcwd:afxinl2.obj
 0002:000f3e20       ?BeginPath@CDC@@QAEHXZ     0079de20 f   nafxcwd:afxinl2.obj
 0002:000f3e70       ?CloseFigure@CDC@@QAEHXZ   0079de70 f   nafxcwd:afxinl2.obj
 0002:000f3ec0       ?EndPath@CDC@@QAEHXZ       0079dec0 f   nafxcwd:afxinl2.obj
 0002:000f3f10       ?FillPath@CDC@@QAEHXZ      0079df10 f   nafxcwd:afxinl2.obj
 0002:000f3f60       ?FlattenPath@CDC@@QAEHXZ   0079df60 f   nafxcwd:afxinl2.obj
 0002:000f3fb0       ?GetMiterLimit@CDC@@QBEMXZ 0079dfb0 f   nafxcwd:afxinl2.obj
 0002:000f4020       ?GetPath@CDC@@QBEHPAUtagPOINT@@PAEH@Z 0079e020 f   nafxcwd:afxinl2.obj
 0002:000f4080       ?SetMiterLimit@CDC@@QAEHM@Z 0079e080 f   nafxcwd:afxinl2.obj
 0002:000f40e0       ?StrokeAndFillPath@CDC@@QAEHXZ 0079e0e0 f   nafxcwd:afxinl2.obj
 0002:000f4130       ?StrokePath@CDC@@QAEHXZ    0079e130 f   nafxcwd:afxinl2.obj
 0002:000f4180       ?WidenPath@CDC@@QAEHXZ     0079e180 f   nafxcwd:afxinl2.obj
 0002:000f41d0       ?AddMetaFileComment@CDC@@QAEHIPBE@Z 0079e1d0 f   nafxcwd:afxinl2.obj
 0002:000f4230       ?PlayMetaFile@CDC@@QAEHPAUHENHMETAFILE__@@PBUtagRECT@@@Z 0079e230 f   nafxcwd:afxinl2.obj
 0002:000f4290       ??BCImageList@@QBEPAU_IMAGELIST@@XZ 0079e290 f   nafxcwd:afxinl2.obj
 0002:000f42b0       ?GetSafeHandle@CImageList@@QBEPAU_IMAGELIST@@XZ 0079e2b0 f   nafxcwd:afxinl2.obj
 0002:000f42f0       ?GetImageCount@CImageList@@QBEHXZ 0079e2f0 f   nafxcwd:afxinl2.obj
 0002:000f4340       ?Add@CImageList@@QAEHPAVCBitmap@@0@Z 0079e340 f   nafxcwd:afxinl2.obj
 0002:000f43a0       ?Add@CImageList@@QAEHPAVCBitmap@@K@Z 0079e3a0 f   nafxcwd:afxinl2.obj
 0002:000f4400       ?Remove@CImageList@@QAEHH@Z 0079e400 f   nafxcwd:afxinl2.obj
 0002:000f4450       ?Replace@CImageList@@QAEHHPAVCBitmap@@0@Z 0079e450 f   nafxcwd:afxinl2.obj
 0002:000f44c0       ?Add@CImageList@@QAEHPAUHICON__@@@Z 0079e4c0 f   nafxcwd:afxinl2.obj
 0002:000f4510       ?Replace@CImageList@@QAEHHPAUHICON__@@@Z 0079e510 f   nafxcwd:afxinl2.obj
 0002:000f4560       ?ExtractIconA@CImageList@@QAEPAUHICON__@@H@Z 0079e560 f   nafxcwd:afxinl2.obj
 0002:000f45b0       ?Draw@CImageList@@QAEHPAVCDC@@HUtagPOINT@@I@Z 0079e5b0 f   nafxcwd:afxinl2.obj
 0002:000f4640       ?DrawEx@CImageList@@QAEHPAVCDC@@HUtagPOINT@@UtagSIZE@@KKI@Z 0079e640 f   nafxcwd:afxinl2.obj
 0002:000f46e0       ?SetBkColor@CImageList@@QAEKK@Z 0079e6e0 f   nafxcwd:afxinl2.obj
 0002:000f4730       ?GetBkColor@CImageList@@QBEKXZ 0079e730 f   nafxcwd:afxinl2.obj
 0002:000f4780       ?SetOverlayImage@CImageList@@QAEHHH@Z 0079e780 f   nafxcwd:afxinl2.obj
 0002:000f47d0       ?GetImageInfo@CImageList@@QBEHHPAU_IMAGEINFO@@@Z 0079e7d0 f   nafxcwd:afxinl2.obj
 0002:000f4820       ?BeginDrag@CImageList@@QAEHHVCPoint@@@Z 0079e820 f   nafxcwd:afxinl2.obj
 0002:000f4880       ?EndDrag@CImageList@@SGXXZ 0079e880 f   nafxcwd:afxinl2.obj
 0002:000f4890       ?DragMove@CImageList@@SGHVCPoint@@@Z 0079e890 f   nafxcwd:afxinl2.obj
 0002:000f48b0       ?SetDragCursorImage@CImageList@@QAEHHVCPoint@@@Z 0079e8b0 f   nafxcwd:afxinl2.obj
 0002:000f4910       ?DragShowNolock@CImageList@@SGHH@Z 0079e910 f   nafxcwd:afxinl2.obj
 0002:000f4930       ?GetDragImage@CImageList@@SGPAV1@PAUtagPOINT@@0@Z 0079e930 f   nafxcwd:afxinl2.obj
 0002:000f4960       ?DragEnter@CImageList@@SGHPAVCWnd@@VCPoint@@@Z 0079e960 f   nafxcwd:afxinl2.obj
 0002:000f4990       ?DragLeave@CImageList@@SGHPAVCWnd@@@Z 0079e990 f   nafxcwd:afxinl2.obj
 0002:000f49b0       ??0CMenu@@QAE@XZ           0079e9b0 f   nafxcwd:afxinl2.obj
 0002:000f49f0       ??_GCMenu@@UAEPAXI@Z       0079e9f0 f i nafxcwd:afxinl2.obj
 0002:000f49f0       ??_ECMenu@@UAEPAXI@Z       0079e9f0 f i nafxcwd:afxinl2.obj
 0002:000f4a30       ??1CMenu@@UAE@XZ           0079ea30 f   nafxcwd:afxinl2.obj
 0002:000f4ab0       ?CreateMenu@CMenu@@QAEHXZ  0079eab0 f   nafxcwd:afxinl2.obj
 0002:000f4ae0       ?CreatePopupMenu@CMenu@@QAEHXZ 0079eae0 f   nafxcwd:afxinl2.obj
 0002:000f4b10       ??BCMenu@@QBEPAUHMENU__@@XZ 0079eb10 f   nafxcwd:afxinl2.obj
 0002:000f4b90       ??8CMenu@@QBEHABV0@@Z      0079eb90 f   nafxcwd:afxinl2.obj
 0002:000f4bc0       ??9CMenu@@QBEHABV0@@Z      0079ebc0 f   nafxcwd:afxinl2.obj
 0002:000f4bf0       ?GetSafeHmenu@CMenu@@QBEPAUHMENU__@@XZ 0079ebf0 f   nafxcwd:afxinl2.obj
 0002:000f4c70       ?DeleteMenu@CMenu@@QAEHII@Z 0079ec70 f   nafxcwd:afxinl2.obj
 0002:000f4cd0       ?AppendMenuA@CMenu@@QAEHIIPBD@Z 0079ecd0 f   nafxcwd:afxinl2.obj
 0002:000f4d30       ?AppendMenuA@CMenu@@QAEHIIPBVCBitmap@@@Z 0079ed30 f   nafxcwd:afxinl2.obj
 0002:000f4da0       ?CheckMenuItem@CMenu@@QAEIII@Z 0079eda0 f   nafxcwd:afxinl2.obj
 0002:000f4e00       ?EnableMenuItem@CMenu@@QAEIII@Z 0079ee00 f   nafxcwd:afxinl2.obj
 0002:000f4e60       ?SetDefaultItem@CMenu@@QAEHIH@Z 0079ee60 f   nafxcwd:afxinl2.obj
 0002:000f4ec0       ?GetDefaultItem@CMenu@@QAEIIH@Z 0079eec0 f   nafxcwd:afxinl2.obj
 0002:000f4f20       ?GetMenuItemCount@CMenu@@QBEHXZ 0079ef20 f   nafxcwd:afxinl2.obj
 0002:000f4f70       ?GetMenuItemID@CMenu@@QBEIH@Z 0079ef70 f   nafxcwd:afxinl2.obj
 0002:000f4fd0       ?GetMenuState@CMenu@@QBEIII@Z 0079efd0 f   nafxcwd:afxinl2.obj
 0002:000f5030       ?GetMenuStringA@CMenu@@QBEHIPADHI@Z 0079f030 f   nafxcwd:afxinl2.obj
 0002:000f50a0       ?GetMenuItemInfoA@CMenu@@QAEHIPAUtagMENUITEMINFOA@@H@Z 0079f0a0 f   nafxcwd:afxinl2.obj
 0002:000f5140       ?SetMenuItemInfoA@CMenu@@QAEHIPAUtagMENUITEMINFOA@@H@Z 0079f140 f   nafxcwd:afxinl2.obj
 0002:000f51e0       ?GetSubMenu@CMenu@@QBEPAV1@H@Z 0079f1e0 f   nafxcwd:afxinl2.obj
 0002:000f5240       ?InsertMenuA@CMenu@@QAEHIIIPBD@Z 0079f240 f   nafxcwd:afxinl2.obj
 0002:000f52b0       ?InsertMenuA@CMenu@@QAEHIIIPBVCBitmap@@@Z 0079f2b0 f   nafxcwd:afxinl2.obj
 0002:000f5320       ?InsertMenuItemA@CMenu@@QAEHIPAUtagMENUITEMINFOA@@H@Z 0079f320 f   nafxcwd:afxinl2.obj
 0002:000f53c0       ?ModifyMenuA@CMenu@@QAEHIIIPBD@Z 0079f3c0 f   nafxcwd:afxinl2.obj
 0002:000f5430       ?ModifyMenuA@CMenu@@QAEHIIIPBVCBitmap@@@Z 0079f430 f   nafxcwd:afxinl2.obj
 0002:000f54a0       ?RemoveMenu@CMenu@@QAEHII@Z 0079f4a0 f   nafxcwd:afxinl2.obj
 0002:000f5500       ?SetMenuItemBitmaps@CMenu@@QAEHIIPBVCBitmap@@0@Z 0079f500 f   nafxcwd:afxinl2.obj
 0002:000f5580       ?LoadMenuA@CMenu@@QAEHPBD@Z 0079f580 f   nafxcwd:afxinl2.obj
 0002:000f55c0       ?LoadMenuA@CMenu@@QAEHI@Z  0079f5c0 f   nafxcwd:afxinl2.obj
 0002:000f5600       ?LoadMenuIndirectA@CMenu@@QAEHPBX@Z 0079f600 f   nafxcwd:afxinl2.obj
 0002:000f5630       ?SetMenuContextHelpId@CMenu@@QAEHK@Z 0079f630 f   nafxcwd:afxinl2.obj
 0002:000f5660       ?GetMenuContextHelpId@CMenu@@QBEKXZ 0079f660 f   nafxcwd:afxinl2.obj
 0002:000f5680       ?CheckMenuRadioItem@CMenu@@QAEHIIII@Z 0079f680 f   nafxcwd:afxinl2.obj
 0002:000f56c0       ?ContinueRouting@CCmdUI@@QAEXXZ 0079f6c0 f   nafxcwd:afxinl2.obj
 0002:000f56e0       ?AfxImageList_GetImageCount@@YGHPAU_IMAGELIST@@@Z 0079f6e0 f i nafxcwd:afxinl2.obj
 0002:000f5710       ?_ImageList_GetImageCount@CComCtlWrapper@@QAEHPAU_IMAGELIST@@@Z 0079f710 f i nafxcwd:afxinl2.obj
 0002:000f58a0       ??BImageList_GetImageCount_Type@CComCtlWrapper@@QAEP6GHPAU_IMAGELIST@@@ZXZ 0079f8a0 f i nafxcwd:afxinl2.obj
 0002:000f58c0       ?GetProcAddress_ImageList_GetImageCount@CComCtlWrapper@@QAE?AUImageList_GetImageCount_Type@1@XZ 0079f8c0 f i nafxcwd:afxinl2.obj
 0002:000f5930       ??4ImageList_GetImageCount_Type@CComCtlWrapper@@QAEXP6GHPAU_IMAGELIST@@@Z@Z 0079f930 f i nafxcwd:afxinl2.obj
 0002:000f5950       ??7ImageList_GetImageCount_Type@CComCtlWrapper@@QBE_NXZ 0079f950 f i nafxcwd:afxinl2.obj
 0002:000f5970       ?AfxImageList_Add@@YGHPAU_IMAGELIST@@PAUHBITMAP__@@1@Z 0079f970 f i nafxcwd:afxinl2.obj
 0002:000f59a0       ?_ImageList_Add@CComCtlWrapper@@QAEHPAU_IMAGELIST@@PAUHBITMAP__@@1@Z 0079f9a0 f i nafxcwd:afxinl2.obj
 0002:000f5b30       ??BImageList_Add_Type@CComCtlWrapper@@QAEP6GHPAU_IMAGELIST@@PAUHBITMAP__@@1@ZXZ 0079fb30 f i nafxcwd:afxinl2.obj
 0002:000f5b50       ?GetProcAddress_ImageList_Add@CComCtlWrapper@@QAE?AUImageList_Add_Type@1@XZ 0079fb50 f i nafxcwd:afxinl2.obj
 0002:000f5bc0       ??4ImageList_Add_Type@CComCtlWrapper@@QAEXP6GHPAU_IMAGELIST@@PAUHBITMAP__@@1@Z@Z 0079fbc0 f i nafxcwd:afxinl2.obj
 0002:000f5be0       ??7ImageList_Add_Type@CComCtlWrapper@@QBE_NXZ 0079fbe0 f i nafxcwd:afxinl2.obj
 0002:000f5c00       ?AfxImageList_ReplaceIcon@@YGHPAU_IMAGELIST@@HPAUHICON__@@@Z 0079fc00 f i nafxcwd:afxinl2.obj
 0002:000f5c30       ?_ImageList_ReplaceIcon@CComCtlWrapper@@QAEHPAU_IMAGELIST@@HPAUHICON__@@@Z 0079fc30 f i nafxcwd:afxinl2.obj
 0002:000f5dc0       ??BImageList_ReplaceIcon_Type@CComCtlWrapper@@QAEP6GHPAU_IMAGELIST@@HPAUHICON__@@@ZXZ 0079fdc0 f i nafxcwd:afxinl2.obj
 0002:000f5de0       ?GetProcAddress_ImageList_ReplaceIcon@CComCtlWrapper@@QAE?AUImageList_ReplaceIcon_Type@1@XZ 0079fde0 f i nafxcwd:afxinl2.obj
 0002:000f5e50       ??4ImageList_ReplaceIcon_Type@CComCtlWrapper@@QAEXP6GHPAU_IMAGELIST@@HPAUHICON__@@@Z@Z 0079fe50 f i nafxcwd:afxinl2.obj
 0002:000f5e70       ??7ImageList_ReplaceIcon_Type@CComCtlWrapper@@QBE_NXZ 0079fe70 f i nafxcwd:afxinl2.obj
 0002:000f5e90       ?AfxImageList_SetBkColor@@YGKPAU_IMAGELIST@@K@Z 0079fe90 f i nafxcwd:afxinl2.obj
 0002:000f5ec0       ?_ImageList_SetBkColor@CComCtlWrapper@@QAEKPAU_IMAGELIST@@K@Z 0079fec0 f i nafxcwd:afxinl2.obj
 0002:000f6050       ??BImageList_SetBkColor_Type@CComCtlWrapper@@QAEP6GKPAU_IMAGELIST@@K@ZXZ 007a0050 f i nafxcwd:afxinl2.obj
 0002:000f6070       ?GetProcAddress_ImageList_SetBkColor@CComCtlWrapper@@QAE?AUImageList_SetBkColor_Type@1@XZ 007a0070 f i nafxcwd:afxinl2.obj
 0002:000f60e0       ??4ImageList_SetBkColor_Type@CComCtlWrapper@@QAEXP6GKPAU_IMAGELIST@@K@Z@Z 007a00e0 f i nafxcwd:afxinl2.obj
 0002:000f6100       ??7ImageList_SetBkColor_Type@CComCtlWrapper@@QBE_NXZ 007a0100 f i nafxcwd:afxinl2.obj
 0002:000f6120       ?AfxImageList_GetBkColor@@YGKPAU_IMAGELIST@@@Z 007a0120 f i nafxcwd:afxinl2.obj
 0002:000f6150       ?_ImageList_GetBkColor@CComCtlWrapper@@QAEKPAU_IMAGELIST@@@Z 007a0150 f i nafxcwd:afxinl2.obj
 0002:000f62e0       ??BImageList_GetBkColor_Type@CComCtlWrapper@@QAEP6GKPAU_IMAGELIST@@@ZXZ 007a02e0 f i nafxcwd:afxinl2.obj
 0002:000f6300       ?GetProcAddress_ImageList_GetBkColor@CComCtlWrapper@@QAE?AUImageList_GetBkColor_Type@1@XZ 007a0300 f i nafxcwd:afxinl2.obj
 0002:000f6370       ??4ImageList_GetBkColor_Type@CComCtlWrapper@@QAEXP6GKPAU_IMAGELIST@@@Z@Z 007a0370 f i nafxcwd:afxinl2.obj
 0002:000f6390       ??7ImageList_GetBkColor_Type@CComCtlWrapper@@QBE_NXZ 007a0390 f i nafxcwd:afxinl2.obj
 0002:000f63b0       ?AfxImageList_SetOverlayImage@@YGHPAU_IMAGELIST@@HH@Z 007a03b0 f i nafxcwd:afxinl2.obj
 0002:000f63e0       ?_ImageList_SetOverlayImage@CComCtlWrapper@@QAEHPAU_IMAGELIST@@HH@Z 007a03e0 f i nafxcwd:afxinl2.obj
 0002:000f6570       ??BImageList_SetOverlayImage_Type@CComCtlWrapper@@QAEP6GHPAU_IMAGELIST@@HH@ZXZ 007a0570 f i nafxcwd:afxinl2.obj
 0002:000f6590       ?GetProcAddress_ImageList_SetOverlayImage@CComCtlWrapper@@QAE?AUImageList_SetOverlayImage_Type@1@XZ 007a0590 f i nafxcwd:afxinl2.obj
 0002:000f6600       ??4ImageList_SetOverlayImage_Type@CComCtlWrapper@@QAEXP6GHPAU_IMAGELIST@@HH@Z@Z 007a0600 f i nafxcwd:afxinl2.obj
 0002:000f6620       ??7ImageList_SetOverlayImage_Type@CComCtlWrapper@@QBE_NXZ 007a0620 f i nafxcwd:afxinl2.obj
 0002:000f6640       ?AfxImageList_Draw@@YGHPAU_IMAGELIST@@HPAUHDC__@@HHI@Z 007a0640 f i nafxcwd:afxinl2.obj
 0002:000f6680       ?_ImageList_Draw@CComCtlWrapper@@QAEHPAU_IMAGELIST@@HPAUHDC__@@HHI@Z 007a0680 f i nafxcwd:afxinl2.obj
 0002:000f6820       ??BImageList_Draw_Type@CComCtlWrapper@@QAEP6GHPAU_IMAGELIST@@HPAUHDC__@@HHI@ZXZ 007a0820 f i nafxcwd:afxinl2.obj
 0002:000f6840       ?GetProcAddress_ImageList_Draw@CComCtlWrapper@@QAE?AUImageList_Draw_Type@1@XZ 007a0840 f i nafxcwd:afxinl2.obj
 0002:000f68b0       ??4ImageList_Draw_Type@CComCtlWrapper@@QAEXP6GHPAU_IMAGELIST@@HPAUHDC__@@HHI@Z@Z 007a08b0 f i nafxcwd:afxinl2.obj
 0002:000f68d0       ??7ImageList_Draw_Type@CComCtlWrapper@@QBE_NXZ 007a08d0 f i nafxcwd:afxinl2.obj
 0002:000f68f0       ?AfxImageList_Replace@@YGHPAU_IMAGELIST@@HPAUHBITMAP__@@1@Z 007a08f0 f i nafxcwd:afxinl2.obj
 0002:000f6930       ?_ImageList_Replace@CComCtlWrapper@@QAEHPAU_IMAGELIST@@HPAUHBITMAP__@@1@Z 007a0930 f i nafxcwd:afxinl2.obj
 0002:000f6ad0       ??BImageList_Replace_Type@CComCtlWrapper@@QAEP6GHPAU_IMAGELIST@@HPAUHBITMAP__@@1@ZXZ 007a0ad0 f i nafxcwd:afxinl2.obj
 0002:000f6af0       ?GetProcAddress_ImageList_Replace@CComCtlWrapper@@QAE?AUImageList_Replace_Type@1@XZ 007a0af0 f i nafxcwd:afxinl2.obj
 0002:000f6b60       ??4ImageList_Replace_Type@CComCtlWrapper@@QAEXP6GHPAU_IMAGELIST@@HPAUHBITMAP__@@1@Z@Z 007a0b60 f i nafxcwd:afxinl2.obj
 0002:000f6b80       ??7ImageList_Replace_Type@CComCtlWrapper@@QBE_NXZ 007a0b80 f i nafxcwd:afxinl2.obj
 0002:000f6ba0       ?AfxImageList_AddMasked@@YGHPAU_IMAGELIST@@PAUHBITMAP__@@K@Z 007a0ba0 f i nafxcwd:afxinl2.obj
 0002:000f6bd0       ?_ImageList_AddMasked@CComCtlWrapper@@QAEHPAU_IMAGELIST@@PAUHBITMAP__@@K@Z 007a0bd0 f i nafxcwd:afxinl2.obj
 0002:000f6d60       ??BImageList_AddMasked_Type@CComCtlWrapper@@QAEP6GHPAU_IMAGELIST@@PAUHBITMAP__@@K@ZXZ 007a0d60 f i nafxcwd:afxinl2.obj
 0002:000f6d80       ?GetProcAddress_ImageList_AddMasked@CComCtlWrapper@@QAE?AUImageList_AddMasked_Type@1@XZ 007a0d80 f i nafxcwd:afxinl2.obj
 0002:000f6df0       ??4ImageList_AddMasked_Type@CComCtlWrapper@@QAEXP6GHPAU_IMAGELIST@@PAUHBITMAP__@@K@Z@Z 007a0df0 f i nafxcwd:afxinl2.obj
 0002:000f6e10       ??7ImageList_AddMasked_Type@CComCtlWrapper@@QBE_NXZ 007a0e10 f i nafxcwd:afxinl2.obj
 0002:000f6e30       ?AfxImageList_DrawEx@@YGHPAU_IMAGELIST@@HPAUHDC__@@HHHHKKI@Z 007a0e30 f i nafxcwd:afxinl2.obj
 0002:000f6e80       ?_ImageList_DrawEx@CComCtlWrapper@@QAEHPAU_IMAGELIST@@HPAUHDC__@@HHHHKKI@Z 007a0e80 f i nafxcwd:afxinl2.obj
 0002:000f7030       ??BImageList_DrawEx_Type@CComCtlWrapper@@QAEP6GHPAU_IMAGELIST@@HPAUHDC__@@HHHHKKI@ZXZ 007a1030 f i nafxcwd:afxinl2.obj
 0002:000f7050       ?GetProcAddress_ImageList_DrawEx@CComCtlWrapper@@QAE?AUImageList_DrawEx_Type@1@XZ 007a1050 f i nafxcwd:afxinl2.obj
 0002:000f70c0       ??4ImageList_DrawEx_Type@CComCtlWrapper@@QAEXP6GHPAU_IMAGELIST@@HPAUHDC__@@HHHHKKI@Z@Z 007a10c0 f i nafxcwd:afxinl2.obj
 0002:000f70e0       ??7ImageList_DrawEx_Type@CComCtlWrapper@@QBE_NXZ 007a10e0 f i nafxcwd:afxinl2.obj
 0002:000f7100       ?AfxImageList_Remove@@YGHPAU_IMAGELIST@@H@Z 007a1100 f i nafxcwd:afxinl2.obj
 0002:000f7130       ?_ImageList_Remove@CComCtlWrapper@@QAEHPAU_IMAGELIST@@H@Z 007a1130 f i nafxcwd:afxinl2.obj
 0002:000f72c0       ??BImageList_Remove_Type@CComCtlWrapper@@QAEP6GHPAU_IMAGELIST@@H@ZXZ 007a12c0 f i nafxcwd:afxinl2.obj
 0002:000f72e0       ?GetProcAddress_ImageList_Remove@CComCtlWrapper@@QAE?AUImageList_Remove_Type@1@XZ 007a12e0 f i nafxcwd:afxinl2.obj
 0002:000f7350       ??4ImageList_Remove_Type@CComCtlWrapper@@QAEXP6GHPAU_IMAGELIST@@H@Z@Z 007a1350 f i nafxcwd:afxinl2.obj
 0002:000f7370       ??7ImageList_Remove_Type@CComCtlWrapper@@QBE_NXZ 007a1370 f i nafxcwd:afxinl2.obj
 0002:000f7390       ?AfxImageList_GetIcon@@YGPAUHICON__@@PAU_IMAGELIST@@HI@Z 007a1390 f i nafxcwd:afxinl2.obj
 0002:000f73c0       ?_ImageList_GetIcon@CComCtlWrapper@@QAEPAUHICON__@@PAU_IMAGELIST@@HI@Z 007a13c0 f i nafxcwd:afxinl2.obj
 0002:000f7550       ??BImageList_GetIcon_Type@CComCtlWrapper@@QAEP6GPAUHICON__@@PAU_IMAGELIST@@HI@ZXZ 007a1550 f i nafxcwd:afxinl2.obj
 0002:000f7570       ?GetProcAddress_ImageList_GetIcon@CComCtlWrapper@@QAE?AUImageList_GetIcon_Type@1@XZ 007a1570 f i nafxcwd:afxinl2.obj
 0002:000f75e0       ??4ImageList_GetIcon_Type@CComCtlWrapper@@QAEXP6GPAUHICON__@@PAU_IMAGELIST@@HI@Z@Z 007a15e0 f i nafxcwd:afxinl2.obj
 0002:000f7600       ??7ImageList_GetIcon_Type@CComCtlWrapper@@QBE_NXZ 007a1600 f i nafxcwd:afxinl2.obj
 0002:000f7620       ?AfxImageList_BeginDrag@@YGHPAU_IMAGELIST@@HHH@Z 007a1620 f i nafxcwd:afxinl2.obj
 0002:000f7660       ?_ImageList_BeginDrag@CComCtlWrapper@@QAEHPAU_IMAGELIST@@HHH@Z 007a1660 f i nafxcwd:afxinl2.obj
 0002:000f7800       ??BImageList_BeginDrag_Type@CComCtlWrapper@@QAEP6GHPAU_IMAGELIST@@HHH@ZXZ 007a1800 f i nafxcwd:afxinl2.obj
 0002:000f7820       ?GetProcAddress_ImageList_BeginDrag@CComCtlWrapper@@QAE?AUImageList_BeginDrag_Type@1@XZ 007a1820 f i nafxcwd:afxinl2.obj
 0002:000f7890       ??4ImageList_BeginDrag_Type@CComCtlWrapper@@QAEXP6GHPAU_IMAGELIST@@HHH@Z@Z 007a1890 f i nafxcwd:afxinl2.obj
 0002:000f78b0       ??7ImageList_BeginDrag_Type@CComCtlWrapper@@QBE_NXZ 007a18b0 f i nafxcwd:afxinl2.obj
 0002:000f78d0       ?AfxImageList_EndDrag@@YGXXZ 007a18d0 f i nafxcwd:afxinl2.obj
 0002:000f78f0       ?_ImageList_EndDrag@CComCtlWrapper@@QAEXXZ 007a18f0 f i nafxcwd:afxinl2.obj
 0002:000f7a10       ??BImageList_EndDrag_Type@CComCtlWrapper@@QAEP6GXXZXZ 007a1a10 f i nafxcwd:afxinl2.obj
 0002:000f7a30       ?GetProcAddress_ImageList_EndDrag@CComCtlWrapper@@QAE?AUImageList_EndDrag_Type@1@XZ 007a1a30 f i nafxcwd:afxinl2.obj
 0002:000f7aa0       ??4ImageList_EndDrag_Type@CComCtlWrapper@@QAEXP6GXXZ@Z 007a1aa0 f i nafxcwd:afxinl2.obj
 0002:000f7ac0       ??7ImageList_EndDrag_Type@CComCtlWrapper@@QBE_NXZ 007a1ac0 f i nafxcwd:afxinl2.obj
 0002:000f7ae0       ?AfxImageList_DragEnter@@YGHPAUHWND__@@HH@Z 007a1ae0 f i nafxcwd:afxinl2.obj
 0002:000f7b10       ?_ImageList_DragEnter@CComCtlWrapper@@QAEHPAUHWND__@@HH@Z 007a1b10 f i nafxcwd:afxinl2.obj
 0002:000f7ca0       ??BImageList_DragEnter_Type@CComCtlWrapper@@QAEP6GHPAUHWND__@@HH@ZXZ 007a1ca0 f i nafxcwd:afxinl2.obj
 0002:000f7cc0       ?GetProcAddress_ImageList_DragEnter@CComCtlWrapper@@QAE?AUImageList_DragEnter_Type@1@XZ 007a1cc0 f i nafxcwd:afxinl2.obj
 0002:000f7d30       ??4ImageList_DragEnter_Type@CComCtlWrapper@@QAEXP6GHPAUHWND__@@HH@Z@Z 007a1d30 f i nafxcwd:afxinl2.obj
 0002:000f7d50       ??7ImageList_DragEnter_Type@CComCtlWrapper@@QBE_NXZ 007a1d50 f i nafxcwd:afxinl2.obj
 0002:000f7d70       ?AfxImageList_DragLeave@@YGHPAUHWND__@@@Z 007a1d70 f i nafxcwd:afxinl2.obj
 0002:000f7da0       ?_ImageList_DragLeave@CComCtlWrapper@@QAEHPAUHWND__@@@Z 007a1da0 f i nafxcwd:afxinl2.obj
 0002:000f7f30       ??BImageList_DragLeave_Type@CComCtlWrapper@@QAEP6GHPAUHWND__@@@ZXZ 007a1f30 f i nafxcwd:afxinl2.obj
 0002:000f7f50       ?GetProcAddress_ImageList_DragLeave@CComCtlWrapper@@QAE?AUImageList_DragLeave_Type@1@XZ 007a1f50 f i nafxcwd:afxinl2.obj
 0002:000f7fc0       ??4ImageList_DragLeave_Type@CComCtlWrapper@@QAEXP6GHPAUHWND__@@@Z@Z 007a1fc0 f i nafxcwd:afxinl2.obj
 0002:000f7fe0       ??7ImageList_DragLeave_Type@CComCtlWrapper@@QBE_NXZ 007a1fe0 f i nafxcwd:afxinl2.obj
 0002:000f8000       ?AfxImageList_DragMove@@YGHHH@Z 007a2000 f i nafxcwd:afxinl2.obj
 0002:000f8030       ?_ImageList_DragMove@CComCtlWrapper@@QAEHHH@Z 007a2030 f i nafxcwd:afxinl2.obj
 0002:000f81c0       ??BImageList_DragMove_Type@CComCtlWrapper@@QAEP6GHHH@ZXZ 007a21c0 f i nafxcwd:afxinl2.obj
 0002:000f81e0       ?GetProcAddress_ImageList_DragMove@CComCtlWrapper@@QAE?AUImageList_DragMove_Type@1@XZ 007a21e0 f i nafxcwd:afxinl2.obj
 0002:000f8250       ??4ImageList_DragMove_Type@CComCtlWrapper@@QAEXP6GHHH@Z@Z 007a2250 f i nafxcwd:afxinl2.obj
 0002:000f8270       ??7ImageList_DragMove_Type@CComCtlWrapper@@QBE_NXZ 007a2270 f i nafxcwd:afxinl2.obj
 0002:000f8290       ?AfxImageList_SetDragCursorImage@@YGHPAU_IMAGELIST@@HHH@Z 007a2290 f i nafxcwd:afxinl2.obj
 0002:000f82d0       ?_ImageList_SetDragCursorImage@CComCtlWrapper@@QAEHPAU_IMAGELIST@@HHH@Z 007a22d0 f i nafxcwd:afxinl2.obj
 0002:000f8470       ??BImageList_SetDragCursorImage_Type@CComCtlWrapper@@QAEP6GHPAU_IMAGELIST@@HHH@ZXZ 007a2470 f i nafxcwd:afxinl2.obj
 0002:000f8490       ?GetProcAddress_ImageList_SetDragCursorImage@CComCtlWrapper@@QAE?AUImageList_SetDragCursorImage_Type@1@XZ 007a2490 f i nafxcwd:afxinl2.obj
 0002:000f8500       ??4ImageList_SetDragCursorImage_Type@CComCtlWrapper@@QAEXP6GHPAU_IMAGELIST@@HHH@Z@Z 007a2500 f i nafxcwd:afxinl2.obj
 0002:000f8520       ??7ImageList_SetDragCursorImage_Type@CComCtlWrapper@@QBE_NXZ 007a2520 f i nafxcwd:afxinl2.obj
 0002:000f8540       ?AfxImageList_DragShowNolock@@YGHH@Z 007a2540 f i nafxcwd:afxinl2.obj
 0002:000f8570       ?_ImageList_DragShowNolock@CComCtlWrapper@@QAEHH@Z 007a2570 f i nafxcwd:afxinl2.obj
 0002:000f8700       ??BImageList_DragShowNolock_Type@CComCtlWrapper@@QAEP6GHH@ZXZ 007a2700 f i nafxcwd:afxinl2.obj
 0002:000f8720       ?GetProcAddress_ImageList_DragShowNolock@CComCtlWrapper@@QAE?AUImageList_DragShowNolock_Type@1@XZ 007a2720 f i nafxcwd:afxinl2.obj
 0002:000f8790       ??4ImageList_DragShowNolock_Type@CComCtlWrapper@@QAEXP6GHH@Z@Z 007a2790 f i nafxcwd:afxinl2.obj
 0002:000f87b0       ??7ImageList_DragShowNolock_Type@CComCtlWrapper@@QBE_NXZ 007a27b0 f i nafxcwd:afxinl2.obj
 0002:000f87d0       ?AfxImageList_GetDragImage@@YGPAU_IMAGELIST@@PAUtagPOINT@@0@Z 007a27d0 f i nafxcwd:afxinl2.obj
 0002:000f8800       ?_ImageList_GetDragImage@CComCtlWrapper@@QAEPAU_IMAGELIST@@PAUtagPOINT@@0@Z 007a2800 f i nafxcwd:afxinl2.obj
 0002:000f8990       ??BImageList_GetDragImage_Type@CComCtlWrapper@@QAEP6GPAU_IMAGELIST@@PAUtagPOINT@@0@ZXZ 007a2990 f i nafxcwd:afxinl2.obj
 0002:000f89b0       ?GetProcAddress_ImageList_GetDragImage@CComCtlWrapper@@QAE?AUImageList_GetDragImage_Type@1@XZ 007a29b0 f i nafxcwd:afxinl2.obj
 0002:000f8a20       ??4ImageList_GetDragImage_Type@CComCtlWrapper@@QAEXP6GPAU_IMAGELIST@@PAUtagPOINT@@0@Z@Z 007a2a20 f i nafxcwd:afxinl2.obj
 0002:000f8a40       ??7ImageList_GetDragImage_Type@CComCtlWrapper@@QBE_NXZ 007a2a40 f i nafxcwd:afxinl2.obj
 0002:000f8a60       ?AfxImageList_GetImageInfo@@YGHPAU_IMAGELIST@@HPAU_IMAGEINFO@@@Z 007a2a60 f i nafxcwd:afxinl2.obj
 0002:000f8a90       ?_ImageList_GetImageInfo@CComCtlWrapper@@QAEHPAU_IMAGELIST@@HPAU_IMAGEINFO@@@Z 007a2a90 f i nafxcwd:afxinl2.obj
 0002:000f8c30       ??BImageList_GetImageInfo_Type@CComCtlWrapper@@QAEP6GHPAU_IMAGELIST@@HPAU_IMAGEINFO@@@ZXZ 007a2c30 f i nafxcwd:afxinl2.obj
 0002:000f8c50       ?GetProcAddress_ImageList_GetImageInfo@CComCtlWrapper@@QAE?AUImageList_GetImageInfo_Type@1@XZ 007a2c50 f i nafxcwd:afxinl2.obj
 0002:000f8cc0       ??4ImageList_GetImageInfo_Type@CComCtlWrapper@@QAEXP6GHPAU_IMAGELIST@@HPAU_IMAGEINFO@@@Z@Z 007a2cc0 f i nafxcwd:afxinl2.obj
 0002:000f8ce0       ??7ImageList_GetImageInfo_Type@CComCtlWrapper@@QBE_NXZ 007a2ce0 f i nafxcwd:afxinl2.obj
 0002:000f8d00       ?AfxCreateMappedBitmap@@YGPAUHBITMAP__@@PAUHINSTANCE__@@HIPAU_COLORMAP@@H@Z 007a2d00 f i nafxcwd:afxinl2.obj
 0002:000f8d40       ?_CreateMappedBitmap@CComCtlWrapper@@QAEPAUHBITMAP__@@PAUHINSTANCE__@@HIPAU_COLORMAP@@H@Z 007a2d40 f i nafxcwd:afxinl2.obj
 0002:000f8ee0       ??BCreateMappedBitmap_Type@CComCtlWrapper@@QAEP6GPAUHBITMAP__@@PAUHINSTANCE__@@HIPAU_COLORMAP@@H@ZXZ 007a2ee0 f i nafxcwd:afxinl2.obj
 0002:000f8f00       ?GetProcAddress_CreateMappedBitmap@CComCtlWrapper@@QAE?AUCreateMappedBitmap_Type@1@XZ 007a2f00 f i nafxcwd:afxinl2.obj
 0002:000f8f70       ??4CreateMappedBitmap_Type@CComCtlWrapper@@QAEXP6GPAUHBITMAP__@@PAUHINSTANCE__@@HIPAU_COLORMAP@@H@Z@Z 007a2f70 f i nafxcwd:afxinl2.obj
 0002:000f8f90       ??7CreateMappedBitmap_Type@CComCtlWrapper@@QBE_NXZ 007a2f90 f i nafxcwd:afxinl2.obj
 0002:000f8fb0       ??0CDialogImpl@@IAE@AAVCWnd@@@Z 007a2fb0 f   nafxcwd:afxdialogimpl.obj
 0002:000f8fe0       ??_ECDialogImpl@@MAEPAXI@Z 007a2fe0 f i nafxcwd:afxdialogimpl.obj
 0002:000f8fe0       ??_GCDialogImpl@@MAEPAXI@Z 007a2fe0 f i nafxcwd:afxdialogimpl.obj
 0002:000f9020       ??1CDialogImpl@@MAE@XZ     007a3020 f   nafxcwd:afxdialogimpl.obj
 0002:000f9040       ?ProcessMouseClick@CDialogImpl@@IAEHUtagPOINT@@@Z 007a3040 f   nafxcwd:afxdialogimpl.obj
 0002:000f9360       ?Rect@CMFCToolBarButton@@QBEABVCRect@@XZ 007a3360 f i nafxcwd:afxdialogimpl.obj
 0002:000f9380       ?GetParentWnd@CMFCToolBarButton@@QBEPAVCWnd@@XZ 007a3380 f i nafxcwd:afxdialogimpl.obj
 0002:000f93a0       ?IsCustomizeMode@CMFCToolBar@@SGHXZ 007a33a0 f i nafxcwd:afxdialogimpl.obj
 0002:000f93b0       ?GetParentButton@CMFCPopupMenu@@QBEPAVCMFCToolBarMenuButton@@XZ 007a33b0 f i nafxcwd:afxdialogimpl.obj
 0002:000f93d0       ?ProcessMouseMove@CDialogImpl@@IAEHUtagPOINT@@@Z 007a33d0 f   nafxcwd:afxdialogimpl.obj
 0002:000f94a0       ?PreTranslateMessage@CDialogImpl@@IAEHPAUtagMSG@@@Z 007a34a0 f   nafxcwd:afxdialogimpl.obj
 0002:000f9950       ?IsScrollable@CMFCPopupMenu@@QBEHXZ 007a3950 f i nafxcwd:afxdialogimpl.obj
 0002:000f9970       ?DialogMouseHookProc@CDialogImpl@@KGJHIJ@Z 007a3970 f   nafxcwd:afxdialogimpl.obj
 0002:000f9ae0       ?SetActiveMenu@CDialogImpl@@IAEXPAVCMFCPopupMenu@@@Z 007a3ae0 f   nafxcwd:afxdialogimpl.obj
 0002:000f9b80       ?OnDestroy@CDialogImpl@@IAEXXZ 007a3b80 f   nafxcwd:afxdialogimpl.obj
 0002:000f9bd0       ?OnCommand@CDialogImpl@@IAEHIJ@Z 007a3bd0 f   nafxcwd:afxdialogimpl.obj
 0002:000f9c90       ?OnNcActivate@CDialogImpl@@IAEXAAH@Z 007a3c90 f   nafxcwd:afxdialogimpl.obj
 0002:000f9ce0       ?OnActivate@CDialogImpl@@IAEXIPAVCWnd@@@Z 007a3ce0 f   nafxcwd:afxdialogimpl.obj
 0002:000f9dd0       ?Create@CStatic@@UAEHPBDKABUtagRECT@@PAVCWnd@@I@Z 007a3dd0 f   nafxcwd:winctrl1.obj
 0002:000f9e20       ??1CStatic@@UAE@XZ         007a3e20 f   nafxcwd:winctrl1.obj
 0002:000f9ea0       ?DrawItem@CStatic@@UAEXPAUtagDRAWITEMSTRUCT@@@Z 007a3ea0 f   nafxcwd:winctrl1.obj
 0002:000f9ed0       ?OnChildNotify@CStatic@@MAEHIIJPAJ@Z 007a3ed0 f   nafxcwd:winctrl1.obj
 0002:000f9f50       ?Create@CButton@@UAEHPBDKABUtagRECT@@PAVCWnd@@I@Z 007a3f50 f   nafxcwd:winctrl1.obj
 0002:000f9fa0       ??1CButton@@UAE@XZ         007a3fa0 f   nafxcwd:winctrl1.obj
 0002:000fa020       ?GetCheckedRadioButton@CWnd@@QBEHHH@Z 007a4020 f   nafxcwd:winctrl1.obj
 0002:000fa080       ?DrawItem@CButton@@UAEXPAUtagDRAWITEMSTRUCT@@@Z 007a4080 f   nafxcwd:winctrl1.obj
 0002:000fa0b0       ?OnChildNotify@CButton@@MAEHIIJPAJ@Z 007a40b0 f   nafxcwd:winctrl1.obj
 0002:000fa130       ?Create@CListBox@@UAEHKABUtagRECT@@PAVCWnd@@I@Z 007a4130 f   nafxcwd:winctrl1.obj
 0002:000fa180       ??1CListBox@@UAE@XZ        007a4180 f   nafxcwd:winctrl1.obj
 0002:000fa200       ?DrawItem@CListBox@@UAEXPAUtagDRAWITEMSTRUCT@@@Z 007a4200 f   nafxcwd:winctrl1.obj
 0002:000fa230       ?MeasureItem@CListBox@@UAEXPAUtagMEASUREITEMSTRUCT@@@Z 007a4230 f   nafxcwd:winctrl1.obj
 0002:000fa260       ?CompareItem@CListBox@@UAEHPAUtagCOMPAREITEMSTRUCT@@@Z 007a4260 f   nafxcwd:winctrl1.obj
 0002:000fa2a0       ?DeleteItem@CListBox@@UAEXPAUtagDELETEITEMSTRUCT@@@Z 007a42a0 f   nafxcwd:winctrl1.obj
 0002:000fa2c0       ?VKeyToItem@CListBox@@UAEHII@Z 007a42c0 f   nafxcwd:winctrl1.obj
 0002:000fa2e0       ?CharToItem@CListBox@@UAEHII@Z 007a42e0 f   nafxcwd:winctrl1.obj
 0002:000fa300       ?OnChildNotify@CListBox@@MAEHIIJPAJ@Z 007a4300 f   nafxcwd:winctrl1.obj
 0002:000fa530       ?GetText@CListBox@@QBEXHAAV?$CStringT@DV?$StrTraitMFC@DV?$ChTraitsCRT@D@ATL@@@@@ATL@@@Z 007a4530 f   nafxcwd:winctrl1.obj
 0002:000fa5b0       ?ItemFromPoint@CListBox@@QBEIVCPoint@@AAH@Z 007a45b0 f   nafxcwd:winctrl1.obj
 0002:000fa670       ?Create@CComboBox@@UAEHKABUtagRECT@@PAVCWnd@@I@Z 007a4670 f   nafxcwd:winctrl1.obj
 0002:000fa6c0       ??1CComboBox@@UAE@XZ       007a46c0 f   nafxcwd:winctrl1.obj
 0002:000fa740       ?DrawItem@CComboBox@@UAEXPAUtagDRAWITEMSTRUCT@@@Z 007a4740 f   nafxcwd:winctrl1.obj
 0002:000fa770       ?MeasureItem@CComboBox@@UAEXPAUtagMEASUREITEMSTRUCT@@@Z 007a4770 f   nafxcwd:winctrl1.obj
 0002:000fa7a0       ?CompareItem@CComboBox@@UAEHPAUtagCOMPAREITEMSTRUCT@@@Z 007a47a0 f   nafxcwd:winctrl1.obj
 0002:000fa7e0       ?DeleteItem@CComboBox@@UAEXPAUtagDELETEITEMSTRUCT@@@Z 007a47e0 f   nafxcwd:winctrl1.obj
 0002:000fa800       ?OnChildNotify@CComboBox@@MAEHIIJPAJ@Z 007a4800 f   nafxcwd:winctrl1.obj
 0002:000fa9a0       ?GetLBText@CComboBox@@QBEXHAAV?$CStringT@DV?$StrTraitMFC@DV?$ChTraitsCRT@D@ATL@@@@@ATL@@@Z 007a49a0 f   nafxcwd:winctrl1.obj
 0002:000faa20       ?Create@CEdit@@QAEHKABUtagRECT@@PAVCWnd@@I@Z 007a4a20 f   nafxcwd:winctrl1.obj
 0002:000faa70       ??1CEdit@@UAE@XZ           007a4a70 f   nafxcwd:winctrl1.obj
 0002:000faaf0       ?Create@CScrollBar@@UAEHKABUtagRECT@@PAVCWnd@@I@Z 007a4af0 f   nafxcwd:winctrl1.obj
 0002:000fab40       ??1CScrollBar@@UAE@XZ      007a4b40 f   nafxcwd:winctrl1.obj
 0002:000fabc0       ?GetRuntimeClass@CStatic@@UBEPAUCRuntimeClass@@XZ 007a4bc0 f   nafxcwd:winctrl1.obj
 0002:000fabe0       ?GetRuntimeClass@CButton@@UBEPAUCRuntimeClass@@XZ 007a4be0 f   nafxcwd:winctrl1.obj
 0002:000fac00       ?GetRuntimeClass@CListBox@@UBEPAUCRuntimeClass@@XZ 007a4c00 f   nafxcwd:winctrl1.obj
 0002:000fac20       ?GetRuntimeClass@CComboBox@@UBEPAUCRuntimeClass@@XZ 007a4c20 f   nafxcwd:winctrl1.obj
 0002:000fac40       ?GetRuntimeClass@CEdit@@UBEPAUCRuntimeClass@@XZ 007a4c40 f   nafxcwd:winctrl1.obj
 0002:000fac60       ?GetRuntimeClass@CScrollBar@@UBEPAUCRuntimeClass@@XZ 007a4c60 f   nafxcwd:winctrl1.obj
 0002:000fac80       ?PrepareEditCtrl@CDataExchange@@QAEPAUHWND__@@H@Z 007a4c80 f   nafxcwd:dlgdata.obj
 0002:000facc0       ?PrepareCtrl@CDataExchange@@QAEPAUHWND__@@H@Z 007a4cc0 f   nafxcwd:dlgdata.obj
 0002:000fadd0       ?Fail@CDataExchange@@QAEXXZ 007a4dd0 f   nafxcwd:dlgdata.obj
 0002:000faec0       ?_Afx_DDX_TextWithFormat@@YAXPAVCDataExchange@@HPBDIZZ 007a4ec0 f   nafxcwd:dlgdata.obj
 0002:000fb020       ?DDX_Text@@YGXPAVCDataExchange@@HAAE@Z 007a5020 f   nafxcwd:dlgdata.obj
 0002:000fb0d0       ?DDX_Text@@YGXPAVCDataExchange@@HAAF@Z 007a50d0 f   nafxcwd:dlgdata.obj
 0002:000fb140       ?DDX_Text@@YGXPAVCDataExchange@@HAAH@Z 007a5140 f   nafxcwd:dlgdata.obj
 0002:000fb1b0       ?DDX_Text@@YGXPAVCDataExchange@@HAAI@Z 007a51b0 f   nafxcwd:dlgdata.obj
 0002:000fb220       ?DDX_Text@@YGXPAVCDataExchange@@HAAJ@Z 007a5220 f   nafxcwd:dlgdata.obj
 0002:000fb290       ?DDX_Text@@YGXPAVCDataExchange@@HAAK@Z 007a5290 f   nafxcwd:dlgdata.obj
 0002:000fb300       ?DDX_Text@@YGXPAVCDataExchange@@HAA_J@Z 007a5300 f   nafxcwd:dlgdata.obj
 0002:000fb370       ?DDX_Text@@YGXPAVCDataExchange@@HAA_K@Z 007a5370 f   nafxcwd:dlgdata.obj
 0002:000fb3e0       ?DDX_Text@@YGXPAVCDataExchange@@HAAV?$CStringT@DV?$StrTraitMFC@DV?$ChTraitsCRT@D@ATL@@@@@ATL@@@Z 007a53e0 f   nafxcwd:dlgdata.obj
 0002:000fb470       ?DDX_Text@@YGXPAVCDataExchange@@HPADH@Z 007a5470 f   nafxcwd:dlgdata.obj
 0002:000fb550       ?DDX_Check@@YGXPAVCDataExchange@@HAAH@Z 007a5550 f   nafxcwd:dlgdata.obj
 0002:000fb660       ?DDX_Radio@@YGXPAVCDataExchange@@HAAH@Z 007a5660 f   nafxcwd:dlgdata.obj
 0002:000fb840       ?DDX_LBString@@YGXPAVCDataExchange@@HAAV?$CStringT@DV?$StrTraitMFC@DV?$ChTraitsCRT@D@ATL@@@@@ATL@@@Z 007a5840 f   nafxcwd:dlgdata.obj
 0002:000fb970       ?DDX_LBStringExact@@YGXPAVCDataExchange@@HAAV?$CStringT@DV?$StrTraitMFC@DV?$ChTraitsCRT@D@ATL@@@@@ATL@@@Z 007a5970 f   nafxcwd:dlgdata.obj
 0002:000fba50       ?DDX_CBString@@YGXPAVCDataExchange@@HAAV?$CStringT@DV?$StrTraitMFC@DV?$ChTraitsCRT@D@ATL@@@@@ATL@@@Z 007a5a50 f   nafxcwd:dlgdata.obj
 0002:000fbb70       ?DDX_CBStringExact@@YGXPAVCDataExchange@@HAAV?$CStringT@DV?$StrTraitMFC@DV?$ChTraitsCRT@D@ATL@@@@@ATL@@@Z 007a5b70 f   nafxcwd:dlgdata.obj
 0002:000fbc60       ?DDX_LBIndex@@YGXPAVCDataExchange@@HAAH@Z 007a5c60 f   nafxcwd:dlgdata.obj
 0002:000fbce0       ?DDX_CBIndex@@YGXPAVCDataExchange@@HAAH@Z 007a5ce0 f   nafxcwd:dlgdata.obj
 0002:000fbd60       ?DDX_Scroll@@YGXPAVCDataExchange@@HAAH@Z 007a5d60 f   nafxcwd:dlgdata.obj
 0002:000fbdd0       ?DDX_Slider@@YGXPAVCDataExchange@@HAAH@Z 007a5dd0 f   nafxcwd:dlgdata.obj
 0002:000fbe50       ?DDX_IPAddress@@YGXPAVCDataExchange@@HAAK@Z 007a5e50 f   nafxcwd:dlgdata.obj
 0002:000fbed0       ?_AfxFailMinMaxWithFormat@@YGXPAVCDataExchange@@_J1PBDI@Z 007a5ed0 f   nafxcwd:dlgdata.obj
 0002:000fc120       ?DDV_MinMaxByte@@YGXPAVCDataExchange@@EEE@Z 007a6120 f   nafxcwd:dlgdata.obj
 0002:000fc1a0       ?DDV_MinMaxShort@@YGXPAVCDataExchange@@FFF@Z 007a61a0 f   nafxcwd:dlgdata.obj
 0002:000fc220       ?DDV_MinMaxInt@@YGXPAVCDataExchange@@HHH@Z 007a6220 f   nafxcwd:dlgdata.obj
 0002:000fc290       ?DDV_MinMaxLong@@YGXPAVCDataExchange@@JJJ@Z 007a6290 f   nafxcwd:dlgdata.obj
 0002:000fc300       ?DDV_MinMaxUInt@@YGXPAVCDataExchange@@III@Z 007a6300 f   nafxcwd:dlgdata.obj
 0002:000fc370       ?DDV_MinMaxDWord@@YGXPAVCDataExchange@@KKK@Z 007a6370 f   nafxcwd:dlgdata.obj
 0002:000fc3e0       ?DDV_MinMaxLongLong@@YGXPAVCDataExchange@@_J11@Z 007a63e0 f   nafxcwd:dlgdata.obj
 0002:000fc480       ?DDV_MinMaxULongLong@@YGXPAVCDataExchange@@_K11@Z 007a6480 f   nafxcwd:dlgdata.obj
 0002:000fc520       ?DDV_MinMaxSlider@@YGXPAVCDataExchange@@KKK@Z 007a6520 f   nafxcwd:dlgdata.obj
 0002:000fc610       ?DDV_MaxChars@@YGXPAVCDataExchange@@ABV?$CStringT@DV?$StrTraitMFC@DV?$ChTraitsCRT@D@ATL@@@@@ATL@@H@Z 007a6610 f   nafxcwd:dlgdata.obj
 0002:000fc7a0       ?DDX_Control@@YGXPAVCDataExchange@@HAAVCWnd@@@Z 007a67a0 f   nafxcwd:dlgdata.obj
 0002:000fc920       ?AfxFailMaxChars@@YGXPAVCDataExchange@@H@Z 007a6920 f   nafxcwd:dlgdata.obj
 0002:000fca00       ?AfxFailRadio@@YGXPAVCDataExchange@@@Z 007a6a00 f   nafxcwd:dlgdata.obj
 0002:000fcab0       ?GetMFCControlContainer@CWnd@@QBEPAVCMFCControlContainer@@XZ 007a6ab0 f i nafxcwd:dlgdata.obj
 0002:000fcad0       ?AfxAssertFailedLine@@YGHPBDH@Z 007a6ad0 f   nafxcwd:afxasert.obj
 0002:000fcb40       ??6@YGAAVCDumpContext@@AAV0@UtagSIZE@@@Z 007a6b40 f   nafxcwd:wingdi.obj
 0002:000fcba0       ??6@YGAAVCDumpContext@@AAV0@UtagPOINT@@@Z 007a6ba0 f   nafxcwd:wingdi.obj
 0002:000fcc00       ??6@YGAAVCDumpContext@@AAV0@ABUtagRECT@@@Z 007a6c00 f   nafxcwd:wingdi.obj
 0002:000fcca0       ??0CDC@@QAE@XZ             007a6ca0 f   nafxcwd:wingdi.obj
 0002:000fccf0       ??_ECDC@@UAEPAXI@Z         007a6cf0 f i nafxcwd:wingdi.obj
 0002:000fccf0       ??_GCDC@@UAEPAXI@Z         007a6cf0 f i nafxcwd:wingdi.obj
 0002:000fcd30       ?AssertValid@CDC@@UBEXXZ   007a6d30 f   nafxcwd:wingdi.obj
 0002:000fcd50       ?Dump@CDC@@UBEXAAVCDumpContext@@@Z 007a6d50 f   nafxcwd:wingdi.obj
 0002:000fcdf0       ?afxMapHDC@@YGPAVCHandleMap@@H@Z 007a6df0 f   nafxcwd:wingdi.obj
 0002:000fcf10       ?FromHandle@CDC@@SGPAV1@PAUHDC__@@@Z 007a6f10 f   nafxcwd:wingdi.obj
 0002:000fcf90       ?Attach@CDC@@QAEHPAUHDC__@@@Z 007a6f90 f   nafxcwd:wingdi.obj
 0002:000fd060       ?Detach@CDC@@QAEPAUHDC__@@XZ 007a7060 f   nafxcwd:wingdi.obj
 0002:000fd0d0       ?DeleteDC@CDC@@QAEHXZ      007a70d0 f   nafxcwd:wingdi.obj
 0002:000fd110       ??1CDC@@UAE@XZ             007a7110 f   nafxcwd:wingdi.obj
 0002:000fd1a0       ?SetAttribDC@CDC@@UAEXPAUHDC__@@@Z 007a71a0 f   nafxcwd:wingdi.obj
 0002:000fd1c0       ?SetOutputDC@CDC@@UAEXPAUHDC__@@@Z 007a71c0 f   nafxcwd:wingdi.obj
 0002:000fd270       ?ReleaseAttribDC@CDC@@UAEXXZ 007a7270 f   nafxcwd:wingdi.obj
 0002:000fd290       ?ReleaseOutputDC@CDC@@UAEXXZ 007a7290 f   nafxcwd:wingdi.obj
 0002:000fd340       ?StartDocA@CDC@@QAEHPBD@Z  007a7340 f   nafxcwd:wingdi.obj
 0002:000fd390       ?SaveDC@CDC@@UAEHXZ        007a7390 f   nafxcwd:wingdi.obj
 0002:000fd430       ?RestoreDC@CDC@@UAEHH@Z    007a7430 f   nafxcwd:wingdi.obj
 0002:000fd520       ?SelectGdiObject@CDC@@KGPAVCGdiObject@@PAUHDC__@@PAX@Z 007a7520 f   nafxcwd:wingdi.obj
 0002:000fd550       ?SelectStockObject@CDC@@UAEPAVCGdiObject@@H@Z 007a7550 f   nafxcwd:wingdi.obj
 0002:000fd620       ?SelectObject@CDC@@QAEPAVCPen@@PAV2@@Z 007a7620 f   nafxcwd:wingdi.obj
 0002:000fd6d0       ?SelectObject@CDC@@QAEPAVCBrush@@PAV2@@Z 007a76d0 f   nafxcwd:wingdi.obj
 0002:000fd780       ?SelectObject@CDC@@UAEPAVCFont@@PAV2@@Z 007a7780 f   nafxcwd:wingdi.obj
 0002:000fd830       ?SelectObject@CDC@@QAEHPAVCRgn@@@Z 007a7830 f   nafxcwd:wingdi.obj
 0002:000fd8e0       ?SelectPalette@CDC@@QAEPAVCPalette@@PAV2@H@Z 007a78e0 f   nafxcwd:wingdi.obj
 0002:000fd940       ?SetBkColor@CDC@@UAEKK@Z   007a7940 f   nafxcwd:wingdi.obj
 0002:000fd9e0       ?SetBkMode@CDC@@QAEHH@Z    007a79e0 f   nafxcwd:wingdi.obj
 0002:000fda80       ?SetPolyFillMode@CDC@@QAEHH@Z 007a7a80 f   nafxcwd:wingdi.obj
 0002:000fdb20       ?SetROP2@CDC@@QAEHH@Z      007a7b20 f   nafxcwd:wingdi.obj
 0002:000fdbc0       ?SetStretchBltMode@CDC@@QAEHH@Z 007a7bc0 f   nafxcwd:wingdi.obj
 0002:000fdc60       ?SetTextColor@CDC@@UAEKK@Z 007a7c60 f   nafxcwd:wingdi.obj
 0002:000fdd00       ?SetGraphicsMode@CDC@@QAEHH@Z 007a7d00 f   nafxcwd:wingdi.obj
 0002:000fdda0       ?SetWorldTransform@CDC@@QAEHPBUtagXFORM@@@Z 007a7da0 f   nafxcwd:wingdi.obj
 0002:000fde40       ?ModifyWorldTransform@CDC@@QAEHPBUtagXFORM@@K@Z 007a7e40 f   nafxcwd:wingdi.obj
 0002:000fdee0       ?SetMapMode@CDC@@UAEHH@Z   007a7ee0 f   nafxcwd:wingdi.obj
 0002:000fdf80       ?SetViewportOrg@CDC@@UAE?AVCPoint@@HH@Z 007a7f80 f   nafxcwd:wingdi.obj
 0002:000fe070       ?OffsetViewportOrg@CDC@@UAE?AVCPoint@@HH@Z 007a8070 f   nafxcwd:wingdi.obj
 0002:000fe160       ?SetViewportExt@CDC@@UAE?AVCSize@@HH@Z 007a8160 f   nafxcwd:wingdi.obj
 0002:000fe250       ?ScaleViewportExt@CDC@@UAE?AVCSize@@HHHH@Z 007a8250 f   nafxcwd:wingdi.obj
 0002:000fe360       ?SetWindowOrg@CDC@@QAE?AVCPoint@@HH@Z 007a8360 f   nafxcwd:wingdi.obj
 0002:000fe450       ?OffsetWindowOrg@CDC@@QAE?AVCPoint@@HH@Z 007a8450 f   nafxcwd:wingdi.obj
 0002:000fe540       ?SetWindowExt@CDC@@UAE?AVCSize@@HH@Z 007a8540 f   nafxcwd:wingdi.obj
 0002:000fe630       ?ScaleWindowExt@CDC@@UAE?AVCSize@@HHHH@Z 007a8630 f   nafxcwd:wingdi.obj
 0002:000fe740       ?GetClipBox@CDC@@UBEHPAUtagRECT@@@Z 007a8740 f   nafxcwd:wingdi.obj
 0002:000fe790       ?SelectClipRgn@CDC@@QAEHPAVCRgn@@@Z 007a8790 f   nafxcwd:wingdi.obj
 0002:000fe840       ?ExcludeClipRect@CDC@@QAEHHHHH@Z 007a8840 f   nafxcwd:wingdi.obj
 0002:000fe900       ?ExcludeClipRect@CDC@@QAEHPBUtagRECT@@@Z 007a8900 f   nafxcwd:wingdi.obj
 0002:000fe9d0       ?IntersectClipRect@CDC@@QAEHHHHH@Z 007a89d0 f   nafxcwd:wingdi.obj
 0002:000fea90       ?IntersectClipRect@CDC@@QAEHPBUtagRECT@@@Z 007a8a90 f   nafxcwd:wingdi.obj
 0002:000feb60       ?OffsetClipRgn@CDC@@QAEHHH@Z 007a8b60 f   nafxcwd:wingdi.obj
 0002:000fec00       ?OffsetClipRgn@CDC@@QAEHUtagSIZE@@@Z 007a8c00 f   nafxcwd:wingdi.obj
 0002:000feca0       ?MoveTo@CDC@@QAE?AVCPoint@@HH@Z 007a8ca0 f   nafxcwd:wingdi.obj
 0002:000fed90       ?LineTo@CDC@@QAEHHH@Z      007a8d90 f   nafxcwd:wingdi.obj
 0002:000fee20       ?SetTextAlign@CDC@@QAEII@Z 007a8e20 f   nafxcwd:wingdi.obj
 0002:000feec0       ?SetTextJustification@CDC@@QAEHHH@Z 007a8ec0 f   nafxcwd:wingdi.obj
 0002:000fef60       ?SetTextCharacterExtra@CDC@@QAEHH@Z 007a8f60 f   nafxcwd:wingdi.obj
 0002:000ff000       ?SetMapperFlags@CDC@@QAEKK@Z 007a9000 f   nafxcwd:wingdi.obj
 0002:000ff0a0       ?GetLayout@CDC@@QBEKXZ     007a90a0 f   nafxcwd:wingdi.obj
 0002:000ff0f0       ?SetLayout@CDC@@QAEKK@Z    007a90f0 f   nafxcwd:wingdi.obj
 0002:000ff150       ?ScreenToClient@CWnd@@QBEXPAUtagRECT@@@Z 007a9150 f   nafxcwd:wingdi.obj
 0002:000ff1e0       ?ClientToScreen@CWnd@@QBEXPAUtagRECT@@@Z 007a91e0 f   nafxcwd:wingdi.obj
 0002:000ff270       ?ArcTo@CDC@@QAEHHHHHHHHH@Z 007a9270 f   nafxcwd:wingdi.obj
 0002:000ff380       ?SetArcDirection@CDC@@QAEHH@Z 007a9380 f   nafxcwd:wingdi.obj
 0002:000ff420       ?PolyDraw@CDC@@QAEHPBUtagPOINT@@PBEH@Z 007a9420 f   nafxcwd:wingdi.obj
 0002:000ff510       ?PolylineTo@CDC@@QAEHPBUtagPOINT@@H@Z 007a9510 f   nafxcwd:wingdi.obj
 0002:000ff600       ?SetColorAdjustment@CDC@@QAEHPBUtagCOLORADJUSTMENT@@@Z 007a9600 f   nafxcwd:wingdi.obj
 0002:000ff6a0       ?PolyBezierTo@CDC@@QAEHPBUtagPOINT@@H@Z 007a96a0 f   nafxcwd:wingdi.obj
 0002:000ff790       ?SelectClipPath@CDC@@QAEHH@Z 007a9790 f   nafxcwd:wingdi.obj
 0002:000ff8b0       ?SelectClipRgn@CDC@@QAEHPAVCRgn@@H@Z 007a98b0 f   nafxcwd:wingdi.obj
 0002:000ff960       ?AfxEnumMetaFileProc@@YGHPAUHDC__@@PAUtagHANDLETABLE@@PAUtagMETARECORD@@HJ@Z 007a9960 f   nafxcwd:wingdi.obj
 0002:000ffdb0       ?PlayMetaFile@CDC@@QAEHPAUHMETAFILE__@@@Z 007a9db0 f   nafxcwd:wingdi.obj
 0002:000ffe20       ?LPtoDP@CDC@@QBEXPAUtagSIZE@@@Z 007a9e20 f   nafxcwd:wingdi.obj
 0002:000ffef0       ?abs@@YAJJ@Z               007a9ef0 f i nafxcwd:wingdi.obj
 0002:000fff10       ?DPtoLP@CDC@@QBEXPAUtagSIZE@@@Z 007a9f10 f   nafxcwd:wingdi.obj
 0002:000fffe0       ?AssertValid@CClientDC@@UBEXXZ 007a9fe0 f   nafxcwd:wingdi.obj
 0002:00100040       ?Dump@CClientDC@@UBEXAAVCDumpContext@@@Z 007aa040 f   nafxcwd:wingdi.obj
 0002:001000a0       ??0CClientDC@@QAE@PAVCWnd@@@Z 007aa0a0 f   nafxcwd:wingdi.obj
 0002:00100190       ??_GCClientDC@@UAEPAXI@Z   007aa190 f i nafxcwd:wingdi.obj
 0002:00100190       ??_ECClientDC@@UAEPAXI@Z   007aa190 f i nafxcwd:wingdi.obj
 0002:001001d0       ??1CClientDC@@UAE@XZ       007aa1d0 f   nafxcwd:wingdi.obj
 0002:00100280       ?AssertValid@CWindowDC@@UBEXXZ 007aa280 f   nafxcwd:wingdi.obj
 0002:001002e0       ?Dump@CWindowDC@@UBEXAAVCDumpContext@@@Z 007aa2e0 f   nafxcwd:wingdi.obj
 0002:00100340       ??0CWindowDC@@QAE@PAVCWnd@@@Z 007aa340 f   nafxcwd:wingdi.obj
 0002:00100430       ??_GCWindowDC@@UAEPAXI@Z   007aa430 f i nafxcwd:wingdi.obj
 0002:00100430       ??_ECWindowDC@@UAEPAXI@Z   007aa430 f i nafxcwd:wingdi.obj
 0002:00100470       ??1CWindowDC@@UAE@XZ       007aa470 f   nafxcwd:wingdi.obj
 0002:00100520       ?AssertValid@CPaintDC@@UBEXXZ 007aa520 f   nafxcwd:wingdi.obj
 0002:00100570       ?Dump@CPaintDC@@UBEXAAVCDumpContext@@@Z 007aa570 f   nafxcwd:wingdi.obj
 0002:00100650       ??0CPaintDC@@QAE@PAVCWnd@@@Z 007aa650 f   nafxcwd:wingdi.obj
 0002:00100750       ??_ECPaintDC@@UAEPAXI@Z    007aa750 f i nafxcwd:wingdi.obj
 0002:00100750       ??_GCPaintDC@@UAEPAXI@Z    007aa750 f i nafxcwd:wingdi.obj
 0002:00100790       ??1CPaintDC@@UAE@XZ        007aa790 f   nafxcwd:wingdi.obj
 0002:00100880       ?Dump@CGdiObject@@UBEXAAVCDumpContext@@@Z 007aa880 f   nafxcwd:wingdi.obj
 0002:001008e0       ?AssertValid@CGdiObject@@UBEXXZ 007aa8e0 f   nafxcwd:wingdi.obj
 0002:00100940       ?afxMapHGDIOBJ@@YGPAVCHandleMap@@H@Z 007aa940 f   nafxcwd:wingdi.obj
 0002:00100a60       ?FromHandle@CGdiObject@@SGPAV1@PAX@Z 007aaa60 f   nafxcwd:wingdi.obj
 0002:00100af0       ?Attach@CGdiObject@@QAEHPAX@Z 007aaaf0 f   nafxcwd:wingdi.obj
 0002:00100b90       ?Detach@CGdiObject@@QAEPAXXZ 007aab90 f   nafxcwd:wingdi.obj
 0002:00100bf0       ?DeleteObject@CGdiObject@@QAEHXZ 007aabf0 f   nafxcwd:wingdi.obj
 0002:00100c30       ??0CPen@@QAE@HHK@Z         007aac30 f   nafxcwd:wingdi.obj
 0002:00100cd0       ??0CPen@@QAE@HHPBUtagLOGBRUSH@@HPBK@Z 007aacd0 f   nafxcwd:wingdi.obj
 0002:00100d80       ?Dump@CPen@@UBEXAAVCDumpContext@@@Z 007aad80 f   nafxcwd:wingdi.obj
 0002:00100ea0       ??0CBrush@@QAE@K@Z         007aaea0 f   nafxcwd:wingdi.obj
 0002:00100f40       ??0CBrush@@QAE@HK@Z        007aaf40 f   nafxcwd:wingdi.obj
 0002:00100fe0       ??0CBrush@@QAE@PAVCBitmap@@@Z 007aafe0 f   nafxcwd:wingdi.obj
 0002:00101090       ?CreateDIBPatternBrush@CBrush@@QAEHPAXI@Z 007ab090 f   nafxcwd:wingdi.obj
 0002:00101130       ?Dump@CBrush@@UBEXAAVCDumpContext@@@Z 007ab130 f   nafxcwd:wingdi.obj
 0002:00101250       ?Dump@CFont@@UBEXAAVCDumpContext@@@Z 007ab250 f   nafxcwd:wingdi.obj
 0002:001014c0       ?Dump@CBitmap@@UBEXAAVCDumpContext@@@Z 007ab4c0 f   nafxcwd:wingdi.obj
 0002:00101620       ?GetRuntimeClass@CResourceException@@UBEPAUCRuntimeClass@@XZ 007ab620 f   nafxcwd:wingdi.obj
 0002:00101640       ?GetRuntimeClass@CUserException@@UBEPAUCRuntimeClass@@XZ 007ab640 f   nafxcwd:wingdi.obj
 0002:00101660       ?CreateObject@CDC@@SGPAVCObject@@XZ 007ab660 f   nafxcwd:wingdi.obj
 0002:001016f0       ?GetRuntimeClass@CDC@@UBEPAUCRuntimeClass@@XZ 007ab6f0 f   nafxcwd:wingdi.obj
 0002:00101710       ?GetRuntimeClass@CClientDC@@UBEPAUCRuntimeClass@@XZ 007ab710 f   nafxcwd:wingdi.obj
 0002:00101730       ?GetRuntimeClass@CWindowDC@@UBEPAUCRuntimeClass@@XZ 007ab730 f   nafxcwd:wingdi.obj
 0002:00101750       ?GetRuntimeClass@CPaintDC@@UBEPAUCRuntimeClass@@XZ 007ab750 f   nafxcwd:wingdi.obj
 0002:00101770       ?CreateObject@CGdiObject@@SGPAVCObject@@XZ 007ab770 f   nafxcwd:wingdi.obj
 0002:00101800       ?GetRuntimeClass@CGdiObject@@UBEPAUCRuntimeClass@@XZ 007ab800 f   nafxcwd:wingdi.obj
 0002:00101820       ?GetRuntimeClass@CPen@@UBEPAUCRuntimeClass@@XZ 007ab820 f   nafxcwd:wingdi.obj
 0002:00101840       ?GetRuntimeClass@CBrush@@UBEPAUCRuntimeClass@@XZ 007ab840 f   nafxcwd:wingdi.obj
 0002:00101860       ?GetRuntimeClass@CFont@@UBEPAUCRuntimeClass@@XZ 007ab860 f   nafxcwd:wingdi.obj
 0002:00101880       ?GetRuntimeClass@CBitmap@@UBEPAUCRuntimeClass@@XZ 007ab880 f   nafxcwd:wingdi.obj
 0002:001018a0       ?GetRuntimeClass@CPalette@@UBEPAUCRuntimeClass@@XZ 007ab8a0 f   nafxcwd:wingdi.obj
 0002:001018c0       ?GetRuntimeClass@CRgn@@UBEPAUCRuntimeClass@@XZ 007ab8c0 f   nafxcwd:wingdi.obj
 0002:001018e0       ?AfxThrowResourceException@@YGXXZ 007ab8e0 f   nafxcwd:wingdi.obj
 0002:00101910       ?AfxThrowUserException@@YGXXZ 007ab910 f   nafxcwd:wingdi.obj
 0002:00101940       ?AfxGetGrayBitmap@@YGXABVCBitmap@@PAV1@K@Z 007ab940 f   nafxcwd:wingdi.obj
 0002:00101d60       ?AfxDrawGrayBitmap@@YGXPAVCDC@@HHABVCBitmap@@K@Z 007abd60 f   nafxcwd:wingdi.obj
 0002:00102150       ?AfxGetDitheredBitmap@@YGXABVCBitmap@@PAV1@KK@Z 007ac150 f   nafxcwd:wingdi.obj
 0002:00102630       ?AfxDrawDitheredBitmap@@YGXPAVCDC@@HHABVCBitmap@@KK@Z 007ac630 f   nafxcwd:wingdi.obj
 0002:00102a70       ?Construct@?$ConstructDestruct@VCDC@@@@SGXPAVCObject@@@Z 007aca70 f i nafxcwd:wingdi.obj
 0002:00102b10       ?Destruct@?$ConstructDestruct@VCDC@@@@SGXPAVCObject@@@Z 007acb10 f i nafxcwd:wingdi.obj
 0002:00102b40       ?Construct@?$ConstructDestruct@VCGdiObject@@@@SGXPAVCObject@@@Z 007acb40 f i nafxcwd:wingdi.obj
 0002:00102be0       ?Destruct@?$ConstructDestruct@VCGdiObject@@@@SGXPAVCObject@@@Z 007acbe0 f i nafxcwd:wingdi.obj
 0002:00102c10       ??0CStdioFile@@QAE@XZ      007acc10 f   nafxcwd:filetxt.obj
 0002:00102c90       ??_GCStdioFile@@UAEPAXI@Z  007acc90 f i nafxcwd:filetxt.obj
 0002:00102c90       ??_ECStdioFile@@UAEPAXI@Z  007acc90 f i nafxcwd:filetxt.obj
 0002:00102cd0       ??0CStdioFile@@QAE@PAVCAtlTransactionManager@ATL@@@Z 007accd0 f   nafxcwd:filetxt.obj
 0002:00102d60       ??0CStdioFile@@QAE@PAU_iobuf@@@Z 007acd60 f   nafxcwd:filetxt.obj
 0002:00102e10       ??0CStdioFile@@QAE@PBDI@Z  007ace10 f   nafxcwd:filetxt.obj
 0002:00102ea0       ??0CStdioFile@@QAE@PBDIPAVCAtlTransactionManager@ATL@@@Z 007acea0 f   nafxcwd:filetxt.obj
 0002:00102f30       ?CommonBaseInit@CStdioFile@@IAEXPAU_iobuf@@PAVCAtlTransactionManager@ATL@@@Z 007acf30 f   nafxcwd:filetxt.obj
 0002:00102fb0       ?CommonInit@CStdioFile@@IAEXPBDIPAVCAtlTransactionManager@ATL@@@Z 007acfb0 f   nafxcwd:filetxt.obj
 0002:001030d0       ??1CStdioFile@@UAE@XZ      007ad0d0 f   nafxcwd:filetxt.obj
 0002:00103320       ?Open@CStdioFile@@UAEHPBDIPAVCAtlTransactionManager@ATL@@PAVCFileException@@@Z 007ad320 f   nafxcwd:filetxt.obj
 0002:00103360       ?Open@CStdioFile@@UAEHPBDIPAVCFileException@@@Z 007ad360 f   nafxcwd:filetxt.obj
 0002:00103650       ?Read@CStdioFile@@UAEIPAXI@Z 007ad650 f   nafxcwd:filetxt.obj
 0002:001037b0       ?Write@CStdioFile@@UAEXPBXI@Z 007ad7b0 f   nafxcwd:filetxt.obj
 0002:00103890       ?WriteString@CStdioFile@@UAEXPBD@Z 007ad890 f   nafxcwd:filetxt.obj
 0002:00103940       ?ReadString@CStdioFile@@UAEPADPADI@Z 007ad940 f   nafxcwd:filetxt.obj
 0002:00103a50       ?ReadString@CStdioFile@@UAEHAAV?$CStringT@DV?$StrTraitMFC@DV?$ChTraitsCRT@D@ATL@@@@@ATL@@@Z 007ada50 f   nafxcwd:filetxt.obj
 0002:00103c00       ?Seek@CStdioFile@@UAE_K_JI@Z 007adc00 f   nafxcwd:filetxt.obj
 0002:00103d30       ?GetLength@CStdioFile@@UBE_KXZ 007add30 f   nafxcwd:filetxt.obj
 0002:00103e70       ?GetPosition@CStdioFile@@UBE_KXZ 007ade70 f   nafxcwd:filetxt.obj
 0002:00103f10       ?Flush@CStdioFile@@UAEXXZ  007adf10 f   nafxcwd:filetxt.obj
 0002:00103f80       ?Close@CStdioFile@@UAEXXZ  007adf80 f   nafxcwd:filetxt.obj
 0002:00104050       ?Abort@CStdioFile@@UAEXXZ  007ae050 f   nafxcwd:filetxt.obj
 0002:001040d0       ?Duplicate@CStdioFile@@UBEPAVCFile@@XZ 007ae0d0 f   nafxcwd:filetxt.obj
 0002:00104130       ?LockRange@CStdioFile@@UAEX_K0@Z 007ae130 f   nafxcwd:filetxt.obj
 0002:00104190       ?UnlockRange@CStdioFile@@UAEX_K0@Z 007ae190 f   nafxcwd:filetxt.obj
 0002:001041f0       ?Dump@CStdioFile@@UBEXAAVCDumpContext@@@Z 007ae1f0 f   nafxcwd:filetxt.obj
 0002:00104250       ?GetRuntimeClass@CStdioFile@@UBEPAUCRuntimeClass@@XZ 007ae250 f   nafxcwd:filetxt.obj
 0002:00104270       ?Afx_clearerr_s@@YAXPAU_iobuf@@@Z 007ae270 f i nafxcwd:filetxt.obj
 0002:001042a0       ?_AfxFillExceptionInfo@@YGXPAVCFileException@@PBD@Z 007ae2a0 f   nafxcwd:filecore.obj
 0002:001042f0       ?IsDirSep@@YAHD@Z          007ae2f0 f i nafxcwd:filecore.obj
 0002:00104330       ??0CFile@@QAE@XZ           007ae330 f   nafxcwd:filecore.obj
 0002:001043d0       ??_ECFile@@UAEPAXI@Z       007ae3d0 f i nafxcwd:filecore.obj
 0002:001043d0       ??_GCFile@@UAEPAXI@Z       007ae3d0 f i nafxcwd:filecore.obj
 0002:00104410       ??0CFile@@QAE@PAVCAtlTransactionManager@ATL@@@Z 007ae410 f   nafxcwd:filecore.obj
 0002:001044b0       ??0CFile@@QAE@PAX@Z        007ae4b0 f   nafxcwd:filecore.obj
 0002:001045a0       ??0CFile@@QAE@PBDI@Z       007ae5a0 f   nafxcwd:filecore.obj
 0002:00104640       ??0CFile@@QAE@PBDIPAVCAtlTransactionManager@ATL@@@Z 007ae640 f   nafxcwd:filecore.obj
 0002:001046e0       ?CommonBaseInit@CFile@@IAEXPAXPAVCAtlTransactionManager@ATL@@@Z 007ae6e0 f   nafxcwd:filecore.obj
 0002:00104720       ?CommonInit@CFile@@IAEXPBDIPAVCAtlTransactionManager@ATL@@@Z 007ae720 f   nafxcwd:filecore.obj
 0002:00104840       ??1CFile@@UAE@XZ           007ae840 f   nafxcwd:filecore.obj
 0002:00104aa0       ?Duplicate@CFile@@UBEPAV1@XZ 007aeaa0 f   nafxcwd:filecore.obj
 0002:00104c60       ?Open@CFile@@UAEHPBDIPAVCAtlTransactionManager@ATL@@PAVCFileException@@@Z 007aec60 f   nafxcwd:filecore.obj
 0002:00104cc0       ?Open@CFile@@UAEHPBDIPAVCFileException@@@Z 007aecc0 f   nafxcwd:filecore.obj
 0002:001051f0       ?StringCchLengthA@@YGJPBDIPAI@Z 007af1f0 f i nafxcwd:filecore.obj
 0002:001052f0       ?Read@CFile@@UAEIPAXI@Z    007af2f0 f   nafxcwd:filecore.obj
 0002:001053f0       ?Write@CFile@@UAEXPBXI@Z   007af3f0 f   nafxcwd:filecore.obj
 0002:00105510       ?Seek@CFile@@UAE_K_JI@Z    007af510 f   nafxcwd:filecore.obj
 0002:00105600       ?GetPosition@CFile@@UBE_KXZ 007af600 f   nafxcwd:filecore.obj
 0002:001056c0       ?Flush@CFile@@UAEXXZ       007af6c0 f   nafxcwd:filecore.obj
 0002:00105730       ?Close@CFile@@UAEXXZ       007af730 f   nafxcwd:filecore.obj
 0002:00105800       ?Abort@CFile@@UAEXXZ       007af800 f   nafxcwd:filecore.obj
 0002:00105860       ?LockRange@CFile@@UAEX_K0@Z 007af860 f   nafxcwd:filecore.obj
 0002:00105920       ?UnlockRange@CFile@@UAEX_K0@Z 007af920 f   nafxcwd:filecore.obj
 0002:001059e0       ?SetLength@CFile@@UAEX_K@Z 007af9e0 f   nafxcwd:filecore.obj
 0002:00105a80       ?GetLength@CFile@@UBE_KXZ  007afa80 f   nafxcwd:filecore.obj
 0002:00105b00       ?GetBufferPtr@CFile@@UAEIIIPAPAX0@Z 007afb00 f   nafxcwd:filecore.obj
 0002:00105b40       ?Rename@CFile@@SGXPBD0PAVCAtlTransactionManager@ATL@@@Z 007afb40 f   nafxcwd:filecore.obj
 0002:00105bb0       ?Remove@CFile@@SGXPBDPAVCAtlTransactionManager@ATL@@@Z 007afbb0 f   nafxcwd:filecore.obj
 0002:00105c20       ?CreateInstance@AFX_COM@@QAEJABU_GUID@@PAUIUnknown@@0PAPAX@Z 007afc20 f   nafxcwd:filecore.obj
 0002:00105cd0       ?GetClassObject@AFX_COM@@QAEJABU_GUID@@0PAPAX@Z 007afcd0 f   nafxcwd:filecore.obj
 0002:00105e90       ?AfxStringFromCLSID@@YG?AV?$CStringT@DV?$StrTraitMFC@DV?$ChTraitsCRT@D@ATL@@@@@ATL@@ABU_GUID@@@Z 007afe90 f   nafxcwd:filecore.obj
 0002:00105f80       ?AfxGetInProcServer@@YGHPBDAAV?$CStringT@DV?$StrTraitMFC@DV?$ChTraitsCRT@D@ATL@@@@@ATL@@@Z 007aff80 f   nafxcwd:filecore.obj
 0002:001060d0       ?AfxResolveShortcut@@YGHPAVCWnd@@PBDPADH@Z 007b00d0 f   nafxcwd:filecore.obj
 0002:00106320       ?_AfxFullPath2@@YGHPADPBDPAVCFileException@@@Z 007b0320 f   nafxcwd:filecore.obj
 0002:001067e0       ?AfxFullPath@@YGHPADPBD@Z  007b07e0 f   nafxcwd:filecore.obj
 0002:00106800       ?AfxGetRoot@@YGXPBDAAV?$CStringT@DV?$StrTraitMFC@DV?$ChTraitsCRT@D@ATL@@@@@ATL@@@Z 007b0800 f   nafxcwd:filecore.obj
 0002:001068a0       ?AfxComparePath@@YGHPBD0@Z 007b08a0 f   nafxcwd:filecore.obj
 0002:00106b40       __tcsinc                   007b0b40 f i nafxcwd:filecore.obj
 0002:00106b60       ?AfxGetFileTitle@@YGIPBDPADI@Z 007b0b60 f   nafxcwd:filecore.obj
 0002:00106c80       ?AfxGetModuleFileName@@YGXPAUHINSTANCE__@@AAV?$CStringT@DV?$StrTraitMFC@DV?$ChTraitsCRT@D@ATL@@@@@ATL@@@Z 007b0c80 f   nafxcwd:filecore.obj
 0002:00106ce0       ?AfxGetModuleShortFileName@@YGXPAUHINSTANCE__@@AAV?$CStringT@DV?$StrTraitMFC@DV?$ChTraitsCRT@D@ATL@@@@@ATL@@@Z 007b0ce0 f   nafxcwd:filecore.obj
 0002:00106d80       ?AssertValid@CFile@@UBEXXZ 007b0d80 f   nafxcwd:filecore.obj
 0002:00106da0       ?Dump@CFile@@UBEXAAVCDumpContext@@@Z 007b0da0 f   nafxcwd:filecore.obj
 0002:00106e30       ?GetRuntimeClass@CFile@@UBEPAUCRuntimeClass@@XZ 007b0e30 f   nafxcwd:filecore.obj
 0002:00106e50       ?CreateFileA@CAtlTransactionManager@ATL@@QAEPAXPBDKKPAU_SECURITY_ATTRIBUTES@@KKPAX@Z 007b0e50 f i nafxcwd:filecore.obj
 0002:00106f60       ?DeleteFileA@CAtlTransactionManager@ATL@@QAEHPBD@Z 007b0f60 f i nafxcwd:filecore.obj
 0002:00107020       ?MoveFileA@CAtlTransactionManager@ATL@@QAEHPBD0@Z 007b1020 f i nafxcwd:filecore.obj
 0002:001070f0       ?GetFileTitle@@YGFPBDPADG@Z 007b10f0 f i nafxcwd:filecore.obj
 0002:00107120       ?GetRuntimeClass@CObject@@UBEPAUCRuntimeClass@@XZ 007b1120 f   nafxcwd:objcore.obj
 0002:00107140       ?IsKindOf@CObject@@QBEHPBUCRuntimeClass@@@Z 007b1140 f   nafxcwd:objcore.obj
 0002:00107220       ?AfxDynamicDownCast@@YAPAVCObject@@PAUCRuntimeClass@@PAV1@@Z 007b1220 f   nafxcwd:objcore.obj
 0002:00107250       ?AfxStaticDownCast@@YAPAVCObject@@PAUCRuntimeClass@@PAV1@@Z 007b1250 f   nafxcwd:objcore.obj
 0002:00107290       ?AfxAssertValidObject@@YGXPBVCObject@@PBDH@Z 007b1290 f   nafxcwd:objcore.obj
 0002:00107450       ?AssertValid@CObject@@UBEXXZ 007b1450 f   nafxcwd:objcore.obj
 0002:00107480       ?Dump@CObject@@UBEXAAVCDumpContext@@@Z 007b1480 f   nafxcwd:objcore.obj
 0002:001074f0       ?CreateObject@CRuntimeClass@@QAEPAVCObject@@XZ 007b14f0 f   nafxcwd:objcore.obj
 0002:00107660       ?IsSerializable@CObject@@QBEHXZ 007b1660 f   nafxcwd:objcore.obj
 0002:00107690       ?AfxClassInit@@YGXPAUCRuntimeClass@@@Z 007b1690 f   nafxcwd:objcore.obj
 0002:001076d0       ?IsDerivedFrom@CRuntimeClass@@QBEHPBU1@@Z 007b16d0 f   nafxcwd:objcore.obj
 0002:00107800       ?AfxDoForAllClasses@@YGXP6AXPBUCRuntimeClass@@PAX@Z1@Z 007b1800 f   nafxcwd:objcore.obj
 0002:00107870       ?AddHead@?$CTypedSimpleList@PAUCRuntimeClass@@@@QAEXPAUCRuntimeClass@@@Z 007b1870 f i nafxcwd:objcore.obj
 0002:001078a0       ??B?$CTypedSimpleList@PAUCRuntimeClass@@@@QAEPAUCRuntimeClass@@XZ 007b18a0 f i nafxcwd:objcore.obj
 0002:001078c0       ??_Estringdispid@CComTypeInfoHolder@ATL@@QAEPAXI@Z 007b18c0 f i nafxcwd:objcore.obj
 0002:00107950       ??1stringdispid@CComTypeInfoHolder@ATL@@QAE@XZ 007b1950 f i nafxcwd:objcore.obj
 0002:00107970       ?AfxWinInit@@YGHPAUHINSTANCE__@@0PADH@Z 007b1970 f   nafxcwd:appinit.obj
 0002:00107a40       ?SetCurrentHandles@CWinApp@@QAEXXZ 007b1a40 f   nafxcwd:appinit.obj
 0002:00107f70       ?AfxGetFileName@@YGIPBDPADI@Z 007b1f70 f   nafxcwd:appinit.obj
 0002:00108070       ?tcscat_s@Checked@ATL@@YAXPADIPBD@Z 007b2070 f i nafxcwd:appinit.obj
 0002:001080a0       ??0CTraceCategory@ATL@@QAE@PBDI@Z 007b20a0 f i nafxcwd:appinit.obj
 0002:00108100       ?ChangeCategory@CTrace@ATL@@QAE_NKIW4ATLTRACESTATUS@2@@Z 007b2100 f i nafxcwd:appinit.obj
 0002:00108140       ?RegisterCategory@CTrace@ATL@@QAEKPBD@Z 007b2140 f i nafxcwd:appinit.obj
 0002:00108170       ?AfxReadStringLength@@YGIAAVCArchive@@AAH@Z 007b2170 f   nafxcwd:arccore.obj
 0002:00108280       ?AfxWriteStringLength@@YGXAAVCArchive@@IH@Z 007b2280 f   nafxcwd:arccore.obj
 0002:00108380       ?CreateObject@CRuntimeClass@@SGPAVCObject@@PBD@Z 007b2380 f   nafxcwd:arccore.obj
 0002:00108440       ?CreateObject@CRuntimeClass@@SGPAVCObject@@PB_W@Z 007b2440 f   nafxcwd:arccore.obj
 0002:001084f0       ?FromName@CRuntimeClass@@SGPAU1@PBD@Z 007b24f0 f   nafxcwd:arccore.obj
 0002:001085c0       ?FromName@CRuntimeClass@@SGPAU1@PB_W@Z 007b25c0 f   nafxcwd:arccore.obj
 0002:00108680       ?Load@CRuntimeClass@@SGPAU1@AAVCArchive@@PAI@Z 007b2680 f   nafxcwd:arccore.obj
 0002:00108780       ?Store@CRuntimeClass@@QBEXAAVCArchive@@@Z 007b2780 f   nafxcwd:arccore.obj
 0002:001087f0       ??0CArchive@@QAE@PAVCFile@@IHPAX@Z 007b27f0 f   nafxcwd:arccore.obj
 0002:00108b50       ??1CArchive@@QAE@XZ        007b2b50 f   nafxcwd:arccore.obj
 0002:00108bf0       ?Abort@CArchive@@QAEXXZ    007b2bf0 f   nafxcwd:arccore.obj
 0002:00108e60       ?Close@CArchive@@QAEXXZ    007b2e60 f   nafxcwd:arccore.obj
 0002:00108eb0       ?Read@CArchive@@QAEIPAXI@Z 007b2eb0 f   nafxcwd:arccore.obj
 0002:00109430       ?Write@CArchive@@QAEXPBXI@Z 007b3430 f   nafxcwd:arccore.obj
 0002:00109870       ?Flush@CArchive@@QAEXXZ    007b3870 f   nafxcwd:arccore.obj
 0002:00109b40       ?FillBuffer@CArchive@@QAEXI@Z 007b3b40 f   nafxcwd:arccore.obj
 0002:00109fc0       ?WriteCount@CArchive@@QAEXK@Z 007b3fc0 f   nafxcwd:arccore.obj
 0002:0010a010       ?ReadCount@CArchive@@QAEKXZ 007b4010 f   nafxcwd:arccore.obj
 0002:0010a060       ?WriteString@CArchive@@QAEXPBD@Z 007b4060 f   nafxcwd:arccore.obj
 0002:0010a0c0       ?ReadString@CArchive@@QAEPADPADI@Z 007b40c0 f   nafxcwd:arccore.obj
 0002:0010a2e0       ?ReadString@CArchive@@QAEHAAV?$CStringT@DV?$StrTraitMFC@DV?$ChTraitsCRT@D@ATL@@@@@ATL@@@Z 007b42e0 f   nafxcwd:arccore.obj
 0002:0010a400       ?OutputString@CDumpContext@@IAEXPBD@Z 007b4400 f   nafxcwd:dumpcont.obj
 0002:0010a4c0       ??0CDumpContext@@QAE@PAVCFile@@@Z 007b44c0 f   nafxcwd:dumpcont.obj
 0002:0010a510       ?Flush@CDumpContext@@QAEXXZ 007b4510 f   nafxcwd:dumpcont.obj
 0002:0010a550       ??6CDumpContext@@QAEAAV0@PBD@Z 007b4550 f   nafxcwd:dumpcont.obj
 0002:0010a6e0       ??6CDumpContext@@QAEAAV0@E@Z 007b46e0 f   nafxcwd:dumpcont.obj
 0002:0010a740       ?DumpAsHex@CDumpContext@@QAEAAV1@E@Z 007b4740 f   nafxcwd:dumpcont.obj
 0002:0010a7a0       ??6CDumpContext@@QAEAAV0@G@Z 007b47a0 f   nafxcwd:dumpcont.obj
 0002:0010a800       ?DumpAsHex@CDumpContext@@QAEAAV1@G@Z 007b4800 f   nafxcwd:dumpcont.obj
 0002:0010a860       ??6CDumpContext@@QAEAAV0@I@Z 007b4860 f   nafxcwd:dumpcont.obj
 0002:0010a8c0       ??6CDumpContext@@QAEAAV0@J@Z 007b48c0 f   nafxcwd:dumpcont.obj
 0002:0010a920       ??6CDumpContext@@QAEAAV0@K@Z 007b4920 f   nafxcwd:dumpcont.obj
 0002:0010a980       ??6CDumpContext@@QAEAAV0@H@Z 007b4980 f   nafxcwd:dumpcont.obj
 0002:0010a9e0       ?DumpAsHex@CDumpContext@@QAEAAV1@I@Z 007b49e0 f   nafxcwd:dumpcont.obj
 0002:0010aa40       ?DumpAsHex@CDumpContext@@QAEAAV1@J@Z 007b4a40 f   nafxcwd:dumpcont.obj
 0002:0010aaa0       ?DumpAsHex@CDumpContext@@QAEAAV1@K@Z 007b4aa0 f   nafxcwd:dumpcont.obj
 0002:0010ab00       ?DumpAsHex@CDumpContext@@QAEAAV1@H@Z 007b4b00 f   nafxcwd:dumpcont.obj
 0002:0010ab60       ??6CDumpContext@@QAEAAV0@_J@Z 007b4b60 f   nafxcwd:dumpcont.obj
 0002:0010abd0       ??6CDumpContext@@QAEAAV0@_K@Z 007b4bd0 f   nafxcwd:dumpcont.obj
 0002:0010ac40       ?DumpAsHex@CDumpContext@@QAEAAV1@_J@Z 007b4c40 f   nafxcwd:dumpcont.obj
 0002:0010acb0       ?DumpAsHex@CDumpContext@@QAEAAV1@_K@Z 007b4cb0 f   nafxcwd:dumpcont.obj
 0002:0010ad20       ??6CDumpContext@@QAEAAV0@PBVCObject@@@Z 007b4d20 f   nafxcwd:dumpcont.obj
 0002:0010ad70       ??6CDumpContext@@QAEAAV0@ABVCObject@@@Z 007b4d70 f   nafxcwd:dumpcont.obj
 0002:0010ada0       ??6CDumpContext@@QAEAAV0@PBX@Z 007b4da0 f   nafxcwd:dumpcont.obj
 0002:0010ae00       ??6CDumpContext@@QAEAAV0@PAUHWND__@@@Z 007b4e00 f   nafxcwd:dumpcont.obj
 0002:0010ae30       ??6CDumpContext@@QAEAAV0@PAUHDC__@@@Z 007b4e30 f   nafxcwd:dumpcont.obj
 0002:0010ae60       ??6CDumpContext@@QAEAAV0@PAUHMENU__@@@Z 007b4e60 f   nafxcwd:dumpcont.obj
 0002:0010ae90       ??6CDumpContext@@QAEAAV0@PAUHACCEL__@@@Z 007b4e90 f   nafxcwd:dumpcont.obj
 0002:0010aec0       ??6CDumpContext@@QAEAAV0@PAUHFONT__@@@Z 007b4ec0 f   nafxcwd:dumpcont.obj
 0002:0010aef0       ?HexDump@CDumpContext@@QAEXPBDPAEHH@Z 007b4ef0 f   nafxcwd:dumpcont.obj
 0002:0010b0e0       ??6CDumpContext@@QAEAAV0@PB_W@Z 007b50e0 f   nafxcwd:dumpcont.obj
 0002:0010b180       ?_wcstombsz@ATL@@YAHPADPB_WK@Z 007b5180 f i nafxcwd:dumpcont.obj
 0002:0010b210       ?AfxIsValidString@@YGHPB_WH@Z 007b5210 f   nafxcwd:validadd.obj
 0002:0010b230       ?AfxIsValidString@@YGHPBDH@Z 007b5230 f   nafxcwd:validadd.obj
 0002:0010b250       ?AfxIsValidAddress@@YGHPBXIH@Z 007b5250 f   nafxcwd:validadd.obj
 0002:0010b280       ?AfxIsValidAtom@@YAHG@Z    007b5280 f   nafxcwd:validadd.obj
 0002:0010b370       ?AfxIsValidAtom@@YAHPBD@Z  007b5370 f   nafxcwd:validadd.obj
 0002:0010b3d0       ?AtlIsValidString@ATL@@YAHPB_WI@Z 007b53d0 f i nafxcwd:validadd.obj
 0002:0010b3f0       ?CheckCount@CArchive@@QAEXXZ 007b53f0 f   nafxcwd:arcobj.obj
 0002:0010b430       ?EnsureSchemaMapExists@CArchive@@QAEXPAPAV?$CArray@W4LoadArrayObjType@CArchive@@ABW412@@@@Z 007b5430 f   nafxcwd:arcobj.obj
 0002:0010b660       ?WriteObject@CArchive@@QAEXPBVCObject@@@Z 007b5660 f   nafxcwd:arcobj.obj
 0002:0010b7c0       ?ReadObject@CArchive@@QAEPAVCObject@@PBUCRuntimeClass@@@Z 007b57c0 f   nafxcwd:arcobj.obj
 0002:0010bc00       ?GetObjectSchema@CArchive@@QAEIXZ 007b5c00 f   nafxcwd:arcobj.obj
 0002:0010bc30       ?MapObject@CArchive@@QAEXPBVCObject@@@Z 007b5c30 f   nafxcwd:arcobj.obj
 0002:0010bf30       ?WriteClass@CArchive@@QAEXPBUCRuntimeClass@@@Z 007b5f30 f   nafxcwd:arcobj.obj
 0002:0010c100       ?ReadClass@CArchive@@QAEPAUCRuntimeClass@@PBU2@PAIPAK@Z 007b6100 f   nafxcwd:arcobj.obj
 0002:0010c600       ?SerializeClass@CArchive@@QAEXPBUCRuntimeClass@@@Z 007b6600 f   nafxcwd:arcobj.obj
 0002:0010c650       ??0?$CArray@W4LoadArrayObjType@CArchive@@ABW412@@@QAE@XZ 007b6650 f i nafxcwd:arcobj.obj
 0002:0010c6b0       ?GetUpperBound@?$CArray@W4LoadArrayObjType@CArchive@@ABW412@@@QBEHXZ 007b66b0 f i nafxcwd:arcobj.obj
 0002:0010c6d0       ?SetSize@?$CArray@W4LoadArrayObjType@CArchive@@ABW412@@@QAEXHH@Z 007b66d0 f i nafxcwd:arcobj.obj
 0002:0010cbe0       ?GetAt@?$CArray@W4LoadArrayObjType@CArchive@@ABW412@@@QAEAAW4LoadArrayObjType@CArchive@@H@Z 007b6be0 f i nafxcwd:arcobj.obj
 0002:0010cc50       ?InsertAt@?$CArray@W4LoadArrayObjType@CArchive@@ABW412@@@QAEXHABW4LoadArrayObjType@CArchive@@H@Z 007b6c50 f i nafxcwd:arcobj.obj
 0002:0010ce60       ?Serialize@?$CArray@W4LoadArrayObjType@CArchive@@ABW412@@@UAEXAAVCArchive@@@Z 007b6e60 f i nafxcwd:arcobj.obj
 0002:0010cf00       ?Dump@?$CArray@W4LoadArrayObjType@CArchive@@ABW412@@@UBEXAAVCDumpContext@@@Z 007b6f00 f i nafxcwd:arcobj.obj
 0002:0010cfa0       ?AssertValid@?$CArray@W4LoadArrayObjType@CArchive@@ABW412@@@UBEXXZ 007b6fa0 f i nafxcwd:arcobj.obj
 0002:0010d0d0       ??_G?$CArray@W4LoadArrayObjType@CArchive@@ABW412@@@UAEPAXI@Z 007b70d0 f i nafxcwd:arcobj.obj
 0002:0010d0d0       ??_E?$CArray@W4LoadArrayObjType@CArchive@@ABW412@@@UAEPAXI@Z 007b70d0 f i nafxcwd:arcobj.obj
 0002:0010d110       ??1?$CArray@W4LoadArrayObjType@CArchive@@ABW412@@@UAE@XZ 007b7110 f i nafxcwd:arcobj.obj
 0002:0010d1f0       ??$SerializeElements@W4LoadArrayObjType@CArchive@@@@YGXAAVCArchive@@PAW4LoadArrayObjType@0@H@Z 007b71f0 f i nafxcwd:arcobj.obj
 0002:0010d390       ??$DumpElements@W4LoadArrayObjType@CArchive@@@@YGXAAVCDumpContext@@PBW4LoadArrayObjType@CArchive@@H@Z 007b7390 f i nafxcwd:arcobj.obj
 0002:0010d440       ?GetErrorMessage@CArchiveException@@UBEHPADIPAI@Z 007b7440 f   nafxcwd:arcex.obj
 0002:0010d620       ?Dump@CArchiveException@@UBEXAAVCDumpContext@@@Z 007b7620 f   nafxcwd:arcex.obj
 0002:0010d6b0       ?AfxThrowArchiveException@@YGXHPBD@Z 007b76b0 f   nafxcwd:arcex.obj
 0002:0010d7d0       ?GetRuntimeClass@CArchiveException@@UBEPAUCRuntimeClass@@XZ 007b77d0 f   nafxcwd:arcex.obj
 0002:0010d7f0       ?ThrowOsError@CFileException@@SGXJPBD@Z 007b77f0 f   nafxcwd:filex.obj
 0002:0010d820       ?ThrowErrno@CFileException@@SGXHPBD@Z 007b7820 f   nafxcwd:filex.obj
 0002:0010d860       ?GetErrorMessage@CFileException@@UBEHPADIPAI@Z 007b7860 f   nafxcwd:filex.obj
 0002:0010d9e0       ?Dump@CFileException@@UBEXAAVCDumpContext@@@Z 007b79e0 f   nafxcwd:filex.obj
 0002:0010da90       ?AfxThrowFileException@@YGXHJPBD@Z 007b7a90 f   nafxcwd:filex.obj
 0002:0010dbd0       ?ErrnoToException@CFileException@@SGHH@Z 007b7bd0 f   nafxcwd:filex.obj
 0002:0010dcb0       ?OsErrorToException@CFileException@@SGHJ@Z 007b7cb0 f   nafxcwd:filex.obj
 0002:0010e370       ?GetRuntimeClass@CFileException@@UBEPAUCRuntimeClass@@XZ 007b8370 f   nafxcwd:filex.obj
 0002:0010e390       ??0CByteArray@@QAE@XZ      007b8390 f   nafxcwd:array_b.obj
 0002:0010e3f0       ??_GCByteArray@@UAEPAXI@Z  007b83f0 f i nafxcwd:array_b.obj
 0002:0010e3f0       ??_ECByteArray@@UAEPAXI@Z  007b83f0 f i nafxcwd:array_b.obj
 0002:0010e430       ??1CByteArray@@UAE@XZ      007b8430 f   nafxcwd:array_b.obj
 0002:0010e4d0       ?SetSize@CByteArray@@QAEXHH@Z 007b84d0 f   nafxcwd:array_b.obj
 0002:0010e880       ?Append@CByteArray@@QAEHABV1@@Z 007b8880 f   nafxcwd:array_b.obj
 0002:0010e940       ?Copy@CByteArray@@QAEXABV1@@Z 007b8940 f   nafxcwd:array_b.obj
 0002:0010e9e0       ?FreeExtra@CByteArray@@QAEXXZ 007b89e0 f   nafxcwd:array_b.obj
 0002:0010eaf0       ?SetAtGrow@CByteArray@@QAEXHE@Z 007b8af0 f   nafxcwd:array_b.obj
 0002:0010eb80       ?InsertAt@CByteArray@@QAEXHEH@Z 007b8b80 f   nafxcwd:array_b.obj
 0002:0010ed10       ?RemoveAt@CByteArray@@QAEXHH@Z 007b8d10 f   nafxcwd:array_b.obj
 0002:0010ee50       ?InsertAt@CByteArray@@QAEXHPAV1@@Z 007b8e50 f   nafxcwd:array_b.obj
 0002:0010efb0       ?Serialize@CByteArray@@UAEXAAVCArchive@@@Z 007b8fb0 f   nafxcwd:array_b.obj
 0002:0010f110       ?Dump@CByteArray@@UBEXAAVCDumpContext@@@Z 007b9110 f   nafxcwd:array_b.obj
 0002:0010f200       ?AssertValid@CByteArray@@UBEXXZ 007b9200 f   nafxcwd:array_b.obj
 0002:0010f320       ?CreateObject@CByteArray@@SGPAVCObject@@XZ 007b9320 f   nafxcwd:array_b.obj
 0002:0010f3c0       ?GetRuntimeClass@CByteArray@@UBEPAUCRuntimeClass@@XZ 007b93c0 f   nafxcwd:array_b.obj
 0002:0010f3e0       ??5@YGAAVCArchive@@AAV0@AAPAVCByteArray@@@Z 007b93e0 f   nafxcwd:array_b.obj
 0002:0010f410       ??0CWordArray@@QAE@XZ      007b9410 f   nafxcwd:array_w.obj
 0002:0010f470       ??_GCWordArray@@UAEPAXI@Z  007b9470 f i nafxcwd:array_w.obj
 0002:0010f470       ??_ECWordArray@@UAEPAXI@Z  007b9470 f i nafxcwd:array_w.obj
 0002:0010f4b0       ??1CWordArray@@UAE@XZ      007b94b0 f   nafxcwd:array_w.obj
 0002:0010f550       ?SetSize@CWordArray@@QAEXHH@Z 007b9550 f   nafxcwd:array_w.obj
 0002:0010f900       ?Append@CWordArray@@QAEHABV1@@Z 007b9900 f   nafxcwd:array_w.obj
 0002:0010f9d0       ?Copy@CWordArray@@QAEXABV1@@Z 007b99d0 f   nafxcwd:array_w.obj
 0002:0010fa70       ?FreeExtra@CWordArray@@QAEXXZ 007b9a70 f   nafxcwd:array_w.obj
 0002:0010fb80       ?SetAtGrow@CWordArray@@QAEXHG@Z 007b9b80 f   nafxcwd:array_w.obj
 0002:0010fc20       ?InsertAt@CWordArray@@QAEXHGH@Z 007b9c20 f   nafxcwd:array_w.obj
 0002:0010fdd0       ?RemoveAt@CWordArray@@QAEXHH@Z 007b9dd0 f   nafxcwd:array_w.obj
 0002:0010ff20       ?InsertAt@CWordArray@@QAEXHPAV1@@Z 007b9f20 f   nafxcwd:array_w.obj
 0002:00110080       ?Serialize@CWordArray@@UAEXAAVCArchive@@@Z 007ba080 f   nafxcwd:array_w.obj
 0002:001101f0       ?Dump@CWordArray@@UBEXAAVCDumpContext@@@Z 007ba1f0 f   nafxcwd:array_w.obj
 0002:001102e0       ?AssertValid@CWordArray@@UBEXXZ 007ba2e0 f   nafxcwd:array_w.obj
 0002:00110410       ?CreateObject@CWordArray@@SGPAVCObject@@XZ 007ba410 f   nafxcwd:array_w.obj
 0002:001104b0       ?GetRuntimeClass@CWordArray@@UBEPAUCRuntimeClass@@XZ 007ba4b0 f   nafxcwd:array_w.obj
 0002:001104d0       ??5@YGAAVCArchive@@AAV0@AAPAVCWordArray@@@Z 007ba4d0 f   nafxcwd:array_w.obj
 0002:00110500       ??0CDWordArray@@QAE@XZ     007ba500 f   nafxcwd:array_d.obj
 0002:00110560       ??_GCDWordArray@@UAEPAXI@Z 007ba560 f i nafxcwd:array_d.obj
 0002:00110560       ??_ECDWordArray@@UAEPAXI@Z 007ba560 f i nafxcwd:array_d.obj
 0002:001105a0       ??1CDWordArray@@UAE@XZ     007ba5a0 f   nafxcwd:array_d.obj
 0002:00110640       ?SetSize@CDWordArray@@QAEXHH@Z 007ba640 f   nafxcwd:array_d.obj
 0002:00110a00       ?Append@CDWordArray@@QAEHABV1@@Z 007baa00 f   nafxcwd:array_d.obj
 0002:00110ad0       ?Copy@CDWordArray@@QAEXABV1@@Z 007baad0 f   nafxcwd:array_d.obj
 0002:00110b80       ?FreeExtra@CDWordArray@@QAEXXZ 007bab80 f   nafxcwd:array_d.obj
 0002:00110c90       ?SetAtGrow@CDWordArray@@QAEXHK@Z 007bac90 f   nafxcwd:array_d.obj
 0002:00110d20       ?InsertAt@CDWordArray@@QAEXHKH@Z 007bad20 f   nafxcwd:array_d.obj
 0002:00110ed0       ?RemoveAt@CDWordArray@@QAEXHH@Z 007baed0 f   nafxcwd:array_d.obj
 0002:00111020       ?InsertAt@CDWordArray@@QAEXHPAV1@@Z 007bb020 f   nafxcwd:array_d.obj
 0002:00111170       ?Serialize@CDWordArray@@UAEXAAVCArchive@@@Z 007bb170 f   nafxcwd:array_d.obj
 0002:001112e0       ?Dump@CDWordArray@@UBEXAAVCDumpContext@@@Z 007bb2e0 f   nafxcwd:array_d.obj
 0002:001113d0       ?AssertValid@CDWordArray@@UBEXXZ 007bb3d0 f   nafxcwd:array_d.obj
 0002:00111500       ?CreateObject@CDWordArray@@SGPAVCObject@@XZ 007bb500 f   nafxcwd:array_d.obj
 0002:001115a0       ?GetRuntimeClass@CDWordArray@@UBEPAUCRuntimeClass@@XZ 007bb5a0 f   nafxcwd:array_d.obj
 0002:001115c0       ??5@YGAAVCArchive@@AAV0@AAPAVCDWordArray@@@Z 007bb5c0 f   nafxcwd:array_d.obj
 0002:001115f0       ??0CUIntArray@@QAE@XZ      007bb5f0 f   nafxcwd:array_u.obj
 0002:00111650       ??_GCUIntArray@@UAEPAXI@Z  007bb650 f i nafxcwd:array_u.obj
 0002:00111650       ??_ECUIntArray@@UAEPAXI@Z  007bb650 f i nafxcwd:array_u.obj
 0002:00111690       ??1CUIntArray@@UAE@XZ      007bb690 f   nafxcwd:array_u.obj
 0002:00111730       ?SetSize@CUIntArray@@QAEXHH@Z 007bb730 f   nafxcwd:array_u.obj
 0002:00111af0       ?Append@CUIntArray@@QAEHABV1@@Z 007bbaf0 f   nafxcwd:array_u.obj
 0002:00111bc0       ?Copy@CUIntArray@@QAEXABV1@@Z 007bbbc0 f   nafxcwd:array_u.obj
 0002:00111c70       ?FreeExtra@CUIntArray@@QAEXXZ 007bbc70 f   nafxcwd:array_u.obj
 0002:00111d80       ?SetAtGrow@CUIntArray@@QAEXHI@Z 007bbd80 f   nafxcwd:array_u.obj
 0002:00111e10       ?InsertAt@CUIntArray@@QAEXHIH@Z 007bbe10 f   nafxcwd:array_u.obj
 0002:00111fc0       ?RemoveAt@CUIntArray@@QAEXHH@Z 007bbfc0 f   nafxcwd:array_u.obj
 0002:00112110       ?InsertAt@CUIntArray@@QAEXHPAV1@@Z 007bc110 f   nafxcwd:array_u.obj
 0002:00112260       ?Dump@CUIntArray@@UBEXAAVCDumpContext@@@Z 007bc260 f   nafxcwd:array_u.obj
 0002:00112350       ?AssertValid@CUIntArray@@UBEXXZ 007bc350 f   nafxcwd:array_u.obj
 0002:00112480       ?GetRuntimeClass@CUIntArray@@UBEPAUCRuntimeClass@@XZ 007bc480 f   nafxcwd:array_u.obj
 0002:001124a0       ??0CPtrArray@@QAE@XZ       007bc4a0 f   nafxcwd:array_p.obj
 0002:00112500       ??_ECPtrArray@@UAEPAXI@Z   007bc500 f i nafxcwd:array_p.obj
 0002:00112500       ??_GCPtrArray@@UAEPAXI@Z   007bc500 f i nafxcwd:array_p.obj
 0002:00112540       ??1CPtrArray@@UAE@XZ       007bc540 f   nafxcwd:array_p.obj
 0002:001125e0       ?SetSize@CPtrArray@@QAEXHH@Z 007bc5e0 f   nafxcwd:array_p.obj
 0002:001129a0       ?Append@CPtrArray@@QAEHABV1@@Z 007bc9a0 f   nafxcwd:array_p.obj
 0002:00112a70       ?Copy@CPtrArray@@QAEXABV1@@Z 007bca70 f   nafxcwd:array_p.obj
 0002:00112b20       ?FreeExtra@CPtrArray@@QAEXXZ 007bcb20 f   nafxcwd:array_p.obj
 0002:00112c30       ?SetAtGrow@CPtrArray@@QAEXHPAX@Z 007bcc30 f   nafxcwd:array_p.obj
 0002:00112cc0       ?InsertAt@CPtrArray@@QAEXHPAXH@Z 007bccc0 f   nafxcwd:array_p.obj
 0002:00112e70       ?RemoveAt@CPtrArray@@QAEXHH@Z 007bce70 f   nafxcwd:array_p.obj
 0002:00112fc0       ?InsertAt@CPtrArray@@QAEXHPAV1@@Z 007bcfc0 f   nafxcwd:array_p.obj
 0002:00113110       ?Dump@CPtrArray@@UBEXAAVCDumpContext@@@Z 007bd110 f   nafxcwd:array_p.obj
 0002:00113200       ?AssertValid@CPtrArray@@UBEXXZ 007bd200 f   nafxcwd:array_p.obj
 0002:00113330       ?GetRuntimeClass@CPtrArray@@UBEPAUCRuntimeClass@@XZ 007bd330 f   nafxcwd:array_p.obj
 0002:00113350       ??0CObArray@@QAE@XZ        007bd350 f   nafxcwd:array_o.obj
 0002:001133b0       ??_GCObArray@@UAEPAXI@Z    007bd3b0 f i nafxcwd:array_o.obj
 0002:001133b0       ??_ECObArray@@UAEPAXI@Z    007bd3b0 f i nafxcwd:array_o.obj
 0002:001133f0       ??1CObArray@@UAE@XZ        007bd3f0 f   nafxcwd:array_o.obj
 0002:00113490       ?SetSize@CObArray@@QAEXHH@Z 007bd490 f   nafxcwd:array_o.obj
 0002:00113850       ?Append@CObArray@@QAEHABV1@@Z 007bd850 f   nafxcwd:array_o.obj
 0002:00113920       ?Copy@CObArray@@QAEXABV1@@Z 007bd920 f   nafxcwd:array_o.obj
 0002:001139d0       ?FreeExtra@CObArray@@QAEXXZ 007bd9d0 f   nafxcwd:array_o.obj
 0002:00113ae0       ?SetAtGrow@CObArray@@QAEXHPAVCObject@@@Z 007bdae0 f   nafxcwd:array_o.obj
 0002:00113b70       ?InsertAt@CObArray@@QAEXHPAVCObject@@H@Z 007bdb70 f   nafxcwd:array_o.obj
 0002:00113d20       ?RemoveAt@CObArray@@QAEXHH@Z 007bdd20 f   nafxcwd:array_o.obj
 0002:00113e70       ?InsertAt@CObArray@@QAEXHPAV1@@Z 007bde70 f   nafxcwd:array_o.obj
 0002:00113fc0       ?Serialize@CObArray@@UAEXAAVCArchive@@@Z 007bdfc0 f   nafxcwd:array_o.obj
 0002:001140d0       ?Dump@CObArray@@UBEXAAVCDumpContext@@@Z 007be0d0 f   nafxcwd:array_o.obj
 0002:001141c0       ?AssertValid@CObArray@@UBEXXZ 007be1c0 f   nafxcwd:array_o.obj
 0002:001142f0       ?CreateObject@CObArray@@SGPAVCObject@@XZ 007be2f0 f   nafxcwd:array_o.obj
 0002:00114390       ?GetRuntimeClass@CObArray@@UBEPAUCRuntimeClass@@XZ 007be390 f   nafxcwd:array_o.obj
 0002:001143b0       ??5@YGAAVCArchive@@AAV0@AAPAVCObArray@@@Z 007be3b0 f   nafxcwd:array_o.obj
 0002:001143e0       ??0CMapWordToPtr@@QAE@H@Z  007be3e0 f   nafxcwd:map_wp.obj
 0002:001144d0       ??_ECMapWordToPtr@@UAEPAXI@Z 007be4d0 f i nafxcwd:map_wp.obj
 0002:001144d0       ??_GCMapWordToPtr@@UAEPAXI@Z 007be4d0 f i nafxcwd:map_wp.obj
 0002:00114510       ?InitHashTable@CMapWordToPtr@@QAEXIH@Z 007be510 f   nafxcwd:map_wp.obj
 0002:00114630       ?RemoveAll@CMapWordToPtr@@QAEXXZ 007be630 f   nafxcwd:map_wp.obj
 0002:001146c0       ??1CMapWordToPtr@@UAE@XZ   007be6c0 f   nafxcwd:map_wp.obj
 0002:00114760       ?NewAssoc@CMapWordToPtr@@IAEPAUCAssoc@1@XZ 007be760 f   nafxcwd:map_wp.obj
 0002:001148a0       ?FreeAssoc@CMapWordToPtr@@IAEXPAUCAssoc@1@@Z 007be8a0 f   nafxcwd:map_wp.obj
 0002:00114920       ?GetAssocAt@CMapWordToPtr@@IBEPAUCAssoc@1@GAAI0@Z 007be920 f   nafxcwd:map_wp.obj
 0002:001149c0       ?HashKey@CMapWordToPtr@@QBEIG@Z 007be9c0 f i nafxcwd:map_wp.obj
 0002:001149e0       ?Lookup@CMapWordToPtr@@QBEHGAAPAX@Z 007be9e0 f   nafxcwd:map_wp.obj
 0002:00114a50       ??ACMapWordToPtr@@QAEAAPAXG@Z 007bea50 f   nafxcwd:map_wp.obj
 0002:00114b10       ?RemoveKey@CMapWordToPtr@@QAEHG@Z 007beb10 f   nafxcwd:map_wp.obj
 0002:00114be0       ?GetNextAssoc@CMapWordToPtr@@QBEXAAPAU__POSITION@@AAGAAPAX@Z 007bebe0 f   nafxcwd:map_wp.obj
 0002:00114dc0       ?Dump@CMapWordToPtr@@UBEXAAVCDumpContext@@@Z 007bedc0 f   nafxcwd:map_wp.obj
 0002:00114eb0       ?AssertValid@CMapWordToPtr@@UBEXXZ 007beeb0 f   nafxcwd:map_wp.obj
 0002:00114f20       ?GetRuntimeClass@CMapWordToPtr@@UBEPAUCRuntimeClass@@XZ 007bef20 f   nafxcwd:map_wp.obj
 0002:00114f40       ??$HashKey@G@@YGIG@Z       007bef40 f i nafxcwd:map_wp.obj
 0002:00114fb0       ??0CMapPtrToWord@@QAE@H@Z  007befb0 f   nafxcwd:map_pw.obj
 0002:001150a0       ??_GCMapPtrToWord@@UAEPAXI@Z 007bf0a0 f i nafxcwd:map_pw.obj
 0002:001150a0       ??_ECMapPtrToWord@@UAEPAXI@Z 007bf0a0 f i nafxcwd:map_pw.obj
 0002:001150e0       ?InitHashTable@CMapPtrToWord@@QAEXIH@Z 007bf0e0 f   nafxcwd:map_pw.obj
 0002:00115200       ?RemoveAll@CMapPtrToWord@@QAEXXZ 007bf200 f   nafxcwd:map_pw.obj
 0002:00115290       ??1CMapPtrToWord@@UAE@XZ   007bf290 f   nafxcwd:map_pw.obj
 0002:00115330       ?NewAssoc@CMapPtrToWord@@IAEPAUCAssoc@1@XZ 007bf330 f   nafxcwd:map_pw.obj
 0002:00115470       ?FreeAssoc@CMapPtrToWord@@IAEXPAUCAssoc@1@@Z 007bf470 f   nafxcwd:map_pw.obj
 0002:001154f0       ?GetAssocAt@CMapPtrToWord@@IBEPAUCAssoc@1@PAXAAI1@Z 007bf4f0 f   nafxcwd:map_pw.obj
 0002:00115590       ?HashKey@CMapPtrToWord@@QBEIPAX@Z 007bf590 f i nafxcwd:map_pw.obj
 0002:001155b0       ?Lookup@CMapPtrToWord@@QBEHPAXAAG@Z 007bf5b0 f   nafxcwd:map_pw.obj
 0002:00115620       ??ACMapPtrToWord@@QAEAAGPAX@Z 007bf620 f   nafxcwd:map_pw.obj
 0002:001156e0       ?RemoveKey@CMapPtrToWord@@QAEHPAX@Z 007bf6e0 f   nafxcwd:map_pw.obj
 0002:001157b0       ?GetNextAssoc@CMapPtrToWord@@QBEXAAPAU__POSITION@@AAPAXAAG@Z 007bf7b0 f   nafxcwd:map_pw.obj
 0002:00115990       ?Dump@CMapPtrToWord@@UBEXAAVCDumpContext@@@Z 007bf990 f   nafxcwd:map_pw.obj
 0002:00115a80       ?AssertValid@CMapPtrToWord@@UBEXXZ 007bfa80 f   nafxcwd:map_pw.obj
 0002:00115af0       ?GetRuntimeClass@CMapPtrToWord@@UBEPAUCRuntimeClass@@XZ 007bfaf0 f   nafxcwd:map_pw.obj
 0002:00115b10       ??$HashKey@K@@YGIK@Z       007bfb10 f i nafxcwd:map_pw.obj
 0002:00115b80       ??0CMapPtrToPtr@@QAE@H@Z   007bfb80 f   nafxcwd:map_pp.obj
 0002:00115c70       ??_ECMapPtrToPtr@@UAEPAXI@Z 007bfc70 f i nafxcwd:map_pp.obj
 0002:00115c70       ??_GCMapPtrToPtr@@UAEPAXI@Z 007bfc70 f i nafxcwd:map_pp.obj
 0002:00115cb0       ?InitHashTable@CMapPtrToPtr@@QAEXIH@Z 007bfcb0 f   nafxcwd:map_pp.obj
 0002:00115dd0       ?RemoveAll@CMapPtrToPtr@@QAEXXZ 007bfdd0 f   nafxcwd:map_pp.obj
 0002:00115e60       ??1CMapPtrToPtr@@UAE@XZ    007bfe60 f   nafxcwd:map_pp.obj
 0002:00115f00       ?NewAssoc@CMapPtrToPtr@@IAEPAUCAssoc@1@XZ 007bff00 f   nafxcwd:map_pp.obj
 0002:00116040       ?FreeAssoc@CMapPtrToPtr@@IAEXPAUCAssoc@1@@Z 007c0040 f   nafxcwd:map_pp.obj
 0002:001160c0       ?GetAssocAt@CMapPtrToPtr@@IBEPAUCAssoc@1@PAXAAI1@Z 007c00c0 f   nafxcwd:map_pp.obj
 0002:00116160       ?HashKey@CMapPtrToPtr@@QBEIPAX@Z 007c0160 f i nafxcwd:map_pp.obj
 0002:00116180       ?GetValueAt@CMapPtrToPtr@@QBEPAXPAX@Z 007c0180 f   nafxcwd:map_pp.obj
 0002:00116250       ?Lookup@CMapPtrToPtr@@QBEHPAXAAPAX@Z 007c0250 f   nafxcwd:map_pp.obj
 0002:001162c0       ??ACMapPtrToPtr@@QAEAAPAXPAX@Z 007c02c0 f   nafxcwd:map_pp.obj
 0002:00116380       ?RemoveKey@CMapPtrToPtr@@QAEHPAX@Z 007c0380 f   nafxcwd:map_pp.obj
 0002:00116450       ?GetNextAssoc@CMapPtrToPtr@@QBEXAAPAU__POSITION@@AAPAX1@Z 007c0450 f   nafxcwd:map_pp.obj
 0002:00116630       ?Dump@CMapPtrToPtr@@UBEXAAVCDumpContext@@@Z 007c0630 f   nafxcwd:map_pp.obj
 0002:00116720       ?AssertValid@CMapPtrToPtr@@UBEXXZ 007c0720 f   nafxcwd:map_pp.obj
 0002:00116790       ?GetRuntimeClass@CMapPtrToPtr@@UBEPAUCRuntimeClass@@XZ 007c0790 f   nafxcwd:map_pp.obj
 0002:001167b0       ??0CMapWordToOb@@QAE@H@Z   007c07b0 f   nafxcwd:map_wo.obj
 0002:001168a0       ??_ECMapWordToOb@@UAEPAXI@Z 007c08a0 f i nafxcwd:map_wo.obj
 0002:001168a0       ??_GCMapWordToOb@@UAEPAXI@Z 007c08a0 f i nafxcwd:map_wo.obj
 0002:001168e0       ?InitHashTable@CMapWordToOb@@QAEXIH@Z 007c08e0 f   nafxcwd:map_wo.obj
 0002:00116a00       ?RemoveAll@CMapWordToOb@@QAEXXZ 007c0a00 f   nafxcwd:map_wo.obj
 0002:00116a90       ??1CMapWordToOb@@UAE@XZ    007c0a90 f   nafxcwd:map_wo.obj
 0002:00116b30       ?NewAssoc@CMapWordToOb@@IAEPAUCAssoc@1@XZ 007c0b30 f   nafxcwd:map_wo.obj
 0002:00116c70       ?FreeAssoc@CMapWordToOb@@IAEXPAUCAssoc@1@@Z 007c0c70 f   nafxcwd:map_wo.obj
 0002:00116cf0       ?GetAssocAt@CMapWordToOb@@IBEPAUCAssoc@1@GAAI0@Z 007c0cf0 f   nafxcwd:map_wo.obj
 0002:00116d90       ?HashKey@CMapWordToOb@@QBEIG@Z 007c0d90 f i nafxcwd:map_wo.obj
 0002:00116db0       ?Lookup@CMapWordToOb@@QBEHGAAPAVCObject@@@Z 007c0db0 f   nafxcwd:map_wo.obj
 0002:00116e20       ??ACMapWordToOb@@QAEAAPAVCObject@@G@Z 007c0e20 f   nafxcwd:map_wo.obj
 0002:00116ee0       ?RemoveKey@CMapWordToOb@@QAEHG@Z 007c0ee0 f   nafxcwd:map_wo.obj
 0002:00116fb0       ?GetNextAssoc@CMapWordToOb@@QBEXAAPAU__POSITION@@AAGAAPAVCObject@@@Z 007c0fb0 f   nafxcwd:map_wo.obj
 0002:00117190       ?Serialize@CMapWordToOb@@UAEXAAVCArchive@@@Z 007c1190 f   nafxcwd:map_wo.obj
 0002:00117300       ?Dump@CMapWordToOb@@UBEXAAVCDumpContext@@@Z 007c1300 f   nafxcwd:map_wo.obj
 0002:001173f0       ?AssertValid@CMapWordToOb@@UBEXXZ 007c13f0 f   nafxcwd:map_wo.obj
 0002:00117460       ?CreateObject@CMapWordToOb@@SGPAVCObject@@XZ 007c1460 f   nafxcwd:map_wo.obj
 0002:00117500       ?GetRuntimeClass@CMapWordToOb@@UBEPAUCRuntimeClass@@XZ 007c1500 f   nafxcwd:map_wo.obj
 0002:00117520       ??5@YGAAVCArchive@@AAV0@AAPAVCMapWordToOb@@@Z 007c1520 f   nafxcwd:map_wo.obj
 0002:00117550       ??0CMapStringToPtr@@QAE@H@Z 007c1550 f   nafxcwd:map_sp.obj
 0002:00117640       ??_ECMapStringToPtr@@UAEPAXI@Z 007c1640 f i nafxcwd:map_sp.obj
 0002:00117640       ??_GCMapStringToPtr@@UAEPAXI@Z 007c1640 f i nafxcwd:map_sp.obj
 0002:00117680       ?InitHashTable@CMapStringToPtr@@QAEXIH@Z 007c1680 f   nafxcwd:map_sp.obj
 0002:001177a0       ?RemoveAll@CMapStringToPtr@@QAEXXZ 007c17a0 f   nafxcwd:map_sp.obj
 0002:001178f0       ??1CMapStringToPtr@@UAE@XZ 007c18f0 f   nafxcwd:map_sp.obj
 0002:00117990       ?NewAssoc@CMapStringToPtr@@IAEPAUCAssoc@1@XZ 007c1990 f   nafxcwd:map_sp.obj
 0002:00117b00       ?FreeAssoc@CMapStringToPtr@@IAEXPAUCAssoc@1@@Z 007c1b00 f   nafxcwd:map_sp.obj
 0002:00117b90       ?GetAssocAt@CMapStringToPtr@@IBEPAUCAssoc@1@PBDAAI1@Z 007c1b90 f   nafxcwd:map_sp.obj
 0002:00117c50       ?HashKey@CMapStringToPtr@@QBEIPBD@Z 007c1c50 f i nafxcwd:map_sp.obj
 0002:00117cf0       ?Lookup@CMapStringToPtr@@QBEHPBDAAPAX@Z 007c1cf0 f   nafxcwd:map_sp.obj
 0002:00117d60       ?LookupKey@CMapStringToPtr@@QBEHPBDAAPBD@Z 007c1d60 f   nafxcwd:map_sp.obj
 0002:00117dd0       ??ACMapStringToPtr@@QAEAAPAXPBD@Z 007c1dd0 f   nafxcwd:map_sp.obj
 0002:00117ea0       ?RemoveKey@CMapStringToPtr@@QAEHPBD@Z 007c1ea0 f   nafxcwd:map_sp.obj
 0002:00117f90       ?GetNextAssoc@CMapStringToPtr@@QBEXAAPAU__POSITION@@AAV?$CStringT@DV?$StrTraitMFC@DV?$ChTraitsCRT@D@ATL@@@@@ATL@@AAPAX@Z 007c1f90 f   nafxcwd:map_sp.obj
 0002:00118170       ?Dump@CMapStringToPtr@@UBEXAAVCDumpContext@@@Z 007c2170 f   nafxcwd:map_sp.obj
 0002:001182b0       ?AssertValid@CMapStringToPtr@@UBEXXZ 007c22b0 f   nafxcwd:map_sp.obj
 0002:00118320       ?GetRuntimeClass@CMapStringToPtr@@UBEPAUCRuntimeClass@@XZ 007c2320 f   nafxcwd:map_sp.obj
 0002:00118340       ??0CMapStringToOb@@QAE@H@Z 007c2340 f   nafxcwd:map_so.obj
 0002:00118430       ??_GCMapStringToOb@@UAEPAXI@Z 007c2430 f i nafxcwd:map_so.obj
 0002:00118430       ??_ECMapStringToOb@@UAEPAXI@Z 007c2430 f i nafxcwd:map_so.obj
 0002:00118470       ?InitHashTable@CMapStringToOb@@QAEXIH@Z 007c2470 f   nafxcwd:map_so.obj
 0002:00118590       ?RemoveAll@CMapStringToOb@@QAEXXZ 007c2590 f   nafxcwd:map_so.obj
 0002:001186e0       ??1CMapStringToOb@@UAE@XZ  007c26e0 f   nafxcwd:map_so.obj
 0002:00118780       ?NewAssoc@CMapStringToOb@@IAEPAUCAssoc@1@XZ 007c2780 f   nafxcwd:map_so.obj
 0002:001188f0       ?FreeAssoc@CMapStringToOb@@IAEXPAUCAssoc@1@@Z 007c28f0 f   nafxcwd:map_so.obj
 0002:00118980       ?GetAssocAt@CMapStringToOb@@IBEPAUCAssoc@1@PBDAAI1@Z 007c2980 f   nafxcwd:map_so.obj
 0002:00118a40       ?HashKey@CMapStringToOb@@QBEIPBD@Z 007c2a40 f i nafxcwd:map_so.obj
 0002:00118ae0       ?Lookup@CMapStringToOb@@QBEHPBDAAPAVCObject@@@Z 007c2ae0 f   nafxcwd:map_so.obj
 0002:00118b50       ?LookupKey@CMapStringToOb@@QBEHPBDAAPBD@Z 007c2b50 f   nafxcwd:map_so.obj
 0002:00118bc0       ??ACMapStringToOb@@QAEAAPAVCObject@@PBD@Z 007c2bc0 f   nafxcwd:map_so.obj
 0002:00118c90       ?RemoveKey@CMapStringToOb@@QAEHPBD@Z 007c2c90 f   nafxcwd:map_so.obj
 0002:00118d80       ?GetNextAssoc@CMapStringToOb@@QBEXAAPAU__POSITION@@AAV?$CStringT@DV?$StrTraitMFC@DV?$ChTraitsCRT@D@ATL@@@@@ATL@@AAPAVCObject@@@Z 007c2d80 f   nafxcwd:map_so.obj
 0002:00118f60       ?Serialize@CMapStringToOb@@UAEXAAVCArchive@@@Z 007c2f60 f   nafxcwd:map_so.obj
 0002:00119130       ?Dump@CMapStringToOb@@UBEXAAVCDumpContext@@@Z 007c3130 f   nafxcwd:map_so.obj
 0002:00119270       ?AssertValid@CMapStringToOb@@UBEXXZ 007c3270 f   nafxcwd:map_so.obj
 0002:001192e0       ?CreateObject@CMapStringToOb@@SGPAVCObject@@XZ 007c32e0 f   nafxcwd:map_so.obj
 0002:00119380       ?GetRuntimeClass@CMapStringToOb@@UBEPAUCRuntimeClass@@XZ 007c3380 f   nafxcwd:map_so.obj
 0002:001193a0       ??5@YGAAVCArchive@@AAV0@AAPAVCMapStringToOb@@@Z 007c33a0 f   nafxcwd:map_so.obj
 0002:001193d0       ??0CMapStringToString@@QAE@H@Z 007c33d0 f   nafxcwd:map_ss.obj
 0002:001194c0       ??_ECMapStringToString@@UAEPAXI@Z 007c34c0 f i nafxcwd:map_ss.obj
 0002:001194c0       ??_GCMapStringToString@@UAEPAXI@Z 007c34c0 f i nafxcwd:map_ss.obj
 0002:00119500       ?InitHashTable@CMapStringToString@@QAEXIH@Z 007c3500 f   nafxcwd:map_ss.obj
 0002:00119620       ?RemoveAll@CMapStringToString@@QAEXXZ 007c3620 f   nafxcwd:map_ss.obj
 0002:00119710       ??_GCAssoc@CMapStringToString@@QAEPAXI@Z 007c3710 f i nafxcwd:map_ss.obj
 0002:00119750       ??1CAssoc@CMapStringToString@@QAE@XZ 007c3750 f i nafxcwd:map_ss.obj
 0002:00119770       ??1CMapStringToString@@UAE@XZ 007c3770 f   nafxcwd:map_ss.obj
 0002:00119810       ?NewAssoc@CMapStringToString@@IAEPAVCAssoc@1@PBD@Z 007c3810 f   nafxcwd:map_ss.obj
 0002:001199d0       ?FreeAssoc@CMapStringToString@@IAEXPAVCAssoc@1@@Z 007c39d0 f   nafxcwd:map_ss.obj
 0002:00119a60       ?GetAssocAt@CMapStringToString@@IBEPAVCAssoc@1@PBDAAI1@Z 007c3a60 f   nafxcwd:map_ss.obj
 0002:00119b20       ?HashKey@CMapStringToString@@QBEIPBD@Z 007c3b20 f i nafxcwd:map_ss.obj
 0002:00119bc0       ?PLookup@CMapStringToString@@QBEPBUCPair@1@PBD@Z 007c3bc0 f   nafxcwd:map_ss.obj
 0002:00119c10       ?PLookup@CMapStringToString@@QAEPAUCPair@1@PBD@Z 007c3c10 f   nafxcwd:map_ss.obj
 0002:00119c60       ?Lookup@CMapStringToString@@QBEHPBDAAV?$CStringT@DV?$StrTraitMFC@DV?$ChTraitsCRT@D@ATL@@@@@ATL@@@Z 007c3c60 f   nafxcwd:map_ss.obj
 0002:00119cd0       ?LookupKey@CMapStringToString@@QBEHPBDAAPBD@Z 007c3cd0 f   nafxcwd:map_ss.obj
 0002:00119d40       ??ACMapStringToString@@QAEAAV?$CStringT@DV?$StrTraitMFC@DV?$ChTraitsCRT@D@ATL@@@@@ATL@@PBD@Z 007c3d40 f   nafxcwd:map_ss.obj
 0002:00119e00       ?RemoveKey@CMapStringToString@@QAEHPBD@Z 007c3e00 f   nafxcwd:map_ss.obj
 0002:00119ef0       ?PGetFirstAssoc@CMapStringToString@@QBEPBUCPair@1@XZ 007c3ef0 f   nafxcwd:map_ss.obj
 0002:00119fc0       ?PGetFirstAssoc@CMapStringToString@@QAEPAUCPair@1@XZ 007c3fc0 f   nafxcwd:map_ss.obj
 0002:0011a090       ?GetNextAssoc@CMapStringToString@@QBEXAAPAU__POSITION@@AAV?$CStringT@DV?$StrTraitMFC@DV?$ChTraitsCRT@D@ATL@@@@@ATL@@1@Z 007c4090 f   nafxcwd:map_ss.obj
 0002:0011a270       ?PGetNextAssoc@CMapStringToString@@QBEPBUCPair@1@PBU21@@Z 007c4270 f   nafxcwd:map_ss.obj
 0002:0011a3c0       ?PGetNextAssoc@CMapStringToString@@QAEPAUCPair@1@PBU21@@Z 007c43c0 f   nafxcwd:map_ss.obj
 0002:0011a510       ?Serialize@CMapStringToString@@UAEXAAVCArchive@@@Z 007c4510 f   nafxcwd:map_ss.obj
 0002:0011a700       ?Dump@CMapStringToString@@UBEXAAVCDumpContext@@@Z 007c4700 f   nafxcwd:map_ss.obj
 0002:0011a860       ?AssertValid@CMapStringToString@@UBEXXZ 007c4860 f   nafxcwd:map_ss.obj
 0002:0011a8d0       ?CreateObject@CMapStringToString@@SGPAVCObject@@XZ 007c48d0 f   nafxcwd:map_ss.obj
 0002:0011a970       ?GetRuntimeClass@CMapStringToString@@UBEPAUCRuntimeClass@@XZ 007c4970 f   nafxcwd:map_ss.obj
 0002:0011a990       ??5@YGAAVCArchive@@AAV0@AAPAVCMapStringToString@@@Z 007c4990 f   nafxcwd:map_ss.obj
 0002:0011a9c0       ??0CAssoc@CMapStringToString@@QAE@PBD@Z 007c49c0 f i nafxcwd:map_ss.obj
 0002:0011a9f0       ??0CPair@CMapStringToString@@IAE@PBD@Z 007c49f0 f i nafxcwd:map_ss.obj
 0002:0011aa30       ??1CPair@CMapStringToString@@QAE@XZ 007c4a30 f i nafxcwd:map_ss.obj
 0002:0011aa60       ?GetMessageMap@CCommonDialog@@MBEPBUAFX_MSGMAP@@XZ 007c4a60 f   nafxcwd:dlgcomm.obj
 0002:0011aa80       ?GetThisMessageMap@CCommonDialog@@KGPBUAFX_MSGMAP@@XZ 007c4a80 f   nafxcwd:dlgcomm.obj
 0002:0011aa90       ?_AfxCommDlgProc@@YGIPAUHWND__@@IIJ@Z 007c4a90 f   nafxcwd:dlgcomm.obj
 0002:0011ae80       ?OnOK@CCommonDialog@@MAEXXZ 007c4e80 f   nafxcwd:dlgcomm.obj
 0002:0011af00       ?OnCancel@CCommonDialog@@MAEXXZ 007c4f00 f   nafxcwd:dlgcomm.obj
 0002:0011af40       ?OnHelpInfo@CCommonDialog@@IAEHPAUtagHELPINFO@@@Z 007c4f40 f   nafxcwd:dlgcomm.obj
 0002:0011af70       ?OnPaint@CCommonDialog@@IAEXXZ 007c4f70 f   nafxcwd:dlgcomm.obj
 0002:0011af90       ?GetRuntimeClass@CCommonDialog@@UBEPAUCRuntimeClass@@XZ 007c4f90 f   nafxcwd:dlgcomm.obj
 0002:0011afb0       ??0CFileDialog@@QAE@HPBD0K0PAVCWnd@@KH@Z 007c4fb0 f   nafxcwd:dlgfile.obj
 0002:0011b6c0       ?_tcschr@@YAPADPADI@Z      007c56c0 f i nafxcwd:dlgfile.obj
 0002:0011b6e0       ??_GCFileDialog@@UAEPAXI@Z 007c56e0 f i nafxcwd:dlgfile.obj
 0002:0011b6e0       ??_ECFileDialog@@UAEPAXI@Z 007c56e0 f i nafxcwd:dlgfile.obj
 0002:0011b720       ??0XFileDialogEvents@CFileDialog@@QAE@XZ 007c5720 f i nafxcwd:dlgfile.obj
 0002:0011b750       ??0XFileDialogControlEvents@CFileDialog@@QAE@XZ 007c5750 f i nafxcwd:dlgfile.obj
 0002:0011b780       ??0IFileDialogEvents@@QAE@XZ 007c5780 f i nafxcwd:dlgfile.obj
 0002:0011b7a0       ??0IFileDialogControlEvents@@QAE@XZ 007c57a0 f i nafxcwd:dlgfile.obj
 0002:0011b7c0       ??1CFileDialog@@UAE@XZ     007c57c0 f   nafxcwd:dlgfile.obj
 0002:0011b930       ?GetOFN@CFileDialog@@QBEABUtagOFNA@@XZ 007c5930 f   nafxcwd:dlgfile.obj
 0002:0011b950       ?GetOFN@CFileDialog@@QAEAAUtagOFNA@@XZ 007c5950 f   nafxcwd:dlgfile.obj
 0002:0011b970       ?UpdateOFNFromShellDialog@CFileDialog@@UAEXXZ 007c5970 f   nafxcwd:dlgfile.obj
 0002:0011c150       ?ApplyOFNToShellDialog@CFileDialog@@QAEXXZ 007c6150 f   nafxcwd:dlgfile.obj
 0002:0011d090       ?_PSGetPropertyDescriptionListFromString@CFileDialog@@AAEJPB_WABU_GUID@@PAPAX@Z 007c7090 f   nafxcwd:dlgfile.obj
 0002:0011d200       ?GetIFileOpenDialog@CFileDialog@@QAEPAUIFileOpenDialog@@XZ 007c7200 f   nafxcwd:dlgfile.obj
 0002:0011d290       ?GetIFileSaveDialog@CFileDialog@@QAEPAUIFileSaveDialog@@XZ 007c7290 f   nafxcwd:dlgfile.obj
 0002:0011d320       ?GetIFileDialogCustomize@CFileDialog@@QAEPAUIFileDialogCustomize@@XZ 007c7320 f   nafxcwd:dlgfile.obj
 0002:0011d3b0       ?AddPlace@CFileDialog@@QAEXPB_WW4FDAP@@@Z 007c73b0 f   nafxcwd:dlgfile.obj
 0002:0011d4a0       ??1?$CComPtr@UIShellItem@@@ATL@@QAE@XZ 007c74a0 f i nafxcwd:dlgfile.obj
 0002:0011d4c0       ?AddPlace@CFileDialog@@QAEXPAUIShellItem@@W4FDAP@@@Z 007c74c0 f   nafxcwd:dlgfile.obj
 0002:0011d560       ?GetInterfaceMap@CFileDialog@@MBEPBUAFX_INTERFACEMAP@@XZ 007c7560 f   nafxcwd:dlgfile.obj
 0002:0011d580       ?AddRef@XFileDialogEvents@CFileDialog@@UAGKXZ 007c7580 f   nafxcwd:dlgfile.obj
 0002:0011d5e0       ?Release@XFileDialogEvents@CFileDialog@@UAGKXZ 007c75e0 f   nafxcwd:dlgfile.obj
 0002:0011d640       ?QueryInterface@XFileDialogEvents@CFileDialog@@UAGJABU_GUID@@PAPAX@Z 007c7640 f   nafxcwd:dlgfile.obj
 0002:0011d6a0       ?OnFileOk@XFileDialogEvents@CFileDialog@@UAGJPAUIFileDialog@@@Z 007c76a0 f   nafxcwd:dlgfile.obj
 0002:0011d720       ?OnFolderChange@XFileDialogEvents@CFileDialog@@UAGJPAUIFileDialog@@@Z 007c7720 f   nafxcwd:dlgfile.obj
 0002:0011d790       ?OnFolderChanging@XFileDialogEvents@CFileDialog@@UAGJPAUIFileDialog@@PAUIShellItem@@@Z 007c7790 f   nafxcwd:dlgfile.obj
 0002:0011d7e0       ?OnHelp@XFileDialogEvents@CFileDialog@@UAGJPAUIFileDialog@@@Z 007c77e0 f   nafxcwd:dlgfile.obj
 0002:0011d830       ?OnSelectionChange@XFileDialogEvents@CFileDialog@@UAGJPAUIFileDialog@@@Z 007c7830 f   nafxcwd:dlgfile.obj
 0002:0011d8a0       ?OnTypeChange@XFileDialogEvents@CFileDialog@@UAGJPAUIFileDialog@@@Z 007c78a0 f   nafxcwd:dlgfile.obj
 0002:0011d950       ?OnOverwrite@XFileDialogEvents@CFileDialog@@UAGJPAUIFileDialog@@PAUIShellItem@@PAW4tagFDE_OVERWRITE_RESPONSE@@@Z 007c7950 f   nafxcwd:dlgfile.obj
 0002:0011d9a0       ?OnShareViolation@XFileDialogEvents@CFileDialog@@UAGJPAUIFileDialog@@PAUIShellItem@@PAW4tagFDE_SHAREVIOLATION_RESPONSE@@@Z 007c79a0 f   nafxcwd:dlgfile.obj
 0002:0011db70       ?AddRef@XFileDialogControlEvents@CFileDialog@@UAGKXZ 007c7b70 f   nafxcwd:dlgfile.obj
 0002:0011dbd0       ?Release@XFileDialogControlEvents@CFileDialog@@UAGKXZ 007c7bd0 f   nafxcwd:dlgfile.obj
 0002:0011dc30       ?QueryInterface@XFileDialogControlEvents@CFileDialog@@UAGJABU_GUID@@PAPAX@Z 007c7c30 f   nafxcwd:dlgfile.obj
 0002:0011dcd0       ?OnItemSelected@XFileDialogControlEvents@CFileDialog@@UAGJPAUIFileDialogCustomize@@KK@Z 007c7cd0 f   nafxcwd:dlgfile.obj
 0002:0011dd40       ?OnButtonClicked@XFileDialogControlEvents@CFileDialog@@UAGJPAUIFileDialogCustomize@@K@Z 007c7d40 f   nafxcwd:dlgfile.obj
 0002:0011ddb0       ?OnCheckButtonToggled@XFileDialogControlEvents@CFileDialog@@UAGJPAUIFileDialogCustomize@@KH@Z 007c7db0 f   nafxcwd:dlgfile.obj
 0002:0011de20       ?OnControlActivating@XFileDialogControlEvents@CFileDialog@@UAGJPAUIFileDialogCustomize@@K@Z 007c7e20 f   nafxcwd:dlgfile.obj
 0002:0011de90       ?DoModal@CFileDialog@@UAEHXZ 007c7e90 f   nafxcwd:dlgfile.obj
 0002:0011e220       ?GetResult@CFileDialog@@QAEPAUIShellItem@@XZ 007c8220 f   nafxcwd:dlgfile.obj
 0002:0011e340       ?GetResults@CFileDialog@@QAEPAUIShellItemArray@@XZ 007c8340 f   nafxcwd:dlgfile.obj
 0002:0011e470       ?GetPathName@CFileDialog@@QBE?AV?$CStringT@DV?$StrTraitMFC@DV?$ChTraitsCRT@D@ATL@@@@@ATL@@XZ 007c8470 f   nafxcwd:dlgfile.obj
 0002:0011e7e0       ?GetFileName@CFileDialog@@QBE?AV?$CStringT@DV?$StrTraitMFC@DV?$ChTraitsCRT@D@ATL@@@@@ATL@@XZ 007c87e0 f   nafxcwd:dlgfile.obj
 0002:0011ea50       ?GetFileExt@CFileDialog@@QBE?AV?$CStringT@DV?$StrTraitMFC@DV?$ChTraitsCRT@D@ATL@@@@@ATL@@XZ 007c8a50 f   nafxcwd:dlgfile.obj
 0002:0011ee70       ?GetFileTitle@CFileDialog@@QBE?AV?$CStringT@DV?$StrTraitMFC@DV?$ChTraitsCRT@D@ATL@@@@@ATL@@XZ 007c8e70 f   nafxcwd:dlgfile.obj
 0002:0011ef40       ?GetNextPathName@CFileDialog@@QBE?AV?$CStringT@DV?$StrTraitMFC@DV?$ChTraitsCRT@D@ATL@@@@@ATL@@AAPAU__POSITION@@@Z 007c8f40 f   nafxcwd:dlgfile.obj
 0002:0011f540       ?SetTemplate@CFileDialog@@QAEXPBD0@Z 007c9540 f   nafxcwd:dlgfile.obj
 0002:0011f5d0       ?GetFolderPath@CFileDialog@@QBE?AV?$CStringT@DV?$StrTraitMFC@DV?$ChTraitsCRT@D@ATL@@@@@ATL@@XZ 007c95d0 f   nafxcwd:dlgfile.obj
 0002:0011f7c0       ?SetControlText@CFileDialog@@QAEXHPBD@Z 007c97c0 f   nafxcwd:dlgfile.obj
 0002:0011f950       ?HideControl@CFileDialog@@QAEXH@Z 007c9950 f   nafxcwd:dlgfile.obj
 0002:0011fa70       ?SetDefExt@CFileDialog@@QAEXPBD@Z 007c9a70 f   nafxcwd:dlgfile.obj
 0002:0011fbf0       ?OnShareViolation@CFileDialog@@MAEIPBD@Z 007c9bf0 f   nafxcwd:dlgfile.obj
 0002:0011fc20       ?OnFileNameOK@CFileDialog@@MAEHXZ 007c9c20 f   nafxcwd:dlgfile.obj
 0002:0011fc50       ?OnLBSelChangedNotify@CFileDialog@@MAEXIII@Z 007c9c50 f   nafxcwd:dlgfile.obj
 0002:0011fc80       ?OnInitDone@CFileDialog@@MAEXXZ 007c9c80 f   nafxcwd:dlgfile.obj
 0002:0011fcc0       ?OnFileNameChange@CFileDialog@@MAEXXZ 007c9cc0 f   nafxcwd:dlgfile.obj
 0002:0011fcf0       ?OnFolderChange@CFileDialog@@MAEXXZ 007c9cf0 f   nafxcwd:dlgfile.obj
 0002:0011fd20       ?OnTypeChange@CFileDialog@@MAEXXZ 007c9d20 f   nafxcwd:dlgfile.obj
 0002:0011fd50       ?SetProperties@CFileDialog@@QAEHPB_W@Z 007c9d50 f   nafxcwd:dlgfile.obj
 0002:0011fff0       ?EnableOpenDropDown@CFileDialog@@QAEJK@Z 007c9ff0 f   nafxcwd:dlgfile.obj
 0002:00120060       ?AddMenu@CFileDialog@@QAEJKABV?$CStringT@DV?$StrTraitMFC@DV?$ChTraitsCRT@D@ATL@@@@@ATL@@@Z 007ca060 f   nafxcwd:dlgfile.obj
 0002:00120150       ?AddPushButton@CFileDialog@@QAEJKABV?$CStringT@DV?$StrTraitMFC@DV?$ChTraitsCRT@D@ATL@@@@@ATL@@@Z 007ca150 f   nafxcwd:dlgfile.obj
 0002:00120240       ?AddComboBox@CFileDialog@@QAEJK@Z 007ca240 f   nafxcwd:dlgfile.obj
 0002:001202b0       ?AddRadioButtonList@CFileDialog@@QAEJK@Z 007ca2b0 f   nafxcwd:dlgfile.obj
 0002:00120320       ?AddCheckButton@CFileDialog@@QAEJKABV?$CStringT@DV?$StrTraitMFC@DV?$ChTraitsCRT@D@ATL@@@@@ATL@@H@Z 007ca320 f   nafxcwd:dlgfile.obj
 0002:00120410       ?AddEditBox@CFileDialog@@QAEJKABV?$CStringT@DV?$StrTraitMFC@DV?$ChTraitsCRT@D@ATL@@@@@ATL@@@Z 007ca410 f   nafxcwd:dlgfile.obj
 0002:00120500       ?AddSeparator@CFileDialog@@QAEJK@Z 007ca500 f   nafxcwd:dlgfile.obj
 0002:00120570       ?AddText@CFileDialog@@QAEJKABV?$CStringT@DV?$StrTraitMFC@DV?$ChTraitsCRT@D@ATL@@@@@ATL@@@Z 007ca570 f   nafxcwd:dlgfile.obj
 0002:00120660       ?SetControlLabel@CFileDialog@@QAEJKABV?$CStringT@DV?$StrTraitMFC@DV?$ChTraitsCRT@D@ATL@@@@@ATL@@@Z 007ca660 f   nafxcwd:dlgfile.obj
 0002:00120750       ?GetControlState@CFileDialog@@QAEJKAAW4CDCONTROLSTATEF@@@Z 007ca750 f   nafxcwd:dlgfile.obj
 0002:001207c0       ?SetControlState@CFileDialog@@QAEJKW4CDCONTROLSTATEF@@@Z 007ca7c0 f   nafxcwd:dlgfile.obj
 0002:00120830       ?GetEditBoxText@CFileDialog@@QAEJKAAV?$CStringT@DV?$StrTraitMFC@DV?$ChTraitsCRT@D@ATL@@@@@ATL@@@Z 007ca830 f   nafxcwd:dlgfile.obj
 0002:001208e0       ?SetEditBoxText@CFileDialog@@QAEJKABV?$CStringT@DV?$StrTraitMFC@DV?$ChTraitsCRT@D@ATL@@@@@ATL@@@Z 007ca8e0 f   nafxcwd:dlgfile.obj
 0002:001209d0       ?GetCheckButtonState@CFileDialog@@QAEJKAAH@Z 007ca9d0 f   nafxcwd:dlgfile.obj
 0002:00120a40       ?SetCheckButtonState@CFileDialog@@QAEJKH@Z 007caa40 f   nafxcwd:dlgfile.obj
 0002:00120ab0       ?AddControlItem@CFileDialog@@QAEJKKABV?$CStringT@DV?$StrTraitMFC@DV?$ChTraitsCRT@D@ATL@@@@@ATL@@@Z 007caab0 f   nafxcwd:dlgfile.obj
 0002:00120ba0       ?RemoveControlItem@CFileDialog@@QAEJKK@Z 007caba0 f   nafxcwd:dlgfile.obj
 0002:00120c10       ?GetControlItemState@CFileDialog@@QAEJKKAAW4CDCONTROLSTATEF@@@Z 007cac10 f   nafxcwd:dlgfile.obj
 0002:00120c90       ?SetControlItemState@CFileDialog@@QAEJKKW4CDCONTROLSTATEF@@@Z 007cac90 f   nafxcwd:dlgfile.obj
 0002:00120d10       ?GetSelectedControlItem@CFileDialog@@QAEJKAAK@Z 007cad10 f   nafxcwd:dlgfile.obj
 0002:00120d80       ?SetSelectedControlItem@CFileDialog@@QAEJKK@Z 007cad80 f   nafxcwd:dlgfile.obj
 0002:00120df0       ?StartVisualGroup@CFileDialog@@QAEJKABV?$CStringT@DV?$StrTraitMFC@DV?$ChTraitsCRT@D@ATL@@@@@ATL@@@Z 007cadf0 f   nafxcwd:dlgfile.obj
 0002:00120ee0       ?EndVisualGroup@CFileDialog@@QAEJXZ 007caee0 f   nafxcwd:dlgfile.obj
 0002:00120f50       ?MakeProminent@CFileDialog@@QAEJK@Z 007caf50 f   nafxcwd:dlgfile.obj
 0002:00120fc0       ?SetControlItemText@CFileDialog@@QAEJKKABV?$CStringT@DV?$StrTraitMFC@DV?$ChTraitsCRT@D@ATL@@@@@ATL@@@Z 007cafc0 f   nafxcwd:dlgfile.obj
 0002:001210b0       ?OnItemSelected@CFileDialog@@MAEXKK@Z 007cb0b0 f   nafxcwd:dlgfile.obj
 0002:001210e0       ?OnButtonClicked@CFileDialog@@MAEXK@Z 007cb0e0 f   nafxcwd:dlgfile.obj
 0002:00121110       ?OnCheckButtonToggled@CFileDialog@@MAEXKH@Z 007cb110 f   nafxcwd:dlgfile.obj
 0002:00121140       ?OnControlActivating@CFileDialog@@MAEXK@Z 007cb140 f   nafxcwd:dlgfile.obj
 0002:00121170       ?OnNotify@CFileDialog@@MAEHIJPAJ@Z 007cb170 f   nafxcwd:dlgfile.obj
 0002:00121340       ?Dump@CFileDialog@@UBEXAAVCDumpContext@@@Z 007cb340 f   nafxcwd:dlgfile.obj
 0002:00121760       ?GetRuntimeClass@CFileDialog@@UBEPAUCRuntimeClass@@XZ 007cb760 f   nafxcwd:dlgfile.obj
 0002:00121780       ??0CFolderPickerDialog@@QAE@PBDKPAVCWnd@@K@Z 007cb780 f   nafxcwd:dlgfile.obj
 0002:001217e0       ??_ECFolderPickerDialog@@UAEPAXI@Z 007cb7e0 f i nafxcwd:dlgfile.obj
 0002:001217e0       ??_GCFolderPickerDialog@@UAEPAXI@Z 007cb7e0 f i nafxcwd:dlgfile.obj
 0002:00121820       ??1CFolderPickerDialog@@UAE@XZ 007cb820 f   nafxcwd:dlgfile.obj
 0002:00121850       ?GetRuntimeClass@CFolderPickerDialog@@UBEPAUCRuntimeClass@@XZ 007cb850 f   nafxcwd:dlgfile.obj
 0002:00121870       ??A?$CSimpleStringT@_W$0A@@ATL@@QBE_WH@Z 007cb870 f i nafxcwd:dlgfile.obj
 0002:00121900       ?GetBuffer@?$CSimpleStringT@_W$0A@@ATL@@QAEPA_WXZ 007cb900 f i nafxcwd:dlgfile.obj
 0002:00121950       ?IsEmpty@?$CSimpleStringT@_W$0A@@ATL@@QBE_NXZ 007cb950 f i nafxcwd:dlgfile.obj
 0002:00121980       ?ReleaseBuffer@?$CSimpleStringT@_W$0A@@ATL@@QAEXH@Z 007cb980 f i nafxcwd:dlgfile.obj
 0002:001219e0       ??0?$CStringT@_WV?$StrTraitMFC@_WV?$ChTraitsCRT@_W@ATL@@@@@ATL@@QAE@PB_W@Z 007cb9e0 f i nafxcwd:dlgfile.obj
 0002:00121a80       ??4?$CStringT@_WV?$StrTraitMFC@_WV?$ChTraitsCRT@_W@ATL@@@@@ATL@@QAEAAV01@PB_W@Z 007cba80 f i nafxcwd:dlgfile.obj
 0002:00121ab0       ??0?$CComPtr@UIShellItem@@@ATL@@QAE@XZ 007cbab0 f i nafxcwd:dlgfile.obj
 0002:00121ad0       ??1?$CComPtrBase@UIShellItem@@@ATL@@QAE@XZ 007cbad0 f i nafxcwd:dlgfile.obj
 0002:00121b00       ??B?$CComPtrBase@UIShellItem@@@ATL@@QBEPAUIShellItem@@XZ 007cbb00 f i nafxcwd:dlgfile.obj
 0002:00121b20       ??I?$CComPtrBase@UIShellItem@@@ATL@@QAEPAPAUIShellItem@@XZ 007cbb20 f i nafxcwd:dlgfile.obj
 0002:00121b70       ??4?$CSimpleStringT@_W$0A@@ATL@@QAEAAV01@PB_W@Z 007cbb70 f i nafxcwd:dlgfile.obj
 0002:00121ba0       ?StringLengthN@?$CSimpleStringT@_W$0A@@ATL@@SAHPB_WI@Z 007cbba0 f i nafxcwd:dlgfile.obj
 0002:00121bd0       ??0?$CComPtrBase@UIShellItem@@@ATL@@IAE@XZ 007cbbd0 f i nafxcwd:dlgfile.obj
 0002:00121bf0       ?SetString@?$CSimpleStringT@_W$0A@@ATL@@QAEXPB_W@Z 007cbbf0 f i nafxcwd:dlgfile.obj
 0002:00121c30       ?StringLength@?$CSimpleStringT@_W$0A@@ATL@@SAHPB_W@Z 007cbc30 f i nafxcwd:dlgfile.obj
 0002:00121c60       ??$IID_PPV_ARGS_Helper@UIFileDialog@@@@YAPAPAXPAPAUIFileDialog@@@Z 007cbc60 f i nafxcwd:dlgfile.obj
 0002:00121c70       ??$IID_PPV_ARGS_Helper@UIFileDialogCustomize@@@@YAPAPAXPAPAUIFileDialogCustomize@@@Z 007cbc70 f i nafxcwd:dlgfile.obj
 0002:00121c80       ??$IID_PPV_ARGS_Helper@UIFileOpenDialog@@@@YAPAPAXPAPAUIFileOpenDialog@@@Z 007cbc80 f i nafxcwd:dlgfile.obj
 0002:00121c90       ??$IID_PPV_ARGS_Helper@UIFileSaveDialog@@@@YAPAPAXPAPAUIFileSaveDialog@@@Z 007cbc90 f i nafxcwd:dlgfile.obj
 0002:00121ca0       ??$IID_PPV_ARGS_Helper@UIPropertyDescriptionList@@@@YAPAPAXPAPAUIPropertyDescriptionList@@@Z 007cbca0 f i nafxcwd:dlgfile.obj
 0002:00121cb0       ??0CInterfacePlaceHolder@@QAE@XZ 007cbcb0 f i nafxcwd:dlgfile.obj
 0002:00121cd0       ?AfxCtxGetOpenFileNameA@@YGHPAUtagOFNA@@@Z 007cbcd0 f i nafxcwd:dlgfile.obj
 0002:00121d00       ?_GetOpenFileNameA@CCommDlgWrapper@@QAEHPAUtagOFNA@@@Z 007cbd00 f i nafxcwd:dlgfile.obj
 0002:00121e90       ??BGetOpenFileNameA_Type@CCommDlgWrapper@@QAEP6GHPAUtagOFNA@@@ZXZ 007cbe90 f i nafxcwd:dlgfile.obj
 0002:00121eb0       ?GetProcAddress_GetOpenFileNameA@CCommDlgWrapper@@QAE?AUGetOpenFileNameA_Type@1@XZ 007cbeb0 f i nafxcwd:dlgfile.obj
 0002:00121f20       ??4GetOpenFileNameA_Type@CCommDlgWrapper@@QAEXP6GHPAUtagOFNA@@@Z@Z 007cbf20 f i nafxcwd:dlgfile.obj
 0002:00121f40       ??7GetOpenFileNameA_Type@CCommDlgWrapper@@QBE_NXZ 007cbf40 f i nafxcwd:dlgfile.obj
 0002:00121f60       ?AfxCtxGetSaveFileNameA@@YGHPAUtagOFNA@@@Z 007cbf60 f i nafxcwd:dlgfile.obj
 0002:00121f90       ?_GetSaveFileNameA@CCommDlgWrapper@@QAEHPAUtagOFNA@@@Z 007cbf90 f i nafxcwd:dlgfile.obj
 0002:00122120       ??BGetSaveFileNameA_Type@CCommDlgWrapper@@QAEP6GHPAUtagOFNA@@@ZXZ 007cc120 f i nafxcwd:dlgfile.obj
 0002:00122140       ?GetProcAddress_GetSaveFileNameA@CCommDlgWrapper@@QAE?AUGetSaveFileNameA_Type@1@XZ 007cc140 f i nafxcwd:dlgfile.obj
 0002:001221b0       ??4GetSaveFileNameA_Type@CCommDlgWrapper@@QAEXP6GHPAUtagOFNA@@@Z@Z 007cc1b0 f i nafxcwd:dlgfile.obj
 0002:001221d0       ??7GetSaveFileNameA_Type@CCommDlgWrapper@@QBE_NXZ 007cc1d0 f i nafxcwd:dlgfile.obj
 0002:001221f0       ??$IID_PPV_ARGS_Helper@UIShellItem@@@@YAPAPAXPAPAUIShellItem@@@Z 007cc1f0 f i nafxcwd:dlgfile.obj
 0002:00122200       ?AfxPropPageCallback@@YGIPAUHWND__@@IPAU_PROPSHEETPAGEA@@@Z 007cc200 f   nafxcwd:dlgprop.obj
 0002:00122370       ?GetMessageMap@CPropertyPage@@MBEPBUAFX_MSGMAP@@XZ 007cc370 f   nafxcwd:dlgprop.obj
 0002:00122390       ?GetThisMessageMap@CPropertyPage@@KGPBUAFX_MSGMAP@@XZ 007cc390 f   nafxcwd:dlgprop.obj
 0002:001223a0       ?GetPSP@CPropertyPage@@QBEABU_PROPSHEETPAGEA@@XZ 007cc3a0 f   nafxcwd:dlgprop.obj
 0002:001223c0       ?GetPSP@CPropertyPage@@QAEAAU_PROPSHEETPAGEA@@XZ 007cc3c0 f   nafxcwd:dlgprop.obj
 0002:001223e0       ?AllocPSP@CPropertyPage@@IAEXK@Z 007cc3e0 f   nafxcwd:dlgprop.obj
 0002:001224b0       ??0CPropertyPage@@QAE@IIK@Z 007cc4b0 f   nafxcwd:dlgprop.obj
 0002:001225b0       ??_ECPropertyPage@@UAEPAXI@Z 007cc5b0 f i nafxcwd:dlgprop.obj
 0002:001225b0       ??_GCPropertyPage@@UAEPAXI@Z 007cc5b0 f i nafxcwd:dlgprop.obj
 0002:001225f0       ??0CPropertyPage@@QAE@PBDIK@Z 007cc5f0 f   nafxcwd:dlgprop.obj
 0002:00122710       ?Construct@CPropertyPage@@QAEXII@Z 007cc710 f   nafxcwd:dlgprop.obj
 0002:00122760       ?Construct@CPropertyPage@@QAEXPBDI@Z 007cc760 f   nafxcwd:dlgprop.obj
 0002:00122800       ??0CPropertyPage@@QAE@XZ   007cc800 f   nafxcwd:dlgprop.obj
 0002:001228d0       ?CommonConstruct@CPropertyPage@@IAEXPBDI@Z 007cc8d0 f   nafxcwd:dlgprop.obj
 0002:00122a80       ??0CPropertyPage@@QAE@IIIIK@Z 007cca80 f   nafxcwd:dlgprop.obj
 0002:00122b90       ??0CPropertyPage@@QAE@PBDIIIK@Z 007ccb90 f   nafxcwd:dlgprop.obj
 0002:00122ca0       ?Construct@CPropertyPage@@QAEXIIII@Z 007ccca0 f   nafxcwd:dlgprop.obj
 0002:00122d00       ?Construct@CPropertyPage@@QAEXPBDIII@Z 007ccd00 f   nafxcwd:dlgprop.obj
 0002:00122db0       ?CommonConstruct@CPropertyPage@@IAEXPBDIII@Z 007ccdb0 f   nafxcwd:dlgprop.obj
 0002:00122e90       ??1CPropertyPage@@UAE@XZ   007cce90 f   nafxcwd:dlgprop.obj
 0002:00122f80       ?Cleanup@CPropertyPage@@IAEXXZ 007ccf80 f   nafxcwd:dlgprop.obj
 0002:00123000       ?_AfxChangePropPageFont@@YGPAUDLGTEMPLATE@@PBU1@H@Z 007cd000 f   nafxcwd:dlgprop.obj
 0002:001231a0       ?InitDialogInfo@CPropertyPage@@IAEPBUDLGTEMPLATE@@PBU2@@Z 007cd1a0 f   nafxcwd:dlgprop.obj
 0002:00123210       ?PreProcessPageTemplate@CPropertyPage@@IAEXAAU_PROPSHEETPAGEA@@H@Z 007cd210 f   nafxcwd:dlgprop.obj
 0002:00123350       ?CancelToClose@CPropertyPage@@QAEXXZ 007cd350 f   nafxcwd:dlgprop.obj
 0002:001233e0       ?SetModified@CPropertyPage@@QAEXH@Z 007cd3e0 f   nafxcwd:dlgprop.obj
 0002:001234b0       ?QuerySiblings@CPropertyPage@@QAEJIJ@Z 007cd4b0 f   nafxcwd:dlgprop.obj
 0002:00123540       ?OnApply@CPropertyPage@@UAEHXZ 007cd540 f   nafxcwd:dlgprop.obj
 0002:00123590       ?OnReset@CPropertyPage@@UAEXXZ 007cd590 f   nafxcwd:dlgprop.obj
 0002:001235d0       ?OnOK@CPropertyPage@@UAEXXZ 007cd5d0 f   nafxcwd:dlgprop.obj
 0002:00123600       ?OnCancel@CPropertyPage@@UAEXXZ 007cd600 f   nafxcwd:dlgprop.obj
 0002:00123630       ?OnSetActive@CPropertyPage@@UAEHXZ 007cd630 f   nafxcwd:dlgprop.obj
 0002:00123690       ?OnKillActive@CPropertyPage@@UAEHXZ 007cd690 f   nafxcwd:dlgprop.obj
 0002:00123710       ?OnQueryCancel@CPropertyPage@@UAEHXZ 007cd710 f   nafxcwd:dlgprop.obj
 0002:00123730       ?OnWizardBack@CPropertyPage@@UAEJXZ 007cd730 f   nafxcwd:dlgprop.obj
 0002:00123750       ?OnWizardNext@CPropertyPage@@UAEJXZ 007cd750 f   nafxcwd:dlgprop.obj
 0002:00123770       ?OnWizardFinishEx@CPropertyPage@@UAEPAUHWND__@@XZ 007cd770 f   nafxcwd:dlgprop.obj
 0002:001237a0       ?OnWizardFinish@CPropertyPage@@UAEHXZ 007cd7a0 f   nafxcwd:dlgprop.obj
 0002:00123840       ?MapWizardResult@CPropertyPage@@IAEJJ@Z 007cd840 f   nafxcwd:dlgprop.obj
 0002:00123920       ?IsButtonEnabled@CPropertyPage@@IAEHH@Z 007cd920 f   nafxcwd:dlgprop.obj
 0002:00123970       ?OnNotify@CPropertyPage@@MAEHIJPAJ@Z 007cd970 f   nafxcwd:dlgprop.obj
 0002:00123c20       ?PreTranslateMessage@CPropertyPage@@MAEHPAUtagMSG@@@Z 007cdc20 f   nafxcwd:dlgprop.obj
 0002:00123c70       ?OnCtlColor@CPropertyPage@@IAEPAUHBRUSH__@@PAVCDC@@PAVCWnd@@I@Z 007cdc70 f   nafxcwd:dlgprop.obj
 0002:00123cc0       ?AssertValid@CPropertyPage@@UBEXXZ 007cdcc0 f   nafxcwd:dlgprop.obj
 0002:00123d70       ?Dump@CPropertyPage@@UBEXAAVCDumpContext@@@Z 007cdd70 f   nafxcwd:dlgprop.obj
 0002:00123e00       ?EndDialog@CPropertyPage@@QAEXH@Z 007cde00 f   nafxcwd:dlgprop.obj
 0002:00123e50       ?GetMessageMap@CPropertySheet@@MBEPBUAFX_MSGMAP@@XZ 007cde50 f   nafxcwd:dlgprop.obj
 0002:00123e70       ?GetThisMessageMap@CPropertySheet@@KGPBUAFX_MSGMAP@@XZ 007cde70 f   nafxcwd:dlgprop.obj
 0002:00123e80       ?OnSetDefID@CPropertySheet@@IAEJIJ@Z 007cde80 f   nafxcwd:dlgprop.obj
 0002:00123fd0       ??0CPropertySheet@@QAE@XZ  007cdfd0 f   nafxcwd:dlgprop.obj
 0002:00124080       ??_GCPropertySheet@@UAEPAXI@Z 007ce080 f i nafxcwd:dlgprop.obj
 0002:00124080       ??_ECPropertySheet@@UAEPAXI@Z 007ce080 f i nafxcwd:dlgprop.obj
 0002:001240c0       ??0CPropertySheet@@QAE@IPAVCWnd@@I@Z 007ce0c0 f   nafxcwd:dlgprop.obj
 0002:001241f0       ??0CPropertySheet@@QAE@PBDPAVCWnd@@I@Z 007ce1f0 f   nafxcwd:dlgprop.obj
 0002:00124310       ?Construct@CPropertySheet@@QAEXIPAVCWnd@@I@Z 007ce310 f   nafxcwd:dlgprop.obj
 0002:001243b0       ?Construct@CPropertySheet@@QAEXPBDPAVCWnd@@I@Z 007ce3b0 f   nafxcwd:dlgprop.obj
 0002:00124440       ?CommonConstruct@CPropertySheet@@QAEXPAVCWnd@@I@Z 007ce440 f   nafxcwd:dlgprop.obj
 0002:00124500       ??0CPropertySheet@@QAE@IPAVCWnd@@IPAUHBITMAP__@@PAUHPALETTE__@@1@Z 007ce500 f   nafxcwd:dlgprop.obj
 0002:00124640       ??0CPropertySheet@@QAE@PBDPAVCWnd@@IPAUHBITMAP__@@PAUHPALETTE__@@2@Z 007ce640 f   nafxcwd:dlgprop.obj
 0002:00124770       ?Construct@CPropertySheet@@QAEXIPAVCWnd@@IPAUHBITMAP__@@PAUHPALETTE__@@1@Z 007ce770 f   nafxcwd:dlgprop.obj
 0002:00124820       ?Construct@CPropertySheet@@QAEXPBDPAVCWnd@@IPAUHBITMAP__@@PAUHPALETTE__@@2@Z 007ce820 f   nafxcwd:dlgprop.obj
 0002:001248c0       ?CommonConstruct@CPropertySheet@@QAEXPAVCWnd@@IPAUHBITMAP__@@PAUHPALETTE__@@1@Z 007ce8c0 f   nafxcwd:dlgprop.obj
 0002:001249a0       ?EnableStackedTabs@CPropertySheet@@QAEXH@Z 007ce9a0 f   nafxcwd:dlgprop.obj
 0002:001249d0       ?SetTitle@CPropertySheet@@QAEXPBDI@Z 007ce9d0 f   nafxcwd:dlgprop.obj
 0002:00124ac0       ??1CPropertySheet@@UAE@XZ  007ceac0 f   nafxcwd:dlgprop.obj
 0002:00124b70       ?PreTranslateMessage@CPropertySheet@@UAEHPAUtagMSG@@@Z 007ceb70 f   nafxcwd:dlgprop.obj
 0002:00124d00       ?OnCmdMsg@CPropertySheet@@UAEHIHPAXPAUAFX_CMDHANDLERINFO@@@Z 007ced00 f   nafxcwd:dlgprop.obj
 0002:00124f00       ?GetActivePage@CPropertySheet@@QBEPAVCPropertyPage@@XZ 007cef00 f   nafxcwd:dlgprop.obj
 0002:00124f90       ?ContinueModal@CPropertySheet@@UAEHXZ 007cef90 f   nafxcwd:dlgprop.obj
 0002:00125010       ?DoModal@CPropertySheet@@UAEHXZ 007cf010 f   nafxcwd:dlgprop.obj
 0002:001253a0       ?AfxPropSheetCallback@@YGHPAUHWND__@@IJ@Z 007cf3a0 f   nafxcwd:dlgprop.obj
 0002:00125470       ?Create@CPropertySheet@@UAEHPAVCWnd@@KK@Z 007cf470 f   nafxcwd:dlgprop.obj
 0002:00125760       ?BuildPropPageArray@CPropertySheet@@UAEXXZ 007cf760 f   nafxcwd:dlgprop.obj
 0002:00125a50       ?GetPageCount@CPropertySheet@@QBEHXZ 007cfa50 f   nafxcwd:dlgprop.obj
 0002:00125b00       ?GetActiveIndex@CPropertySheet@@QBEHXZ 007cfb00 f   nafxcwd:dlgprop.obj
 0002:00125b90       ?SetActivePage@CPropertySheet@@QAEHH@Z 007cfb90 f   nafxcwd:dlgprop.obj
 0002:00125be0       ?GetPageIndex@CPropertySheet@@QAEHPAVCPropertyPage@@@Z 007cfbe0 f   nafxcwd:dlgprop.obj
 0002:00125c40       ?SetActivePage@CPropertySheet@@QAEHPAVCPropertyPage@@@Z 007cfc40 f   nafxcwd:dlgprop.obj
 0002:00125d10       ?AddPage@CPropertySheet@@QAEXPAVCPropertyPage@@@Z 007cfd10 f   nafxcwd:dlgprop.obj
 0002:00126000       ?RemovePage@CPropertySheet@@QAEXPAVCPropertyPage@@@Z 007d0000 f   nafxcwd:dlgprop.obj
 0002:001260d0       ?RemovePage@CPropertySheet@@QAEXH@Z 007d00d0 f   nafxcwd:dlgprop.obj
 0002:00126140       ?EndDialog@CPropertySheet@@QAEXH@Z 007d0140 f   nafxcwd:dlgprop.obj
 0002:001261a0       ?OnClose@CPropertySheet@@IAEXXZ 007d01a0 f   nafxcwd:dlgprop.obj
 0002:00126200       ?OnKickIdle@CPropertySheet@@IAEJIJ@Z 007d0200 f   nafxcwd:dlgprop.obj
 0002:00126280       ?OnSysCommand@CPropertySheet@@IAEXIJ@Z 007d0280 f   nafxcwd:dlgprop.obj
 0002:001262f0       ?OnInitDialog@CPropertySheet@@UAEHXZ 007d02f0 f   nafxcwd:dlgprop.obj
 0002:00126670       ?OnNcCreate@CPropertySheet@@IAEHPAUtagCREATESTRUCTA@@@Z 007d0670 f   nafxcwd:dlgprop.obj
 0002:001266b0       ?HandleInitDialog@CPropertySheet@@IAEJIJ@Z 007d06b0 f   nafxcwd:dlgprop.obj
 0002:001266e0       ?OnCommand@CPropertySheet@@UAEHIJ@Z 007d06e0 f   nafxcwd:dlgprop.obj
 0002:001267c0       ?OnCommandHelp@CPropertySheet@@IAEJIJ@Z 007d07c0 f   nafxcwd:dlgprop.obj
 0002:00126840       ?OnCtlColor@CPropertySheet@@IAEPAUHBRUSH__@@PAVCDC@@PAVCWnd@@I@Z 007d0840 f   nafxcwd:dlgprop.obj
 0002:001268d0       ?AssertValid@CPropertySheet@@UBEXXZ 007d08d0 f   nafxcwd:dlgprop.obj
 0002:00126960       ?Dump@CPropertySheet@@UBEXAAVCDumpContext@@@Z 007d0960 f   nafxcwd:dlgprop.obj
 0002:00126a60       ?GetRuntimeClass@CPropertyPage@@UBEPAUCRuntimeClass@@XZ 007d0a60 f   nafxcwd:dlgprop.obj
 0002:00126a80       ?GetRuntimeClass@CPropertySheet@@UBEPAUCRuntimeClass@@XZ 007d0a80 f   nafxcwd:dlgprop.obj
 0002:00126aa0       ?AfxCreatePropertySheetPageA@@YGPAU_PSP@@PBU_PROPSHEETPAGEA@@@Z 007d0aa0 f i nafxcwd:dlgprop.obj
 0002:00126ad0       ?_CreatePropertySheetPageA@CComCtlWrapper@@QAEPAU_PSP@@PBU_PROPSHEETPAGEA@@@Z 007d0ad0 f i nafxcwd:dlgprop.obj
 0002:00126c60       ??BCreatePropertySheetPageA_Type@CComCtlWrapper@@QAEP6GPAU_PSP@@PBU_PROPSHEETPAGEA@@@ZXZ 007d0c60 f i nafxcwd:dlgprop.obj
 0002:00126c80       ?GetProcAddress_CreatePropertySheetPageA@CComCtlWrapper@@QAE?AUCreatePropertySheetPageA_Type@1@XZ 007d0c80 f i nafxcwd:dlgprop.obj
 0002:00126cf0       ??4CreatePropertySheetPageA_Type@CComCtlWrapper@@QAEXP6GPAU_PSP@@PBU_PROPSHEETPAGEA@@@Z@Z 007d0cf0 f i nafxcwd:dlgprop.obj
 0002:00126d10       ??7CreatePropertySheetPageA_Type@CComCtlWrapper@@QBE_NXZ 007d0d10 f i nafxcwd:dlgprop.obj
 0002:00126d30       ?AfxDestroyPropertySheetPage@@YGHPAU_PSP@@@Z 007d0d30 f i nafxcwd:dlgprop.obj
 0002:00126d60       ?_DestroyPropertySheetPage@CComCtlWrapper@@QAEHPAU_PSP@@@Z 007d0d60 f i nafxcwd:dlgprop.obj
 0002:00126ef0       ??BDestroyPropertySheetPage_Type@CComCtlWrapper@@QAEP6GHPAU_PSP@@@ZXZ 007d0ef0 f i nafxcwd:dlgprop.obj
 0002:00126f10       ?GetProcAddress_DestroyPropertySheetPage@CComCtlWrapper@@QAE?AUDestroyPropertySheetPage_Type@1@XZ 007d0f10 f i nafxcwd:dlgprop.obj
 0002:00126f80       ??4DestroyPropertySheetPage_Type@CComCtlWrapper@@QAEXP6GHPAU_PSP@@@Z@Z 007d0f80 f i nafxcwd:dlgprop.obj
 0002:00126fa0       ??7DestroyPropertySheetPage_Type@CComCtlWrapper@@QBE_NXZ 007d0fa0 f i nafxcwd:dlgprop.obj
 0002:00126fc0       ?AfxPropertySheetA@@YGHPBU_PROPSHEETHEADERA_V2@@@Z 007d0fc0 f i nafxcwd:dlgprop.obj
 0002:00126ff0       ?_PropertySheetA@CComCtlWrapper@@QAEHPBU_PROPSHEETHEADERA_V2@@@Z 007d0ff0 f i nafxcwd:dlgprop.obj
 0002:00127180       ??BPropertySheetA_Type@CComCtlWrapper@@QAEP6GHPBU_PROPSHEETHEADERA_V2@@@ZXZ 007d1180 f i nafxcwd:dlgprop.obj
 0002:001271a0       ?GetProcAddress_PropertySheetA@CComCtlWrapper@@QAE?AUPropertySheetA_Type@1@XZ 007d11a0 f i nafxcwd:dlgprop.obj
 0002:00127210       ??4PropertySheetA_Type@CComCtlWrapper@@QAEXP6GHPBU_PROPSHEETHEADERA_V2@@@Z@Z 007d1210 f i nafxcwd:dlgprop.obj
 0002:00127230       ??7PropertySheetA_Type@CComCtlWrapper@@QBE_NXZ 007d1230 f i nafxcwd:dlgprop.obj
 0002:00127250       ?GetMessageMap@CControlBar@@MBEPBUAFX_MSGMAP@@XZ 007d1250 f   nafxcwd:barcore.obj
 0002:00127270       ?GetThisMessageMap@CControlBar@@KGPBUAFX_MSGMAP@@XZ 007d1270 f   nafxcwd:barcore.obj
 0002:00127280       ??0CControlBar@@IAE@XZ     007d1280 f   nafxcwd:barcore.obj
 0002:001273c0       ?SetInPlaceOwner@CControlBar@@QAEXPAVCWnd@@@Z 007d13c0 f   nafxcwd:barcore.obj
 0002:001273e0       ?SetBorders@CControlBar@@QAEXHHHH@Z 007d13e0 f   nafxcwd:barcore.obj
 0002:001274a0       ?PreCreateWindow@CControlBar@@UAEHAAUtagCREATESTRUCTA@@@Z 007d14a0 f   nafxcwd:barcore.obj
 0002:001275e0       ?SetBarStyle@CControlBar@@QAEXK@Z 007d15e0 f   nafxcwd:barcore.obj
 0002:00127680       ?OnBarStyleChange@CControlBar@@UAEXKK@Z 007d1680 f   nafxcwd:barcore.obj
 0002:001276a0       ?AllocElements@CControlBar@@QAEHHH@Z 007d16a0 f   nafxcwd:barcore.obj
 0002:00127850       ??1CControlBar@@UAE@XZ     007d1850 f   nafxcwd:barcore.obj
 0002:001279f0       ?PostNcDestroy@CControlBar@@UAEXXZ 007d19f0 f   nafxcwd:barcore.obj
 0002:00127a50       ?CalcFixedLayout@CControlBar@@UAE?AVCSize@@HH@Z 007d1a50 f   nafxcwd:barcore.obj
 0002:00127ae0       ?CalcDynamicLayout@CControlBar@@UAE?AVCSize@@HK@Z 007d1ae0 f   nafxcwd:barcore.obj
 0002:00127b30       ?IsDockBar@CControlBar@@UBEHXZ 007d1b30 f   nafxcwd:barcore.obj
 0002:00127b50       ?ResetTimer@CControlBar@@QAEXII@Z 007d1b50 f   nafxcwd:barcore.obj
 0002:00127bc0       ?OnTimer@CControlBar@@QAEXI@Z 007d1bc0 f   nafxcwd:barcore.obj
 0002:00127e40       ?SetStatusText@CControlBar@@UAEHH@Z 007d1e40 f   nafxcwd:barcore.obj
 0002:00127f60       ?PreTranslateMessage@CControlBar@@UAEHPAUtagMSG@@@Z 007d1f60 f   nafxcwd:barcore.obj
 0002:001282e0       ?WindowProc@CControlBar@@UAEJIIJ@Z 007d22e0 f   nafxcwd:barcore.obj
 0002:00128630       ?OnHelpHitTest@CControlBar@@QAEJIJ@Z 007d2630 f   nafxcwd:barcore.obj
 0002:001286e0       ?OnWindowPosChanging@CControlBar@@QAEXPAUtagWINDOWPOS@@@Z 007d26e0 f   nafxcwd:barcore.obj
 0002:00128890       ?OnCreate@CControlBar@@QAEHPAUtagCREATESTRUCTA@@@Z 007d2890 f   nafxcwd:barcore.obj
 0002:00128990       ?OnThemeChanged@CControlBar@@QAEJXZ 007d2990 f   nafxcwd:barcore.obj
 0002:00128a20       ?OnDestroy@CControlBar@@QAEXXZ 007d2a20 f   nafxcwd:barcore.obj
 0002:00128b20       ?DestroyWindow@CControlBar@@UAEHXZ 007d2b20 f   nafxcwd:barcore.obj
 0002:00128b80       ?OnMouseActivate@CControlBar@@QAEHPAVCWnd@@II@Z 007d2b80 f   nafxcwd:barcore.obj
 0002:00128bd0       ?OnPaint@CControlBar@@QAEXXZ 007d2bd0 f   nafxcwd:barcore.obj
 0002:00128c90       ?EraseNonClient@CControlBar@@QAEXXZ 007d2c90 f   nafxcwd:barcore.obj
 0002:00128e20       ?OnCtlColor@CControlBar@@QAEPAUHBRUSH__@@PAVCDC@@PAVCWnd@@I@Z 007d2e20 f   nafxcwd:barcore.obj
 0002:00128ea0       ?OnLButtonDown@CControlBar@@QAEXIVCPoint@@@Z 007d2ea0 f   nafxcwd:barcore.obj
 0002:00128f70       ?OnLButtonDblClk@CControlBar@@QAEXIVCPoint@@@Z 007d2f70 f   nafxcwd:barcore.obj
 0002:00129020       ?OnIdleUpdateCmdUI@CControlBar@@QAEJIJ@Z 007d3020 f   nafxcwd:barcore.obj
 0002:00129190       ?OnInitialUpdate@CControlBar@@QAEXXZ 007d3190 f   nafxcwd:barcore.obj
 0002:001291b0       ?RecalcDelayShow@CControlBar@@UAEKPAUAFX_SIZEPARENTPARAMS@@@Z 007d31b0 f   nafxcwd:barcore.obj
 0002:00129390       ?OnSizeParent@CControlBar@@QAEJIJ@Z 007d3390 f   nafxcwd:barcore.obj
 0002:001296a0       ?DelayShow@CControlBar@@UAEXH@Z 007d36a0 f   nafxcwd:barcore.obj
 0002:00129740       ?IsVisible@CControlBar@@UBEHXZ 007d3740 f   nafxcwd:barcore.obj
 0002:001297a0       ?DoPaint@CControlBar@@UAEXPAVCDC@@@Z 007d37a0 f   nafxcwd:barcore.obj
 0002:00129860       ?DrawBorders@CControlBar@@UAEXPAVCDC@@AAVCRect@@@Z 007d3860 f   nafxcwd:barcore.obj
 0002:00129d30       ?DrawNonThemedGripper@CControlBar@@UAEHPAVCDC@@ABVCRect@@@Z 007d3d30 f   nafxcwd:barcore.obj
 0002:00129e70       ?DrawThemedGripper@CControlBar@@UAEHPAVCDC@@ABVCRect@@H@Z 007d3e70 f   nafxcwd:barcore.obj
 0002:0012a200       ?DrawGripper@CControlBar@@UAEXPAVCDC@@ABVCRect@@@Z 007d4200 f   nafxcwd:barcore.obj
 0002:0012a2c0       ?DrawNCGripper@CControlBar@@UAEXPAVCDC@@ABVCRect@@@Z 007d42c0 f   nafxcwd:barcore.obj
 0002:0012a380       ?CalcInsideRect@CControlBar@@UBEXAAVCRect@@H@Z 007d4380 f   nafxcwd:barcore.obj
 0002:0012a570       ?AssertValid@CControlBar@@UBEXXZ 007d4570 f   nafxcwd:barcore.obj
 0002:0012a600       ?Dump@CControlBar@@UBEXAAVCDumpContext@@@Z 007d4600 f   nafxcwd:barcore.obj
 0002:0012a740       ?AfxLoadSysColorBitmap@@YGPAUHBITMAP__@@PAUHINSTANCE__@@PAUHRSRC__@@H@Z 007d4740 f   nafxcwd:bartool.obj
 0002:0012aa50       ?_AfxGetComCtlVersion@@YGKXZ 007d4a50 f   nafxcwd:bartool.obj
 0002:0012abb0       ?_AfxGetDropDownWidth@@YGHXZ 007d4bb0 f   nafxcwd:bartool.obj
 0002:0012ad10       ??0CToolBar@@QAE@XZ        007d4d10 f   nafxcwd:bartool.obj
 0002:0012ae60       ??_ECToolBar@@UAEPAXI@Z    007d4e60 f i nafxcwd:bartool.obj
 0002:0012ae60       ??_GCToolBar@@UAEPAXI@Z    007d4e60 f i nafxcwd:bartool.obj
 0002:0012aea0       ??1CToolBar@@UAE@XZ        007d4ea0 f   nafxcwd:bartool.obj
 0002:0012af70       ?Create@CToolBar@@UAEHPAVCWnd@@KI@Z 007d4f70 f   nafxcwd:bartool.obj
 0002:0012b020       ?CreateEx@CToolBar@@UAEHPAVCWnd@@KKVCRect@@I@Z 007d5020 f   nafxcwd:bartool.obj
 0002:0012b230       ?OnNcCreate@CToolBar@@IAEHPAUtagCREATESTRUCTA@@@Z 007d5230 f   nafxcwd:bartool.obj
 0002:0012b2c0       ?SetOwner@CToolBar@@QAEXPAVCWnd@@@Z 007d52c0 f   nafxcwd:bartool.obj
 0002:0012b360       ?SetSizes@CToolBar@@QAEXUtagSIZE@@0@Z 007d5360 f   nafxcwd:bartool.obj
 0002:0012b5c0       ?SetHeight@CToolBar@@QAEXH@Z 007d55c0 f   nafxcwd:bartool.obj
 0002:0012b730       ?LoadToolBar@CToolBar@@QAEHPBD@Z 007d5730 f   nafxcwd:bartool.obj
 0002:0012b990       ?items@CToolBarData@@QAEPAGXZ 007d5990 f i nafxcwd:bartool.obj
 0002:0012b9b0       ?LoadBitmapA@CToolBar@@QAEHPBD@Z 007d59b0 f   nafxcwd:bartool.obj
 0002:0012ba80       ?SetBitmap@CToolBar@@QAEHPAUHBITMAP__@@@Z 007d5a80 f   nafxcwd:bartool.obj
 0002:0012bb00       ?AddReplaceBitmap@CToolBar@@QAEHPAUHBITMAP__@@@Z 007d5b00 f   nafxcwd:bartool.obj
 0002:0012bc40       ?SetButtons@CToolBar@@QAEHPBIH@Z 007d5c40 f   nafxcwd:bartool.obj
 0002:0012bf40       ?_GetButton@CToolBar@@IBEXHPAU_TBBUTTON@@@Z 007d5f40 f   nafxcwd:bartool.obj
 0002:0012bfc0       ?_SetButton@CToolBar@@IAEXHPAU_TBBUTTON@@@Z 007d5fc0 f   nafxcwd:bartool.obj
 0002:0012c290       ?CommandToIndex@CToolBar@@QBEHI@Z 007d6290 f   nafxcwd:bartool.obj
 0002:0012c320       ?GetItemID@CToolBar@@QBEIH@Z 007d6320 f   nafxcwd:bartool.obj
 0002:0012c3b0       ?GetItemRect@CToolBar@@UBEXHPAUtagRECT@@@Z 007d63b0 f   nafxcwd:bartool.obj
 0002:0012c470       ?Layout@CToolBar@@IAEXXZ   007d6470 f   nafxcwd:bartool.obj
 0002:0012c570       ?GetButtonStyle@CToolBar@@QBEIH@Z 007d6570 f   nafxcwd:bartool.obj
 0002:0012c620       ?SetButtonStyle@CToolBar@@QAEXHI@Z 007d6620 f   nafxcwd:bartool.obj
 0002:0012c730       ?CalcSize@CToolBar@@IAE?AVCSize@@PAU_TBBUTTON@@H@Z 007d6730 f   nafxcwd:bartool.obj
 0002:0012caa0       ?WrapToolBar@CToolBar@@IAEHPAU_TBBUTTON@@HH@Z 007d6aa0 f   nafxcwd:bartool.obj
 0002:0012cda0       ?SizeToolBar@CToolBar@@IAEXPAU_TBBUTTON@@HHH@Z 007d6da0 f   nafxcwd:bartool.obj
 0002:0012d0c0       ?CalcLayout@CToolBar@@IAE?AVCSize@@KH@Z 007d70c0 f   nafxcwd:bartool.obj
 0002:0012daa0       ??0_AFX_CONTROLPOS@@QAE@XZ 007d7aa0 f i nafxcwd:bartool.obj
 0002:0012dad0       ?CalcFixedLayout@CToolBar@@UAE?AVCSize@@HH@Z 007d7ad0 f   nafxcwd:bartool.obj
 0002:0012db30       ?CalcDynamicLayout@CToolBar@@UAE?AVCSize@@HK@Z 007d7b30 f   nafxcwd:bartool.obj
 0002:0012dbc0       ?GetButtonInfo@CToolBar@@QBEXHAAI0AAH@Z 007d7bc0 f   nafxcwd:bartool.obj
 0002:0012dc90       ?SetButtonInfo@CToolBar@@QAEXHIIH@Z 007d7c90 f   nafxcwd:bartool.obj
 0002:0012dd80       ?OnToolHitTest@CToolBar@@UBEHVCPoint@@PAUtagTOOLINFOA@@@Z 007d7d80 f   nafxcwd:bartool.obj
 0002:0012dfc0       ?SetButtonText@CToolBar@@QAEHHPBD@Z 007d7fc0 f   nafxcwd:bartool.obj
 0002:0012e200       ?GetButtonText@CToolBar@@QBE?AV?$CStringT@DV?$StrTraitMFC@DV?$ChTraitsCRT@D@ATL@@@@@ATL@@H@Z 007d8200 f   nafxcwd:bartool.obj
 0002:0012e2b0       ?GetButtonText@CToolBar@@QBEXHAAV?$CStringT@DV?$StrTraitMFC@DV?$ChTraitsCRT@D@ATL@@@@@ATL@@@Z 007d82b0 f   nafxcwd:bartool.obj
 0002:0012e3d0       ?GetMessageMap@CToolBar@@MBEPBUAFX_MSGMAP@@XZ 007d83d0 f   nafxcwd:bartool.obj
 0002:0012e3f0       ?GetThisMessageMap@CToolBar@@KGPBUAFX_MSGMAP@@XZ 007d83f0 f   nafxcwd:bartool.obj
 0002:0012e400       ?OnEraseBkgnd@CToolBar@@IAEHPAVCDC@@@Z 007d8400 f   nafxcwd:bartool.obj
 0002:0012e420       ?OnNcHitTest@CToolBar@@IAEJVCPoint@@@Z 007d8420 f   nafxcwd:bartool.obj
 0002:0012e440       ?OnNcCalcSize@CToolBar@@IAEXHPAUtagNCCALCSIZE_PARAMS@@@Z 007d8440 f   nafxcwd:bartool.obj
 0002:0012e580       ?OnBarStyleChange@CToolBar@@UAEXKK@Z 007d8580 f   nafxcwd:bartool.obj
 0002:0012e670       ?OnNcPaint@CToolBar@@IAEXXZ 007d8670 f   nafxcwd:bartool.obj
 0002:0012e690       ?OnWindowPosChanging@CToolBar@@IAEXPAUtagWINDOWPOS@@@Z 007d8690 f   nafxcwd:bartool.obj
 0002:0012e720       ?OnPaint@CToolBar@@IAEXXZ  007d8720 f   nafxcwd:bartool.obj
 0002:0012e760       ?OnSetButtonSize@CToolBar@@IAEJIJ@Z 007d8760 f   nafxcwd:bartool.obj
 0002:0012e790       ?OnSetBitmapSize@CToolBar@@IAEJIJ@Z 007d8790 f   nafxcwd:bartool.obj
 0002:0012e7c0       ?OnSetSizeHelper@CToolBar@@IAEJAAVCSize@@J@Z 007d87c0 f   nafxcwd:bartool.obj
 0002:0012e920       ?OnPreserveZeroBorderHelper@CToolBar@@IAEJIJ@Z 007d8920 f   nafxcwd:bartool.obj
 0002:0012ea60       ?OnPreserveSizingPolicyHelper@CToolBar@@IAEJIJ@Z 007d8a60 f   nafxcwd:bartool.obj
 0002:0012ec00       ?OnSysColorChange@CToolBar@@IAEXXZ 007d8c00 f   nafxcwd:bartool.obj
 0002:0012ec70       ?get_accName@CToolBar@@UAEJUtagVARIANT@@PAPA_W@Z 007d8c70 f   nafxcwd:bartool.obj
 0002:0012ee40       ?Enable@CToolCmdUI@@UAEXH@Z 007d8e40 f   nafxcwd:bartool.obj
 0002:0012ef70       ?SetCheck@CToolCmdUI@@UAEXH@Z 007d8f70 f   nafxcwd:bartool.obj
 0002:0012f0c0       ?SetText@CToolCmdUI@@UAEXPBD@Z 007d90c0 f   nafxcwd:bartool.obj
 0002:0012f0e0       ?OnUpdateCmdUI@CToolBar@@UAEXPAVCFrameWnd@@H@Z 007d90e0 f   nafxcwd:bartool.obj
 0002:0012f200       ??0CToolCmdUI@@QAE@XZ      007d9200 f i nafxcwd:bartool.obj
 0002:0012f230       ?AssertValid@CToolBar@@UBEXXZ 007d9230 f   nafxcwd:bartool.obj
 0002:0012f2d0       ?Dump@CToolBar@@UBEXAAVCDumpContext@@@Z 007d92d0 f   nafxcwd:bartool.obj
 0002:0012f570       ?GetRuntimeClass@CToolBar@@UBEPAUCRuntimeClass@@XZ 007d9570 f   nafxcwd:bartool.obj
 0002:0012f590       ?AfxTrackerTerm@@YAXXZ     007d9590 f   nafxcwd:trckrect.obj
 0002:0012f5c0       ??0CRectTracker@@QAE@PBUtagRECT@@I@Z 007d95c0 f   nafxcwd:trckrect.obj
 0002:0012f670       ?Construct@CRectTracker@@IAEXXZ 007d9670 f   nafxcwd:trckrect.obj
 0002:0012f980       ??1CRectTracker@@UAE@XZ    007d9980 f   nafxcwd:trckrect.obj
 0002:0012f9a0       ?Draw@CRectTracker@@QBEXPAVCDC@@@Z 007d99a0 f   nafxcwd:trckrect.obj
 0002:0012fe10       ?SetCursor@CRectTracker@@QBEHPAVCWnd@@I@Z 007d9e10 f   nafxcwd:trckrect.obj
 0002:0012ff40       ?HitTest@CRectTracker@@QBEHVCPoint@@@Z 007d9f40 f   nafxcwd:trckrect.obj
 0002:00130040       ?NormalizeHit@CRectTracker@@QBEHH@Z 007da040 f   nafxcwd:trckrect.obj
 0002:001301f0       ?Track@CRectTracker@@QAEHPAVCWnd@@VCPoint@@H0@Z 007da1f0 f   nafxcwd:trckrect.obj
 0002:00130260       ?TrackRubberBand@CRectTracker@@QAEHPAVCWnd@@VCPoint@@H@Z 007da260 f   nafxcwd:trckrect.obj
 0002:001302c0       ?DrawTrackerRect@CRectTracker@@UAEXPBUtagRECT@@PAVCWnd@@PAVCDC@@1@Z 007da2c0 f   nafxcwd:trckrect.obj
 0002:001304a0       ?AdjustRect@CRectTracker@@UAEXHPAUtagRECT@@@Z 007da4a0 f   nafxcwd:trckrect.obj
 0002:00130760       ?GetTrueRect@CRectTracker@@QBEXPAUtagRECT@@@Z 007da760 f   nafxcwd:trckrect.obj
 0002:00130870       ?OnChangedRect@CRectTracker@@UAEXABVCRect@@@Z 007da870 f   nafxcwd:trckrect.obj
 0002:00130890       ?GetHandleRect@CRectTracker@@IBEXHPAVCRect@@@Z 007da890 f   nafxcwd:trckrect.obj
 0002:00130a80       ?GetHandleSize@CRectTracker@@MBEHPBUtagRECT@@@Z 007daa80 f   nafxcwd:trckrect.obj
 0002:00130b70       ?HitTestHandles@CRectTracker@@IBEHVCPoint@@@Z 007dab70 f   nafxcwd:trckrect.obj
 0002:00130d10       ?TrackHandle@CRectTracker@@IAEHHPAVCWnd@@VCPoint@@0@Z 007dad10 f   nafxcwd:trckrect.obj
 0002:00131270       ?GetModifyPointers@CRectTracker@@IAEXHPAPAH0PAH1@Z 007db270 f   nafxcwd:trckrect.obj
 0002:00131430       ?GetHandleMask@CRectTracker@@UBEIXZ 007db430 f   nafxcwd:trckrect.obj
 0002:001314c0       ?LoadBitmaps@CBitmapButton@@QAEHPBD000@Z 007db4c0 f   nafxcwd:winbtn.obj
 0002:00131630       ?SizeToContent@CBitmapButton@@QAEXXZ 007db630 f   nafxcwd:winbtn.obj
 0002:001316e0       ?AutoLoad@CBitmapButton@@QAEHIPAVCWnd@@@Z 007db6e0 f   nafxcwd:winbtn.obj
 0002:00131910       ?DrawItem@CBitmapButton@@MAEXPAUtagDRAWITEMSTRUCT@@@Z 007db910 f   nafxcwd:winbtn.obj
 0002:00131b20       ?AssertValid@CBitmapButton@@UBEXXZ 007dbb20 f   nafxcwd:winbtn.obj
 0002:00131ba0       ?Dump@CBitmapButton@@UBEXAAVCDumpContext@@@Z 007dbba0 f   nafxcwd:winbtn.obj
 0002:00131c70       ?GetRuntimeClass@CBitmapButton@@UBEPAUCRuntimeClass@@XZ 007dbc70 f   nafxcwd:winbtn.obj
 0002:00131c90       ??0AFX_MAINTAIN_STATE2@@QAE@PAVAFX_MODULE_STATE@@@Z 007dbc90 f   nafxcwd:afxstate.obj
 0002:00131cf0       ??1AFX_MAINTAIN_STATE2@@QAE@XZ 007dbcf0 f   nafxcwd:afxstate.obj
 0002:00131d40       ??0_AFX_THREAD_STATE@@QAE@XZ 007dbd40 f   nafxcwd:afxstate.obj
 0002:00131dc0       ??_G_AFX_THREAD_STATE@@UAEPAXI@Z 007dbdc0 f i nafxcwd:afxstate.obj
 0002:00131dc0       ??_E_AFX_THREAD_STATE@@UAEPAXI@Z 007dbdc0 f i nafxcwd:afxstate.obj
 0002:00131e00       ??1_AFX_THREAD_STATE@@UAE@XZ 007dbe00 f   nafxcwd:afxstate.obj
 0002:00131ef0       ?AfxGetThreadState@@YGPAV_AFX_THREAD_STATE@@XZ 007dbef0 f   nafxcwd:afxstate.obj
 0002:00131f60       ??0AFX_MODULE_STATE@@QAE@H@Z 007dbf60 f   nafxcwd:afxstate.obj
 0002:001322a0       ??_GAFX_MODULE_STATE@@UAEPAXI@Z 007dc2a0 f i nafxcwd:afxstate.obj
 0002:001322a0       ??_EAFX_MODULE_STATE@@UAEPAXI@Z 007dc2a0 f i nafxcwd:afxstate.obj
 0002:001322e0       ??1?$CThreadLocal@VAFX_MODULE_THREAD_STATE@@@@QAE@XZ 007dc2e0 f i nafxcwd:afxstate.obj
 0002:00132300       ?AfxCreateActCtxW@@YGPAXPBUtagACTCTXW@@@Z 007dc300 f   nafxcwd:afxstate.obj
 0002:00132330       ?AfxReleaseActCtx@@YGXPAX@Z 007dc330 f   nafxcwd:afxstate.obj
 0002:00132350       ?AfxActivateActCtx@@YGHPAXPAK@Z 007dc350 f   nafxcwd:afxstate.obj
 0002:00132380       ?AfxDeactivateActCtx@@YGHKK@Z 007dc380 f   nafxcwd:afxstate.obj
 0002:001323b0       ?AfxActivateActCtxWrapper@@YG?AW4eActCtxResult@@PAXPAK@Z 007dc3b0 f   nafxcwd:afxstate.obj
 0002:00132430       ?CreateActivationContext@AFX_MODULE_STATE@@QAEXXZ 007dc430 f   nafxcwd:afxstate.obj
 0002:001325c0       ??1AFX_MODULE_STATE@@UAE@XZ 007dc5c0 f   nafxcwd:afxstate.obj
 0002:00132810       ?RemoveAll@CTypeLibCacheMap@@UAEXPAX@Z 007dc810 f   nafxcwd:afxstate.obj
 0002:001328d0       ??0AFX_MODULE_THREAD_STATE@@QAE@XZ 007dc8d0 f   nafxcwd:afxstate.obj
 0002:001329a0       ??_GAFX_MODULE_THREAD_STATE@@UAEPAXI@Z 007dc9a0 f i nafxcwd:afxstate.obj
 0002:001329a0       ??_EAFX_MODULE_THREAD_STATE@@UAEPAXI@Z 007dc9a0 f i nafxcwd:afxstate.obj
 0002:001329e0       ??1AFX_MODULE_THREAD_STATE@@UAE@XZ 007dc9e0 f   nafxcwd:afxstate.obj
 0002:00132cb0       ?AfxGetAppModuleState@@YGPAVAFX_MODULE_STATE@@XZ 007dccb0 f   nafxcwd:afxstate.obj
 0002:00132cd0       ?AfxGetModuleState@@YGPAVAFX_MODULE_STATE@@XZ 007dccd0 f   nafxcwd:afxstate.obj
 0002:00132da0       ?AfxGetInstanceHandleHelper@@YGPAUHINSTANCE__@@XZ 007dcda0 f   nafxcwd:afxstate.obj
 0002:00132dc0       ?AfxIsModuleDll@@YGHXZ     007dcdc0 f   nafxcwd:afxstate.obj
 0002:00132de0       ?AfxInitCurrentStateApp@@YGHXZ 007dcde0 f   nafxcwd:afxstate.obj
 0002:00132e40       ?AfxGetModuleThreadState@@YGPAVAFX_MODULE_THREAD_STATE@@XZ 007dce40 f   nafxcwd:afxstate.obj
 0002:00132eb0       ?Unlock@CTypeLibCache@@QAEXXZ 007dceb0 f   nafxcwd:afxstate.obj
 0002:00132f60       ?AfxSetPerUserRegistration@@YGXH@Z 007dcf60 f   nafxcwd:afxstate.obj
 0002:00132f80       ?AfxGetPerUserRegistration@@YGHXZ 007dcf80 f   nafxcwd:afxstate.obj
 0002:00132f90       ??0?$CTypedSimpleList@PAVCFrameWnd@@@@QAE@H@Z 007dcf90 f i nafxcwd:afxstate.obj
 0002:00132fc0       ??0?$CTypedSimpleList@PAUCRuntimeClass@@@@QAE@H@Z 007dcfc0 f i nafxcwd:afxstate.obj
 0002:00132ff0       ??0?$CTypedSimpleList@PAVCOleObjectFactory@@@@QAE@H@Z 007dcff0 f i nafxcwd:afxstate.obj
 0002:00133020       ??0?$CTypedSimpleList@PAVCOleControlLock@@@@QAE@H@Z 007dd020 f i nafxcwd:afxstate.obj
 0002:00133050       ??B?$CThreadLocal@V_AFX_THREAD_STATE@@@@QAEPAV_AFX_THREAD_STATE@@XZ 007dd050 f i nafxcwd:afxstate.obj
 0002:00133070       ?GetData@?$CProcessLocal@V_AFX_BASE_MODULE_STATE@@@@QAEPAV_AFX_BASE_MODULE_STATE@@XZ 007dd070 f i nafxcwd:afxstate.obj
 0002:001330e0       ?CreateObject@?$CProcessLocal@V_AFX_BASE_MODULE_STATE@@@@SGPAVCNoTrackObject@@XZ 007dd0e0 f i nafxcwd:afxstate.obj
 0002:00133180       ??0_AFX_BASE_MODULE_STATE@@QAE@XZ 007dd180 f i nafxcwd:afxstate.obj
 0002:001331b0       ??_G_AFX_BASE_MODULE_STATE@@UAEPAXI@Z 007dd1b0 f i nafxcwd:afxstate.obj
 0002:001331b0       ??_E_AFX_BASE_MODULE_STATE@@UAEPAXI@Z 007dd1b0 f i nafxcwd:afxstate.obj
 0002:001331f0       ??1_AFX_BASE_MODULE_STATE@@UAE@XZ 007dd1f0 f i nafxcwd:afxstate.obj
 0002:00133210       ??0CSimpleList@@QAE@H@Z    007dd210 f i nafxcwd:afxstate.obj
 0002:00133240       ?Construct@CSimpleList@@QAEXH@Z 007dd240 f i nafxcwd:afxstate.obj
 0002:00133280       ??0CTypeLibCache@@QAE@XZ   007dd280 f i nafxcwd:afxstate.obj
 0002:001332d0       ??0CComCtlWrapper@@QAE@XZ  007dd2d0 f i nafxcwd:afxstate.obj
 0002:00133970       ??0CDllIsolationWrapperBase@@QAE@ABV?$CStringT@DV?$StrTraitMFC@DV?$ChTraitsCRT@D@ATL@@@@@ATL@@@Z 007dd970 f i nafxcwd:afxstate.obj
 0002:00133a10       ?CommonConstruct@CDllIsolationWrapperBase@@QAEXXZ 007dda10 f i nafxcwd:afxstate.obj
 0002:00133a40       ??1CDllIsolationWrapperBase@@UAE@XZ 007dda40 f i nafxcwd:afxstate.obj
 0002:00133aa0       ??_GCDllIsolationWrapperBase@@UAEPAXI@Z 007ddaa0 f i nafxcwd:afxstate.obj
 0002:00133aa0       ??_ECDllIsolationWrapperBase@@UAEPAXI@Z 007ddaa0 f i nafxcwd:afxstate.obj
 0002:00133ae0       ??0InitCommonControls_Type@CComCtlWrapper@@QAE@XZ 007ddae0 f i nafxcwd:afxstate.obj
 0002:00133b00       ??0InitCommonControlsEx_Type@CComCtlWrapper@@QAE@XZ 007ddb00 f i nafxcwd:afxstate.obj
 0002:00133b20       ??0ImageList_Create_Type@CComCtlWrapper@@QAE@XZ 007ddb20 f i nafxcwd:afxstate.obj
 0002:00133b40       ??0ImageList_Destroy_Type@CComCtlWrapper@@QAE@XZ 007ddb40 f i nafxcwd:afxstate.obj
 0002:00133b60       ??0ImageList_GetImageCount_Type@CComCtlWrapper@@QAE@XZ 007ddb60 f i nafxcwd:afxstate.obj
 0002:00133b80       ??0ImageList_SetImageCount_Type@CComCtlWrapper@@QAE@XZ 007ddb80 f i nafxcwd:afxstate.obj
 0002:00133ba0       ??0ImageList_Add_Type@CComCtlWrapper@@QAE@XZ 007ddba0 f i nafxcwd:afxstate.obj
 0002:00133bc0       ??0ImageList_ReplaceIcon_Type@CComCtlWrapper@@QAE@XZ 007ddbc0 f i nafxcwd:afxstate.obj
 0002:00133be0       ??0ImageList_SetBkColor_Type@CComCtlWrapper@@QAE@XZ 007ddbe0 f i nafxcwd:afxstate.obj
 0002:00133c00       ??0ImageList_GetBkColor_Type@CComCtlWrapper@@QAE@XZ 007ddc00 f i nafxcwd:afxstate.obj
 0002:00133c20       ??0ImageList_SetOverlayImage_Type@CComCtlWrapper@@QAE@XZ 007ddc20 f i nafxcwd:afxstate.obj
 0002:00133c40       ??0ImageList_Draw_Type@CComCtlWrapper@@QAE@XZ 007ddc40 f i nafxcwd:afxstate.obj
 0002:00133c60       ??0ImageList_Replace_Type@CComCtlWrapper@@QAE@XZ 007ddc60 f i nafxcwd:afxstate.obj
 0002:00133c80       ??0ImageList_AddMasked_Type@CComCtlWrapper@@QAE@XZ 007ddc80 f i nafxcwd:afxstate.obj
 0002:00133ca0       ??0ImageList_DrawEx_Type@CComCtlWrapper@@QAE@XZ 007ddca0 f i nafxcwd:afxstate.obj
 0002:00133cc0       ??0ImageList_DrawIndirect_Type@CComCtlWrapper@@QAE@XZ 007ddcc0 f i nafxcwd:afxstate.obj
 0002:00133ce0       ??0ImageList_Remove_Type@CComCtlWrapper@@QAE@XZ 007ddce0 f i nafxcwd:afxstate.obj
 0002:00133d00       ??0ImageList_GetIcon_Type@CComCtlWrapper@@QAE@XZ 007ddd00 f i nafxcwd:afxstate.obj
 0002:00133d20       ??0ImageList_LoadImageA_Type@CComCtlWrapper@@QAE@XZ 007ddd20 f i nafxcwd:afxstate.obj
 0002:00133d40       ??0ImageList_LoadImageW_Type@CComCtlWrapper@@QAE@XZ 007ddd40 f i nafxcwd:afxstate.obj
 0002:00133d60       ??0ImageList_Copy_Type@CComCtlWrapper@@QAE@XZ 007ddd60 f i nafxcwd:afxstate.obj
 0002:00133d80       ??0ImageList_BeginDrag_Type@CComCtlWrapper@@QAE@XZ 007ddd80 f i nafxcwd:afxstate.obj
 0002:00133da0       ??0ImageList_EndDrag_Type@CComCtlWrapper@@QAE@XZ 007ddda0 f i nafxcwd:afxstate.obj
 0002:00133dc0       ??0ImageList_DragEnter_Type@CComCtlWrapper@@QAE@XZ 007dddc0 f i nafxcwd:afxstate.obj
 0002:00133de0       ??0ImageList_DragLeave_Type@CComCtlWrapper@@QAE@XZ 007ddde0 f i nafxcwd:afxstate.obj
 0002:00133e00       ??0ImageList_DragMove_Type@CComCtlWrapper@@QAE@XZ 007dde00 f i nafxcwd:afxstate.obj
 0002:00133e20       ??0ImageList_SetDragCursorImage_Type@CComCtlWrapper@@QAE@XZ 007dde20 f i nafxcwd:afxstate.obj
 0002:00133e40       ??0ImageList_DragShowNolock_Type@CComCtlWrapper@@QAE@XZ 007dde40 f i nafxcwd:afxstate.obj
 0002:00133e60       ??0ImageList_GetDragImage_Type@CComCtlWrapper@@QAE@XZ 007dde60 f i nafxcwd:afxstate.obj
 0002:00133e80       ??0ImageList_Read_Type@CComCtlWrapper@@QAE@XZ 007dde80 f i nafxcwd:afxstate.obj
 0002:00133ea0       ??0ImageList_Write_Type@CComCtlWrapper@@QAE@XZ 007ddea0 f i nafxcwd:afxstate.obj
 0002:00133ec0       ??0ImageList_ReadEx_Type@CComCtlWrapper@@QAE@XZ 007ddec0 f i nafxcwd:afxstate.obj
 0002:00133ee0       ??0ImageList_WriteEx_Type@CComCtlWrapper@@QAE@XZ 007ddee0 f i nafxcwd:afxstate.obj
 0002:00133f00       ??0ImageList_GetIconSize_Type@CComCtlWrapper@@QAE@XZ 007ddf00 f i nafxcwd:afxstate.obj
 0002:00133f20       ??0ImageList_SetIconSize_Type@CComCtlWrapper@@QAE@XZ 007ddf20 f i nafxcwd:afxstate.obj
 0002:00133f40       ??0ImageList_GetImageInfo_Type@CComCtlWrapper@@QAE@XZ 007ddf40 f i nafxcwd:afxstate.obj
 0002:00133f60       ??0ImageList_Merge_Type@CComCtlWrapper@@QAE@XZ 007ddf60 f i nafxcwd:afxstate.obj
